(dp0
S'Lionel C. Briand'
p1
(lp2
(S'Tamer A. ElBatt'
p3
I17
tp4
a(S'Sunil Mithas'
p5
I14
tp6
a(S'Jun-Hong Cui'
p7
I12
tp8
a(S'Jang-Ping Sheu'
p9
I28
tp10
a(S'David Gefen'
p11
I76
tp12
a(S'Andrei Z. Broder'
p13
I35
tp14
a(S'Dong Xin'
p15
I20
tp16
a(S'Kemal Akkaya'
p17
I22
tp18
a(S"Liadan O'Callaghan"
p19
I13
tp20
a(S'Jim Partan'
p21
I14
tp22
a(S'Nael B. Abu-Ghazaleh'
p23
I15
tp24
a(S'Peter Green'
p25
I12
tp26
a(S'Barbara Hammer'
p27
I21
tp28
a(S'Fernando Sancho-Caparrini'
p29
I18
tp30
a(S'Robert O. Briggs'
p31
I12
tp32
a(S'Sumitra Mukherjee'
p33
I14
tp34
a(S'Chun-Sheng Yu'
p35
I17
tp36
a(S'Tommaso Melodia'
p37
I49
tp38
a(S'Starr Roxanne Hiltz'
p39
I16
tp40
a(S'Nikos A. Lorentzos'
p41
I18
tp42
a(S'Scott A. Golder'
p43
I19
tp44
a(S'Chiara Petrioli'
p45
I15
tp46
a(S'Sumio Watanabe'
p47
I16
tp48
a(S'Leonard Barolli'
p49
I13
tp50
a(S'Jian Pei'
p51
I59
tp52
a(S'Christos H. Papadimitriou'
p53
I16
tp54
a(S'Ling Feng'
p55
I11
tp56
a(S'Helen Pinto'
p57
I21
tp58
a(S'M. Lynne Markus'
p59
I34
tp60
a(S'Samuel Madden'
p61
I31
tp62
a(S'Hannes Hartenstein'
p63
I59
tp64
a(S'Michael D. Smith'
p65
I14
tp66
a(S'Frank van Harmelen'
p67
I18
tp68
a(S'Qinglong Hu'
p69
I15
tp70
a(S'Paul Chwelos'
p71
I30
tp72
a(S'Gheorghe Paun'
p73
I13
tp74
a(S'Blaize Horner Reich'
p75
I19
tp76
a(S'Christoph Lindemann'
p77
I12
tp78
a(S'Qing Li'
p79
I26
tp80
a(S'David Kotz'
p81
I22
tp82
a(S'Gert-Jan de Vreede'
p83
I17
tp84
a(S'Manoranjan Dash'
p85
I16
tp86
a(S'Eelko K. R. E. Huizingh'
p87
I17
tp88
a(S'Greg Fu'
p89
I13
tp90
a(S'Dario Pompili'
p91
I12
tp92
a(S'Xudong Wang'
p93
I45
tp94
a(S'Michael J. Franklin'
p95
I43
tp96
a(S'Kamalakar Karlapalem'
p97
I24
tp98
a(S'Sudipto Guha'
p99
I21
tp100
a(S'B. S. Manoj'
p101
I13
tp102
a(S'Adam Meyerson'
p103
I13
tp104
a(S'Panos Kalnis'
p105
I19
tp106
a(S'Ben Shneiderman'
p107
I16
tp108
a(S'Ron Weber'
p109
I42
tp110
a(S'Wen-Syan Li'
p111
I18
tp112
a(S'Y. C. Tay'
p113
I19
tp114
a(S'Mathias Weske'
p115
I18
tp116
a(S'Gabriel Ghinita'
p117
I13
tp118
a(S'Richard M. Fujimoto'
p119
I14
tp120
a(S'Roy C. Schmidt'
p121
I13
tp122
a(S'Vivek Choudhury'
p123
I85
tp124
a(S'Wei Liu'
p125
I12
tp126
a(S'Scott Shenker'
p127
I74
tp128
a(S'William E. Yancey'
p129
I11
tp130
a(S'Silvana Castano'
p131
I45
tp132
a(S'Alok Gupta'
p133
I29
tp134
a(S'Marco Gruteser'
p135
I13
tp136
a(S'Murat Caliskan'
p137
I23
tp138
a(S'V. S. Subrahmanian'
p139
I23
tp140
a(S'Tianping Chen'
p141
I23
tp142
a(S'Seung-Chul M. Woo'
p143
I11
tp144
a(S'Jeanne W. Ross'
p145
I30
tp146
a(S'Edwin M. M. Ortega'
p147
I24
tp148
a(S'Manish Parashar'
p149
I12
tp150
a(S'Ian Horrocks'
p151
I17
tp152
a(S'Raouf Boutaba'
p153
I26
tp154
a(S'Amrit Tiwana'
p155
I17
tp156
a(S'Dianne Cyr'
p157
I12
tp158
a(S'Ulrike Schultze'
p159
I12
tp160
a(S'Clara Pizzuti'
p161
I13
tp162
a(S'Runying Mao'
p163
I25
tp164
a(S'Chang Liu'
p165
I48
tp166
a(S'Hung-Pin Shih'
p167
I14
tp168
a(S'Sergey Melnik'
p169
I23
tp170
a(S'Christos Douligeris'
p171
I14
tp172
a(S'Christopher R. Plouffe'
p173
I13
tp174
a(S'Rajiv Sabherwal'
p175
I66
tp176
a(S'Won-Yeol Lee'
p177
I56
tp178
a(S'Mario Gerla'
p179
I30
tp180
a(S'Sylvia Ratnasamy'
p181
I14
tp182
a(S'Olov Schel\xc3\xa9n'
p183
I36
tp184
a(S'Ravi Kumar'
p185
I34
tp186
a(S'Dimitris Karlis'
p187
I12
tp188
a(S'Deborah Estrin'
p189
I47
tp190
a(S'Mirco Musolesi'
p191
I21
tp192
a(S'Matthew J. Duftler'
p193
I27
tp194
a(S'Max J. Egenhofer'
p195
I12
tp196
a(S'\xc3\x9cmit \xc3\x96zg\xc3\xbcner'
p197
I12
tp198
a(S'Peter J. Sher'
p199
I12
tp200
a(S'Yair Wand'
p201
I35
tp202
a(S'Paul Legris'
p203
I32
tp204
a(S'Daniel Jiang'
p205
I25
tp206
a(S'Ben Y. Zhao'
p207
I20
tp208
a(S'Michael Hunter'
p209
I16
tp210
a(S'Sukho Lee'
p211
I13
tp212
a(S'John Ingham'
p213
I32
tp214
a(S'\xc3\x81lvaro Romero Jim\xc3\xa9nez'
p215
I18
tp216
a(S'Ian T. Foster'
p217
I41
tp218
a(S'Joseph A. Paradiso'
p219
I12
tp220
a(S'Geoffrey Mainland'
p221
I16
tp222
a(S'James Ze Wang'
p223
I11
tp224
a(S'George Samaras'
p225
I20
tp226
a(S'Tridas Mukhopadhyay'
p227
I28
tp228
a(S'Sasan Dashtinezhad'
p229
I15
tp230
a(S'David E. Culler'
p231
I41
tp232
a(S'Nick Koudas'
p233
I25
tp234
a(S'Yih-Chun Hu'
p235
I38
tp236
a(S'Hariharan Krishnan'
p237
I17
tp238
a(S'P. R. Kumar'
p239
I11
tp240
a(S'Piet Van Mieghem'
p241
I18
tp242
a(S'Prabhudev Konana'
p243
I11
tp244
a(S'Christy M. K. Cheung'
p245
I12
tp246
a(S'Athman Bouguettaya'
p247
I21
tp248
a(S'Prabhakar Raghavan'
p249
I35
tp250
a(S'Alan F. Smeaton'
p251
I19
tp252
a(S'John S. Hulland'
p253
I13
tp254
a(S'Grigoris Antoniou'
p255
I12
tp256
a(S'Kenneth P. Fishkin'
p257
I26
tp258
a(S'Vipin Kumar'
p259
I23
tp260
a(S'Hung-Jen Lai'
p261
I18
tp262
a(S'Ofir Turel'
p263
I11
tp264
a(S'Pradeep Kyasanur'
p265
I19
tp266
a(S'Koen Langendoen'
p267
I14
tp268
a(S'D. J. Wu'
p269
I20
tp270
a(S'Peter Dayan'
p271
I16
tp272
a(S'Mario J. P\xc3\xa9rez-Jim\xc3\xa9nez'
p273
I45
tp274
a(S'Daniel L. Sherrell'
p275
I24
tp276
a(S'Thomas H. Davenport'
p277
I17
tp278
a(S'Vidyanand Choudhary'
p279
I33
tp280
a(S'Robert J. Kauffman'
p281
I99
tp282
a(S'Hannu Toivonen'
p283
I16
tp284
a(S'Gregory W. Wornell'
p285
I13
tp286
a(S'Ming-Syan Chen'
p287
I52
tp288
a(S'Osamu Hasegawa'
p289
I12
tp290
a(S'Michalis Vazirgiannis'
p291
I20
tp292
a(S'Erkki Oja'
p293
I26
tp294
a(S'Fabi\xc3\xa1n E. Bustamante'
p295
I16
tp296
a(S'Charles X. Ling'
p297
I15
tp298
a(S'Beng Chin Ooi'
p299
I22
tp300
a(S'Richard Y. Wang'
p301
I27
tp302
a(S'Daqing Zhang'
p303
I39
tp304
a(S'Paulo B. Goes'
p305
I20
tp306
a(S'Oskar Sandberg'
p307
I12
tp308
a(S'Mu-Yen Chen'
p309
I11
tp310
a(S'Ganesh D. Bhatt'
p311
I15
tp312
a(S'Bo-Cheng Wei'
p313
I12
tp314
a(S'Francisco Cribari-Neto'
p315
I14
tp316
a(S'Frederick J. Riggins'
p317
I22
tp318
a(S'Sirkka L. Jarvenpaa'
p319
I59
tp320
a(S'Amit Basu'
p321
I21
tp322
a(S'Clarence Filsfils'
p323
I16
tp324
a(S'Subhash Suri'
p325
I16
tp326
a(S'Wenceslao Gonz\xc3\xa1lez-Manteiga'
p327
I24
tp328
a(S'Krishna M. Sivalingam'
p329
I37
tp330
a(S'Ismailcem Budak Arpinar'
p331
I11
tp332
a(S'Ashutosh Sabharwal'
p333
I11
tp334
a(S'Jay Nunamaker Jr.'
p335
I23
tp336
a(S'Victor Wen'
p337
I34
tp338
a(S'Liviu Iftode'
p339
I28
tp340
a(S'Yash P. Gupta'
p341
I12
tp342
a(S'Chin-Lung Hsu'
p343
I21
tp344
a(S'Fatemeh Zahedi'
p345
I27
tp346
a(S'Chew Lim Tan'
p347
I12
tp348
a(S'John G. Taylor'
p349
I13
tp350
a(S'Prasant Mohapatra'
p351
I19
tp352
a(S'Jeen Broekstra'
p353
I15
tp354
a(S'Wei Wang'
p355
I20
tp356
a(S'Brian Neil Levine'
p357
I22
tp358
a(S'Shashi Shekhar'
p359
I14
tp360
a(S'Josep Domingo-Ferrer'
p361
I63
tp362
a(S'J. Leon Zhao'
p363
I35
tp364
a(S'Robert F. Easley'
p365
I11
tp366
a(S'Jeffrey Parsons'
p367
I13
tp368
a(S'Marian Gheorghe'
p369
I12
tp370
a(S'Greg Linden'
p371
I21
tp372
a(S'Richard M. Karp'
p373
I28
tp374
a(S'Paolo Terenziani'
p375
I15
tp376
a(S'Tore Dyb\xc3\xa5'
p377
I34
tp378
a(S'Shichao Zhang'
p379
I11
tp380
a(S'Antonia Maria Tulino'
p381
I16
tp382
a(S'Daniel Robey'
p383
I25
tp384
a(S'Edward A. Stohr'
p385
I20
tp386
a(S'R. Brent Gallupe'
p387
I13
tp388
a(S'John Evans'
p389
I16
tp390
a(S'Thad Starner'
p391
I31
tp392
a(S'Diane J. Cook'
p393
I21
tp394
a(S'Paul E. Cule'
p395
I13
tp396
a(S'Feng Xue'
p397
I25
tp398
a(S'Zuhair Bandar'
p399
I14
tp400
a(S'Dirk H\xc3\xa4hnel'
p401
I26
tp402
asS'Zhang Yi'
p403
(lp404
(S'Elena Dasseni'
p405
I26
tp406
ag332
a(S'J. D. Tygar'
p407
I34
tp408
ag110
a(S'Kartik Gopalan'
p409
I40
tp410
a(S'Bryan W. Scotney'
p411
I13
tp412
a(S'Mani B. Srivastava'
p413
I15
tp414
a(S'Dmitri V. Kalashnikov'
p415
I15
tp416
a(S'Joachim Herbst'
p417
I27
tp418
a(S'Bernardo A. Huberman'
p419
I19
tp420
a(S'Milica Stojanovic'
p421
I30
tp422
a(S'David McLean'
p423
I14
tp424
a(S'Xiaohang Wang'
p425
I11
tp426
a(S'Farhad Hussain'
p427
I12
tp428
a(S'Domenico Sacc\xc3\xa0'
p429
I16
tp430
ag222
a(S'Ramarathnam Venkatesan'
p431
I17
tp432
a(S'Yogesh Sankarasubramaniam'
p433
I183
tp434
a(S'David B. Johnson'
p435
I56
tp436
a(S'Michael J. Pazzani'
p437
I13
tp438
a(S'Gary Klein'
p439
I38
tp440
a(S'Terry Anthony Byrd'
p441
I37
tp442
a(S'Wang Chiew Tan'
p443
I40
tp444
a(S'Kun Shin Im'
p445
I18
tp446
a(S'Gediminas Adomavicius'
p447
I43
tp448
a(S'Alfonso Cervantes'
p449
I13
tp450
a(S'Phokion G. Kolaitis'
p451
I28
tp452
a(S'James Agarwal'
p453
I18
tp454
a(S'Alan Nawoj'
p455
I16
tp456
a(S'Vicen\xc3\xa7 Torra'
p457
I21
tp458
a(S'Se-Joon Hong'
p459
I13
tp460
a(S'Nikos Mamoulis'
p461
I43
tp462
ag322
a(S'Christoph Bussler'
p463
I13
tp464
a(S'Peter Rousseeuw'
p465
I14
tp466
a(S'Ravi Aron'
p467
I20
tp468
a(S'Srikanth V. Krishnamurthy'
p469
I14
tp470
a(S'Vivid C. Lee'
p471
I12
tp472
ag256
ag396
a(S'Anind K. Dey'
p473
I44
tp474
ag308
ag354
a(S'Michael Erdmann'
p475
I12
tp476
a(S'Ram L. Kumar'
p477
I23
tp478
a(S'Alexander Tuzhilin'
p479
I46
tp480
a(S'Manfred Reichert'
p481
I29
tp482
a(S'Christophe Biernacki'
p483
I21
tp484
a(S'Wolfgang Hackbusch'
p485
I12
tp486
a(S'Heeseok Lee'
p487
I27
tp488
ag306
ag148
a(S'Fan Ye'
p489
I25
tp490
a(S'Wessel Kraaij'
p491
I17
tp492
a(S'Carlo Combi'
p493
I12
tp494
ag230
a(S'Valeria De Antonellis'
p495
I14
tp496
a(S'Matthew K. O. Lee'
p497
I15
tp498
a(S'Mary F. Fernandez'
p499
I15
tp500
a(S'F. K. T. Wat'
p501
I14
tp502
ag174
ag98
ag374
a(S'Eija Kaasinen'
p503
I17
tp504
ag282
a(S'Massimo Paolucci'
p505
I12
tp506
ag154
ag392
a(S'Yuhua Li'
p507
I14
tp508
ag334
a(S'Hanan Samet'
p509
I15
tp510
ag402
a(S'H. V. Jagadish'
p511
I21
tp512
a(S'Joseph M. Hellerstein'
p513
I23
tp514
ag34
a(S'Philip S. Yu'
p515
I61
tp516
a(S'Luca Chittaro'
p517
I11
tp518
a(S'Eamonn J. Keogh'
p519
I28
tp520
a(S'Hongqiang Zhai'
p521
I15
tp522
a(S'Matteo Cesana'
p523
I16
tp524
a(S'Sameer Tilak'
p525
I15
tp526
ag114
a(S'Philippe Vieu'
p527
I17
tp528
a(S'Indranil R. Bardhan'
p529
I22
tp530
ag342
a(S'Paul P. Tallon'
p531
I41
tp532
ag278
a(S'George Karypis'
p533
I40
tp534
a(S'Arun Rai'
p535
I43
tp536
a(S'Minos N. Garofalakis'
p537
I24
tp538
a(S'Lucian Popa'
p539
I25
tp540
a(S'Raghu Ramakrishnan'
p541
I16
tp542
a(S'David Wai-Lok Cheung'
p543
I11
tp544
ag326
a(S'Randall Guensler'
p545
I16
tp546
a(S'Hui Xiong'
p547
I20
tp548
a(S'Baihua Zheng'
p549
I12
tp550
a(S'Michel Verleysen'
p551
I16
tp552
ag272
a(S'Paul Fearnhead'
p553
I15
tp554
a(S'Andrea Passarella'
p555
I12
tp556
ag380
a(S'Walid G. Aref'
p557
I12
tp558
a(S'Chatschik Bisdikian'
p559
I13
tp560
a(S'Mario Kolberg'
p561
I21
tp562
a(S'Lorin M. Hitt'
p563
I59
tp564
a(S'Tzi-cker Chiueh'
p565
I40
tp566
a(S'Zakaria Maamar'
p567
I16
tp568
a(S'Jai-Yeol Son'
p569
I12
tp570
a(S'Pierre Collerette'
p571
I32
tp572
a(S'George Cybenko'
p573
I12
tp574
a(S'G\xc3\xa9rard Govaert'
p575
I24
tp576
a(S'Baris Fidan'
p577
I21
tp578
a(S'Iris Vessey'
p579
I16
tp580
ag52
a(S'Schahram Dustdar'
p581
I25
tp582
a(S'Lei-da Chen'
p583
I28
tp584
a(S'Zahir Irani'
p585
I14
tp586
a(S'Brent Smith'
p587
I21
tp588
ag400
a(S"Pierpaolo D'Urso"
p589
I14
tp590
a(S'Edward Omiecinski'
p591
I16
tp592
ag10
ag134
a(S'Khalid S. Soliman'
p593
I11
tp594
a(S'Debabrata Dey'
p595
I12
tp596
ag122
a(S'Edmund T. Rolls'
p597
I13
tp598
a(S'Ingoo Han'
p599
I14
tp600
ag236
a(S'Xin Liu'
p601
I20
tp602
a(S'William Nagy'
p603
I26
tp604
a(S'Piotr Indyk'
p605
I12
tp606
a(S'Younggoo Kwon'
p607
I12
tp608
a(S'Yannis Papakonstantinou'
p609
I11
tp610
a(S'Detmar W. Straub'
p611
I44
tp612
ag216
a(S'Dimitris Papadias'
p613
I92
tp614
a(S'Adrian Perrig'
p615
I73
tp616
ag336
ag182
a(S'Jorge Urrutia'
p617
I26
tp618
a(S'Paul Dourish'
p619
I15
tp620
a(S'Bradley Malin'
p621
I14
tp622
a(S'Sabrina De Capitani di Vimercati'
p623
I27
tp624
a(S'Vassilios S. Verykios'
p625
I40
tp626
a(S'Jessica J. Fridrich'
p627
I13
tp628
a(S'Kshiti D. Joshi'
p629
I13
tp630
a(S'Young-ri Choi'
p631
I11
tp632
a(S'Juhani Iivari'
p633
I11
tp634
a(S'Jalmar M. F. Carrasco'
p635
I13
tp636
ag198
a(S'Naresh K. Malhotra'
p637
I21
tp638
a(S'Chi-Fu Huang'
p639
I20
tp640
a(S'Sean Xin Xu'
p641
I13
tp642
a(S'Kar Yan Tam'
p643
I36
tp644
a(S'Ahmed Helmy'
p645
I15
tp646
a(S'Bartek Kiepuszewski'
p647
I35
tp648
a(S'Gilberto A. Paula'
p649
I35
tp650
a(S'Jennifer Yick'
p651
I29
tp652
a(S'Ralph M. Stair'
p653
I13
tp654
a(S'Rudy Hirschheim'
p655
I18
tp656
a(S'John Shalf'
p657
I12
tp658
ag26
ag106
a(S'Zhi-Hua Zhou'
p659
I15
tp660
a(S'Theophanis Stratopoulos'
p661
I23
tp662
ag208
a(S'Ramesh K. Sitaraman'
p663
I13
tp664
a(S'Chung-Yau Chin'
p665
I11
tp666
a(S'Chunming Qiao'
p667
I13
tp668
a(S'Chunyuan Liao'
p669
I15
tp670
a(S'Suzanne Rivard'
p671
I32
tp672
a(S'Amr El Abbadi'
p673
I14
tp674
a(S'Matt E. Thatcher'
p675
I17
tp676
a(S'Flip Korn'
p677
I13
tp678
a(S'Quan Z. Sheng'
p679
I29
tp680
ag58
ag100
a(S'Murat Kantarcioglu'
p681
I24
tp682
a(S'Dickson K. W. Chiu'
p683
I22
tp684
a(S'Sourav S. Bhowmick'
p685
I17
tp686
a(S'Evan H. Magill'
p687
I21
tp688
a(S'Christian B\xc3\xb6hm'
p689
I14
tp690
a(S'Bj\xc3\xb6rn Scheuermann'
p691
I16
tp692
ag340
a(S'Antti Oulasvirta'
p693
I12
tp694
a(S'Delfin Y. Montuno'
p695
I26
tp696
ag232
a(S'Soon Ang'
p697
I23
tp698
a(S'Jennifer Widom'
p699
I15
tp700
a(S'Beverly K. Kahn'
p701
I17
tp702
a(S'Craig W. Thompson'
p703
I16
tp704
a(S'Jae-Nam Lee'
p705
I44
tp706
a(S'Biswanath Mukherjee'
p707
I29
tp708
a(S'Maria Luisa Sapino'
p709
I20
tp710
a(S'Pang-Ning Tan'
p711
I14
tp712
a(S'Bhaskar Krishnamachari'
p713
I14
tp714
a(S'Victor Raskin'
p715
I12
tp716
a(S'Kenneth L. Kraemer'
p717
I75
tp718
asS'Mengjie Zhang'
p719
(lp720
(S'Gregory D. Abowd'
p721
I11
tp722
a(S'Krys Kochut'
p723
I14
tp724
a(S'Jessica Staddon'
p725
I18
tp726
a(S'Sushil Jajodia'
p727
I42
tp728
a(S'Miki Nakagawa'
p729
I15
tp730
a(S'Ravi Bapna'
p731
I24
tp732
a(S'Douglas Edward Turner'
p733
I28
tp734
ag672
ag434
ag676
ag550
a(S'Antonio Capone'
p735
I20
tp736
a(S'Jonathan W. Palmer'
p737
I37
tp738
ag450
ag678
a(S'Clyde W. Holsapple'
p739
I14
tp740
a(S'Murat Demirbas'
p741
I19
tp742
ag352
ag716
a(S'Friedemann Mattern'
p743
I13
tp744
a(S'Jeffrey Xu Yu'
p745
I22
tp746
a(S'Marie-Claude Boudreau'
p747
I21
tp748
ag374
a(S'Krithi Ramamritham'
p749
I12
tp750
a(S'Arvind Malhotra'
p751
I41
tp752
a(S'Paolo Santi'
p753
I12
tp754
a(S'Andrew H. Gold'
p755
I23
tp756
a(S'Raymond T. Ng'
p757
I16
tp758
ag42
ag440
ag592
a(S'Jeremy York'
p759
I21
tp760
ag624
ag106
a(S'Arthur H. M. ter Hofstede'
p761
I42
tp762
ag58
a(S'Zhichen Xu'
p763
I12
tp764
ag492
ag446
ag48
a(S'Geoffrey J. McLachlan'
p765
I25
tp766
ag536
a(S'Genevi\xc3\xa8ve Bassellier'
p767
I19
tp768
a(S'Venkataraman Ramesh'
p769
I24
tp770
ag224
a(S'Alexander Keller'
p771
I12
tp772
a(S'Ted Herman'
p773
I13
tp774
a(S'Maryam Alavi'
p775
I21
tp776
ag52
a(S'Anthony Hunter'
p777
I24
tp778
ag564
a(S'Henry Brighton'
p779
I12
tp780
ag204
ag208
ag370
a(S'Gordon E. McCray'
p781
I12
tp782
a(S'Weilian Su'
p783
I189
tp784
ag22
a(S'Fabio Casati'
p785
I21
tp786
a(S'Yi-Shun Wang'
p787
I19
tp788
a(S'Anish Arora'
p789
I24
tp790
ag124
a(S'Hans van der Heijden'
p791
I18
tp792
a(S'Mohamed F. Younis'
p793
I21
tp794
ag108
a(S'Timothy R. Kayworth'
p795
I16
tp796
a(S'Sze-Yao Ni'
p797
I22
tp798
a(S'InduShobha N. Chengalur-Smith'
p799
I12
tp800
a(S'Mariano J. Valderrama'
p801
I11
tp802
a(S'Muffy Calder'
p803
I16
tp804
a(S'Heinz K. Klein'
p805
I13
tp806
ag622
ag584
a(S'Tao Gu'
p807
I29
tp808
a(S'Yuguang Fang'
p809
I40
tp810
a(S'Sangjae Lee'
p811
I21
tp812
a(S'Matt Welsh'
p813
I30
tp814
ag610
a(S'Luigi Pontieri'
p815
I18
tp816
a(S'Robert Szewczyk'
p817
I34
tp818
a(S'Eric K. Clemons'
p819
I67
tp820
a(S'Michael Beigl'
p821
I20
tp822
ag320
a(S'Sid L. Huff'
p823
I13
tp824
ag524
a(S'B. S. Manjunath'
p825
I11
tp826
a(S'Darren J. Wilkinson'
p827
I14
tp828
ag494
a(S'F\xc3\xbcsun \xc3\x96zg\xc3\xbcner'
p829
I12
tp830
a(S'Wei Hong'
p831
I22
tp832
ag146
a(S'David N. C. Tse'
p833
I17
tp834
a(S'Barbara L. Marcolin'
p835
I58
tp836
a(S'Tony K. Mak'
p837
I15
tp838
a(S'Veda C. Storey'
p839
I26
tp840
ag700
ag4
ag314
a(S'Daniel Ashbrook'
p841
I15
tp842
a(S'Edith Cohen'
p843
I16
tp844
a(S'Marvin McNett'
p845
I14
tp846
a(S'Jim Kurose'
p847
I14
tp848
a(S'Kurt VanLehn'
p849
I17
tp850
a(S'Elliot Bendoly'
p851
I12
tp852
a(S'Peter R. Newsted'
p853
I53
tp854
ag456
a(S'Xavier P\xc3\xa9rez Costa'
p855
I22
tp856
a(S'Dolf Gr\xc3\xbcnbauer'
p857
I11
tp858
a(S'Roman Slowinski'
p859
I17
tp860
ag614
ag164
a(S'Rakesh Agrawal'
p861
I16
tp862
a(S'Shobha Ganapathy'
p863
I20
tp864
a(S'Rathindra Sarathy'
p865
I17
tp866
ag138
a(S'Ian F. Akyildiz'
p867
I358
tp868
a(S'Charles J. Petrie'
p869
I11
tp870
a(S'Reyes Gonzalez'
p871
I12
tp872
ag360
a(S'Janet L. Wiener'
p873
I37
tp874
ag606
ag202
ag182
a(S'Richard Bean'
p875
I23
tp876
ag406
ag70
a(S'Judy Chuan-Chuan Lin'
p877
I12
tp878
a(S'Albert S. Dexter'
p879
I30
tp880
ag392
a(S'Fosca Giannotti'
p881
I12
tp882
a(S'Weilin Wang'
p883
I40
tp884
a(S'Chris Clifton'
p885
I40
tp886
a(S'Chalermsak Lertwongsatien'
p887
I24
tp888
a(S'Ling Liu'
p889
I18
tp890
a(S'David Peel'
p891
I16
tp892
ag344
a(S'Rania Khalaf'
p893
I29
tp894
ag638
ag44
a(S'Jan Mendling'
p895
I15
tp896
a(S'Cynthia K. Riemenschneider'
p897
I15
tp898
a(S'Matei Ripeanu'
p899
I29
tp900
a(S'Stephanie Watts Sussman'
p901
I13
tp902
a(S'Nathalie Japkowicz'
p903
I12
tp904
a(S'Albert L. Lederer'
p905
I22
tp906
a(S'Michalis Faloutsos'
p907
I15
tp908
a(S'George Kollios'
p909
I11
tp910
a(S'Daniel H. Greene'
p911
I18
tp912
ag410
ag664
a(S'Arantza Illarramendi'
p913
I12
tp914
a(S'Margaret H. Dunham'
p915
I11
tp916
ag294
ag94
a(S'Artur Andrzejak'
p917
I13
tp918
a(S'Mervyn J. Silvapulle'
p919
I11
tp920
a(S'Panganamala R. Kumar'
p921
I25
tp922
ag330
a(S'Michael N. Huhns'
p923
I31
tp924
ag454
a(S'Juan Llopis'
p925
I12
tp926
ag30
ag418
a(S'Jeffrey D. Ullman'
p927
I13
tp928
a(S'Toni M. Somers'
p929
I29
tp930
a(S'Yolande E. Chan'
p931
I44
tp932
ag538
ag390
ag168
a(S'Andreas Barthels'
p933
I13
tp934
a(S'Deepak Ganesan'
p935
I39
tp936
a(S'Bernhard Seeger'
p937
I22
tp938
a(S'Divesh Srivastava'
p939
I15
tp940
a(S'Siwei Lyu'
p941
I15
tp942
a(S'Kai H. Lim'
p943
I13
tp944
a(S'Gustavo Alonso'
p945
I19
tp946
ag438
a(S'Alberto O. Mendelzon'
p947
I13
tp948
a(S'Songwu Lu'
p949
I27
tp950
ag460
a(S'Nitin H. Vaidya'
p951
I66
tp952
ag670
a(S'Jean-Pierre Hubaux'
p953
I33
tp954
ag354
ag214
ag112
a(S'Nigel Davies'
p955
I14
tp956
a(S'Youngjin Yoo'
p957
I15
tp958
a(S'Christos Faloutsos'
p959
I43
tp960
ag276
a(S'Joel H. Saltz'
p961
I24
tp962
ag40
a(S'Krishnamurty Muralidhar'
p963
I17
tp964
a(S'Vipul Kashyap'
p965
I12
tp966
a(S'Anindya Ghose'
p967
I13
tp968
a(S'Glenn J. Browne'
p969
I19
tp970
ag148
a(S'Koustuv Dasgupta'
p971
I14
tp972
a(S'Russell L. Purvis'
p973
I12
tp974
ag254
asS'Daniel Camps-Mur'
p975
(lp976
g56
ag716
ag122
a(S'Sergio Verd\xc3\xba'
p977
I16
tp978
a(S'Hector Garcia-Molina'
p979
I37
tp980
a(S'Young-Bae Ko'
p981
I22
tp982
ag510
a(S'\xc3\x96zg\xc3\xbcr B. Akan'
p983
I21
tp984
ag90
ag410
a(S'Wilfried Seidel'
p985
I18
tp986
ag892
ag686
ag378
a(S'Albrecht Schmidt'
p987
I18
tp988
ag900
a(S'Jinwoo Kim'
p989
I14
tp990
a(S'Jay Parikh'
p991
I11
tp992
a(S'Victor Shnayder'
p993
I16
tp994
ag744
a(S'Robert W. Zmud'
p995
I14
tp996
ag180
ag292
a(S'Waiman Cheung'
p997
I19
tp998
ag758
a(S'Mourad Ouzzani'
p999
I15
tp1000
a(S'Kalle Lyytinen'
p1001
I21
tp1002
a(S'Maurizio Vincini'
p1003
I21
tp1004
ag648
a(S'Amit Kumar Saha'
p1005
I20
tp1006
a(S'Sandip Bapat'
p1007
I11
tp1008
a(S'Anthony D. Joseph'
p1009
I13
tp1010
ag252
a(S'Mike Perkowitz'
p1011
I22
tp1012
ag194
a(S'Roman Schmidt'
p1013
I13
tp1014
ag478
ag382
a(S'Hongjun Lu'
p1015
I20
tp1016
ag172
ag610
a(S'Mun Y. Yi'
p1017
I29
tp1018
ag46
ag914
ag406
ag742
a(S'Guohong Cao'
p1019
I23
tp1020
a(S'Mohammed Javeed Zaki'
p1021
I57
tp1022
a(S'Brandon Wiley'
p1023
I12
tp1024
a(S'Kanghyun Yoon'
p1025
I27
tp1026
ag372
a(S'Erricos John Kontoghiorghes'
p1027
I20
tp1028
a(S'Stefano Ceri'
p1029
I20
tp1030
ag738
a(S'Judy E. Scott'
p1031
I16
tp1032
a(S'Michael J. Gallivan'
p1033
I13
tp1034
ag8
a(S'Karen Henricksen'
p1035
I14
tp1036
ag308
ag638
ag198
a(S'Fred D. Davis'
p1037
I18
tp1038
ag780
a(S'Robert G. Fichman'
p1039
I17
tp1040
ag544
a(S'Richard Baskerville'
p1041
I28
tp1042
a(S'Bongki Moon'
p1043
I29
tp1044
a(S'Boudewijn F. van Dongen'
p1045
I33
tp1046
a(S'H. K. T. Ng'
p1047
I15
tp1048
ag592
a(S'Nathan Eagle'
p1049
I32
tp1050
a(S'Shaila M. Miranda'
p1051
I16
tp1052
ag928
ag398
ag594
ag536
ag480
a(S'D. Sandy Staples'
p1053
I17
tp1054
a(S'Anders Lindgren'
p1055
I36
tp1056
a(S'Xiaolan Zhang'
p1057
I13
tp1058
ag700
a(S'Kyung-Kwon Hong'
p1059
I21
tp1060
a(S'Richard T. Snodgrass'
p1061
I20
tp1062
ag540
ag452
ag274
a(S'Umeshwar Dayal'
p1063
I25
tp1064
ag868
a(S'Arbee L. P. Chen'
p1065
I18
tp1066
ag432
a(S'Michael Tow Cheung'
p1067
I19
tp1068
a(S'Joseph A. Konstan'
p1069
I22
tp1070
a(S'Alistair P. Barros'
p1071
I35
tp1072
ag682
a(S'Mar\xc3\xada Angeles Gil'
p1073
I13
tp1074
ag558
ag330
a(S'Rajiv D. Banker'
p1075
I19
tp1076
ag114
a(S'Gail A. Carpenter'
p1077
I13
tp1078
ag426
ag910
ag392
a(S'Adriana Iamnitchi'
p1079
I23
tp1080
ag608
ag138
a(S'Guido Schimm'
p1081
I24
tp1082
a(S'Allen S. Lee'
p1083
I25
tp1084
ag176
ag362
ag894
a(S'Jie Wu'
p1085
I11
tp1086
ag32
a(S'Sashidhar P. Reddi'
p1087
I17
tp1088
ag140
a(S'Ronald Fagin'
p1089
I29
tp1090
a(S'Dennis F. Galletta'
p1091
I18
tp1092
ag552
a(S'Rajiv Kohli'
p1093
I79
tp1094
ag944
a(S'Dimitrios Gunopulos'
p1095
I35
tp1096
ag526
a(S'Jack T. Marchewka'
p1097
I12
tp1098
ag872
ag580
a(S'Rudolf Freund'
p1099
I18
tp1100
ag774
a(S'Peng-Jun Wan'
p1101
I15
tp1102
a(S'Edoardo Amaldi'
p1103
I13
tp1104
a(S'Andrew B. Whinston'
p1105
I32
tp1106
ag386
a(S'Jan Chomicki'
p1107
I14
tp1108
ag750
a(S'R. Srikant'
p1109
I12
tp1110
ag496
a(S'Kannan Ramchandran'
p1111
I12
tp1112
ag204
ag12
a(S'Qiang Ni'
p1113
I17
tp1114
a(S'Heleno Bolfarine'
p1115
I11
tp1116
ag924
a(S'Anupam Joshi'
p1117
I17
tp1118
a(S'Maarten van Steen'
p1119
I12
tp1120
ag422
a(S'Wenfei Fan'
p1121
I13
tp1122
ag570
a(S'Sumit Sarkar'
p1123
I21
tp1124
ag182
a(S'Mohamed G. Gouda'
p1125
I14
tp1126
ag240
ag128
ag500
ag908
ag344
ag814
ag548
ag68
a(S'Thomas Brendan Murphy'
p1127
I12
tp1128
ag124
ag268
a(S'Jayendra S. Parikh'
p1129
I14
tp1130
ag708
ag208
a(S'Prashant C. Palvia'
p1131
I14
tp1132
ag270
ag896
a(S'Ming Fan'
p1133
I32
tp1134
ag502
a(S'Qiming Chen'
p1135
I21
tp1136
a(S'Elke A. Rundensteiner'
p1137
I14
tp1138
a(S'Jahangir Karimi'
p1139
I23
tp1140
ag958
ag862
a(S'Mehmet C. Vuran'
p1141
I68
tp1142
a(S'Michel Ouellette'
p1143
I26
tp1144
a(S'Barrie R. Nault'
p1145
I21
tp1146
a(S'Bettina Kemme'
p1147
I12
tp1148
a(S'Charles J. Kacmar'
p1149
I62
tp1150
a(S'Elisa Bertino'
p1151
I64
tp1152
ag572
a(S'James F. Kurose'
p1153
I16
tp1154
a(S'Avri Doria'
p1155
I36
tp1156
ag242
ag644
a(S'Xindong Wu'
p1157
I21
tp1158
a(S'Barbara H. Wixom'
p1159
I31
tp1160
ag636
ag374
ag96
ag874
ag730
ag726
ag498
ag694
ag670
a(S'James Aweya'
p1161
I28
tp1162
a(S'Silvia Miksch'
p1163
I12
tp1164
ag120
ag772
a(S'Xiaofeng Liao'
p1165
I12
tp1166
asS'Florentin Ipate'
p1167
(lp1168
g410
a(S'Jyh-Cheng Chen'
p1169
I37
tp1170
a(S'Maxim Raya'
p1171
I14
tp1172
ag664
a(S'Ajay Jasra'
p1173
I13
tp1174
a(S'Kyriakos Mouratidis'
p1175
I25
tp1176
ag236
a(S'Ding-Zhu Du'
p1177
I16
tp1178
ag442
ag506
a(S'Tarek N. Saadawi'
p1179
I12
tp1180
ag782
a(S'Andreas Westfeld'
p1181
I37
tp1182
ag1034
ag68
ag776
ag478
a(S'Paul Jen-Hwa Hu'
p1183
I12
tp1184
a(S'David J. Malan'
p1185
I16
tp1186
ag916
ag786
a(S'Adel M. Aladwani'
p1187
I12
tp1188
a(S'Piero Fraternali'
p1189
I17
tp1190
ag800
ag8
a(S'Christine Koh'
p1191
I20
tp1192
a(S'Yu-Chee Tseng'
p1193
I53
tp1194
ag870
ag872
a(S'Jianliang Xu'
p1195
I28
tp1196
ag922
ag768
a(S'Elizabeth M. Belding-Royer'
p1197
I18
tp1198
a(S'Peter Dadam'
p1199
I24
tp1200
a(S'Rajeev Rastogi'
p1201
I20
tp1202
ag464
ag1082
ag586
a(S'Parag Namjoshi'
p1203
I13
tp1204
ag524
a(S'Thierry Turletti'
p1205
I14
tp1206
ag958
ag1090
a(S'Val\xc3\xa9rie Issarny'
p1207
I18
tp1208
a(S'Stefano Lonardi'
p1209
I12
tp1210
a(S'Antony Clavel'
p1211
I16
tp1212
ag432
ag430
a(S'Wang-Chien Lee'
p1213
I34
tp1214
ag492
ag960
ag520
a(S'Anne-Marie Kermarrec'
p1215
I13
tp1216
ag584
a(S'Eitan Altman'
p1217
I27
tp1218
ag220
ag294
a(S'Federico Malucelli'
p1219
I12
tp1220
ag650
ag1074
a(S'Gary Zhong'
p1221
I14
tp1222
ag1006
a(S'Paul W. P. J. Grefen'
p1223
I12
tp1224
ag308
ag668
ag630
ag624
ag528
a(S'Taghi M. Khoshgoftaar'
p1225
I15
tp1226
ag262
ag856
ag158
ag1056
a(S'Manfred Hauswirth'
p1227
I16
tp1228
ag234
a(S'Feng-Chang Xie'
p1229
I12
tp1230
a(S'Eylem Ekici'
p1231
I18
tp1232
a(S'Youssef Iraqi'
p1233
I12
tp1234
a(S'Albert H. Segars'
p1235
I37
tp1236
ag672
ag150
ag436
ag28
a(S'Edward Y. Chang'
p1237
I18
tp1238
ag44
ag516
ag532
a(S'Byounggu Choi'
p1239
I27
tp1240
ag744
ag974
a(S'Lixia Zhang'
p1241
I32
tp1242
a(S'Charu C. Aggarwal'
p1243
I23
tp1244
ag162
ag832
ag1070
ag966
a(S'Arvind Patel'
p1245
I17
tp1246
ag1054
ag1130
a(S'Konstantinos Kalpakis'
p1247
I13
tp1248
a(S'Geoffrey M. Voelker'
p1249
I15
tp1250
a(S'Raymie Stata'
p1251
I34
tp1252
a(S'Mihaela Cardei'
p1253
I13
tp1254
ag604
ag172
ag882
ag426
a(S'Izak Benbasat'
p1255
I111
tp1256
a(S'Ji-Won Moon'
p1257
I33
tp1258
ag286
a(S'Pat Morin'
p1259
I26
tp1260
ag1160
ag1064
ag38
ag146
ag1096
a(S'Kay R\xc3\xb6mer'
p1261
I13
tp1262
a(S'Juan Trujillo'
p1263
I23
tp1264
ag252
ag920
ag662
ag860
ag722
a(S'Vijay Gurbaxani'
p1265
I30
tp1266
a(S'Heiko Ludwig'
p1267
I13
tp1268
a(S'Philippe Golle'
p1269
I18
tp1270
ag504
a(S'Andrew Burton-Jones'
p1271
I19
tp1272
ag226
a(S'Linda Wallace'
p1273
I12
tp1274
a(S'David A. Stephens'
p1275
I13
tp1276
a(S'Cristian Gatu'
p1277
I12
tp1278
ag258
a(S'Stefan Decker'
p1279
I29
tp1280
ag454
a(S'Donald J. Patterson'
p1281
I22
tp1282
a(S'Benjie Chen'
p1283
I19
tp1284
a(S'Mayur Datar'
p1285
I17
tp1286
a(S'Mainak Chatterjee'
p1287
I24
tp1288
ag1126
ag176
ag380
a(S'Hao Wu'
p1289
I17
tp1290
ag828
ag818
ag762
ag400
ag70
a(S'Mahmoud Naghshineh'
p1291
I13
tp1292
a(S'Holger F\xc3\xbc\xc3\x9fler'
p1293
I17
tp1294
a(S'Leonid Oliker'
p1295
I13
tp1296
a(S'Jack Huang'
p1297
I12
tp1298
a(S'Ana M. Aguilera'
p1299
I11
tp1300
ag354
ag180
ag280
ag928
ag558
ag122
a(S'Dieter Fensel'
p1301
I25
tp1302
ag542
a(S'Vijayan Sugumaran'
p1303
I13
tp1304
ag692
a(S'Christian Hempelmann'
p1305
I12
tp1306
a(S'H\xc3\xa5vard Rue'
p1307
I13
tp1308
ag134
ag1000
ag698
a(S'Aidong Zhang'
p1309
I12
tp1310
ag1112
ag950
ag1102
ag518
a(S'Deborah Compeau'
p1311
I12
tp1312
ag312
ag982
ag1002
a(S'Yannis Manolopoulos'
p1313
I22
tp1314
ag388
ag100
a(S'Michel C. A. Klein'
p1315
I26
tp1316
ag580
ag632
a(S'Jun Wang'
p1317
I30
tp1318
a(S'Jean-Fran\xc3\xa7ois Boulicaut'
p1319
I26
tp1320
ag826
ag562
a(S'Gurpreet Dhillon'
p1321
I23
tp1322
a(S'Andrew T. Campbell'
p1323
I26
tp1324
a(S'Shin-Yuan Hung'
p1325
I18
tp1326
ag76
ag1146
a(S'Kevin E. Dow'
p1327
I18
tp1328
ag588
ag640
ag844
a(S'Steve Vinoski'
p1329
I41
tp1330
a(S'Dan Suciu'
p1331
I22
tp1332
ag824
a(S'Christopher C. Holmes'
p1333
I13
tp1334
asS'Daniele Riboni'
p1335
(lp1336
(S'Young-Gul Kim'
p1337
I55
tp1338
a(S'Zidong Wang'
p1339
I11
tp1340
a(S'Hari Balakrishnan'
p1341
I34
tp1342
ag982
a(S'Gavin Holland'
p1343
I17
tp1344
ag308
a(S'Marta Indulska'
p1345
I15
tp1346
ag1048
a(S'Katrien van Driessen'
p1347
I12
tp1348
a(S'Johannes Gehrke'
p1349
I32
tp1350
ag632
ag4
ag1076
ag620
ag1256
ag388
ag592
ag716
ag1096
ag892
ag16
a(S'Francisco Curbera'
p1351
I30
tp1352
ag142
a(S'Aldo Bongio'
p1353
I14
tp1354
ag870
ag606
ag1006
ag682
a(S'Nirup M. Menon'
p1355
I12
tp1356
ag946
ag294
ag1240
ag602
ag360
ag660
ag292
a(S'Yufei Tao'
p1357
I66
tp1358
a(S'Sneha Kumar Kasera'
p1359
I12
tp1360
ag1054
ag354
a(S'Mani R. Subramani'
p1361
I35
tp1362
a(S'Shu-Ching Wang'
p1363
I14
tp1364
ag222
a(S'Edwin K. P. Chong'
p1365
I26
tp1366
ag52
a(S'Jan M. Rabaey'
p1367
I12
tp1368
ag1202
ag700
ag426
ag938
a(S'Mark Handley'
p1369
I14
tp1370
a(S'Damla Turgut'
p1371
I25
tp1372
ag30
ag24
a(S'Konrad Lorincz'
p1373
I29
tp1374
ag102
a(S'Mikhail Nesterenko'
p1375
I17
tp1376
a(S'John S. Heidemann'
p1377
I14
tp1378
a(S'Clement T. Yu'
p1379
I13
tp1380
ag924
ag428
ag1188
a(S'Sunil Prabhakar'
p1381
I13
tp1382
ag1028
a(S'Hillol Kargupta'
p1383
I18
tp1384
ag78
ag1308
ag1118
ag842
ag396
a(S'Srinivasan Raghunathan'
p1385
I18
tp1386
a(S'David Taniar'
p1387
I12
tp1388
a(S'Stefano Basagni'
p1389
I11
tp1390
ag20
ag1156
ag626
ag1200
a(S'Sudha Ram'
p1391
I24
tp1392
a(S'Roy Want'
p1393
I23
tp1394
ag1140
ag1148
ag886
a(S'Antonella Guzzo'
p1395
I13
tp1396
ag980
ag384
ag900
a(S'Laurie J. Kirsch'
p1397
I22
tp1398
ag112
ag108
ag584
ag1266
ag98
a(S'Stephen Grossberg'
p1399
I40
tp1400
ag1124
ag70
ag1160
a(S'Bruce Dehning'
p1401
I26
tp1402
ag1204
ag230
a(S'Gholamreza Torkzadeh'
p1403
I27
tp1404
ag1178
ag562
ag1234
a(S'Jean Talbot'
p1405
I19
tp1406
a(S'Yuh-Shyan Chen'
p1407
I22
tp1408
a(S'Kun-Lung Wu'
p1409
I18
tp1410
ag188
ag822
ag920
ag266
ag752
ag622
a(S'Yannis Theodoridis'
p1411
I14
tp1412
a(S'Hong Cheng'
p1413
I20
tp1414
ag862
ag1166
ag910
ag664
a(S'Artur Bykowski'
p1415
I18
tp1416
a(S'Ivan Stojmenovic'
p1417
I36
tp1418
ag984
ag1274
a(S'Kevin Zhu'
p1419
I66
tp1420
a(S'Kian-Lee Tan'
p1421
I30
tp1422
ag882
a(S'Michelli Barros'
p1423
I12
tp1424
a(S'Patrick Y. K. Chau'
p1425
I14
tp1426
ag36
a(S'Sridhar Rajagopalan'
p1427
I34
tp1428
ag120
ag570
ag686
ag270
a(S'Xiaoge Zhou'
p1429
I18
tp1430
a(S'Jan Stallaert'
p1431
I16
tp1432
a(S'Eric T. G. Wang'
p1433
I14
tp1434
a(S'Sylvia Fr\xc3\xbchwirth-Schnatter'
p1435
I17
tp1436
ag868
a(S'Shen Furao'
p1437
I12
tp1438
ag824
ag1058
a(S'Cathy W. S. Chen'
p1439
I13
tp1440
ag1158
ag1180
ag62
ag1042
ag1270
a(S'Suresh Singh'
p1441
I12
tp1442
ag818
a(S'Mikhail J. Atallah'
p1443
I16
tp1444
a(S'Saad Haj Bakry'
p1445
I27
tp1446
a(S'Alex Pentland'
p1447
I33
tp1448
ag278
a(S'Laks V. S. Lakshmanan'
p1449
I17
tp1450
ag264
ag244
ag494
a(S'Ahmed K. Elmagarmid'
p1451
I58
tp1452
ag780
a(S'Omar El Sawy'
p1453
I18
tp1454
ag704
ag1078
ag1088
ag380
ag210
ag1332
a(S'Michael Rosemann'
p1455
I18
tp1456
ag558
ag728
ag1212
ag1070
a(S'Kaushik R. Chowdhury'
p1457
I37
tp1458
ag312
ag464
ag908
a(S'Sajal K. Das'
p1459
I66
tp1460
ag168
ag176
a(S'Behzad Mortazavi-Asl'
p1461
I21
tp1462
a(S'M. Andrea Rodr\xc3\xadguez'
p1463
I12
tp1464
a(S'Pei-Yu Sharon Chen'
p1465
I16
tp1466
a(S'Y\xc3\xbccel Saygin'
p1467
I28
tp1468
ag362
ag164
ag874
a(S'Ralf Hartmut G\xc3\xbcting'
p1469
I18
tp1470
ag1182
a(S'Saurabh Sinha'
p1471
I13
tp1472
ag116
ag180
ag954
a(S'Scott G. Miller'
p1473
I12
tp1474
a(S'Hsi-Peng Lu'
p1475
I13
tp1476
ag816
ag410
a(S'Jun Zhang'
p1477
I23
tp1478
ag746
ag232
a(S'Anthony Vance'
p1479
I12
tp1480
ag1192
asS'H\xc3\xa5vard Rue'
p1481
(lp1482
g1026
ag570
ag1434
ag620
a(S'Wei-Ying Ma'
p1483
I14
tp1484
a(S'Nina Mishra'
p1485
I13
tp1486
ag1250
ag118
ag26
ag198
a(S'Carol V. Brown'
p1487
I13
tp1488
ag740
ag562
a(S'Randy H. Katz'
p1489
I12
tp1490
ag1438
a(S'Michael S. Lew'
p1491
I12
tp1492
ag760
ag1326
ag924
ag476
ag270
a(S'Paul Over'
p1493
I17
tp1494
ag86
ag842
ag650
a(S'Christine E. Jones'
p1495
I31
tp1496
ag800
ag180
ag1260
ag516
a(S'Noam Tractinsky'
p1497
I45
tp1498
a(S'Marlon Dumas'
p1499
I31
tp1500
a(S'Brian E. Brewington'
p1501
I12
tp1502
ag272
ag310
ag856
ag536
ag480
ag1290
a(S'Meichun Hsu'
p1503
I24
tp1504
a(S'Laura Maruster'
p1505
I51
tp1506
ag888
ag50
ag22
ag1386
ag1052
a(S'Wanda J. Orlikowski'
p1507
I12
tp1508
ag1316
ag1398
ag1314
a(S'V. Sambamurthy'
p1509
I31
tp1510
ag200
ag154
ag944
a(S'Ramesh Govindan'
p1511
I48
tp1512
ag496
a(S'Ryan Sougstad'
p1513
I13
tp1514
a(S'Raghupathy Sivakumar'
p1515
I13
tp1516
ag624
ag156
ag898
ag632
a(S'Dorothy E. Leidner'
p1517
I24
tp1518
ag214
ag494
ag1098
ag978
ag68
ag1382
ag452
a(S'Dipak Ghosal'
p1519
I29
tp1520
a(S'S. Muthukrishnan'
p1521
I13
tp1522
ag1130
ag1258
ag1208
a(S'Ruth Brand'
p1523
I11
tp1524
ag260
a(S'A. J. M. M. Weijters'
p1525
I35
tp1526
ag902
ag908
ag304
a(S'Wil M. P. van der Aalst'
p1527
I161
tp1528
ag484
ag18
ag556
ag682
ag62
ag296
ag202
ag942
a(S'Ana Colubi'
p1529
I11
tp1530
ag974
ag950
a(S'Giuseppe Manco'
p1531
I15
tp1532
ag1012
a(S'Steven Tuecke'
p1533
I12
tp1534
a(S'Michael H. B\xc3\xb6hlen'
p1535
I28
tp1536
a(S'Ton Weijters'
p1537
I23
tp1538
ag756
a(S'Christophe Rigotti'
p1539
I19
tp1540
a(S'Sanjiva Weerawarana'
p1541
I26
tp1542
ag876
ag862
ag920
ag1066
a(S'Wenye Wang'
p1543
I12
tp1544
ag1018
ag370
a(S'Kee Chaing Chua'
p1545
I30
tp1546
a(S'Wen-Chih Peng'
p1547
I13
tp1548
ag706
a(S'Prosenjit Bose'
p1549
I26
tp1550
ag604
ag364
ag718
ag174
ag1464
a(S'Gerhard Kramer'
p1551
I16
tp1552
ag956
ag588
ag434
a(S'Eric W. T. Ngai'
p1553
I15
tp1554
ag734
a(S'Henri Barki'
p1555
I16
tp1556
ag376
ag552
ag758
a(S'Bo Li'
p1557
I24
tp1558
ag886
a(S'Matthai Philipose'
p1559
I25
tp1560
ag996
ag714
ag818
a(S'Yang Xiao'
p1561
I19
tp1562
ag540
a(S'Karma Sherif'
p1563
I13
tp1564
ag450
ag78
ag1324
ag814
ag466
ag402
a(S'Dieter Fox'
p1565
I22
tp1566
ag1088
a(S'Wee Keong Ng'
p1567
I15
tp1568
ag1428
ag150
ag564
ag584
ag1414
ag332
ag1206
a(S'Panagiotis G. Ipeirotis'
p1569
I14
tp1570
ag816
ag1368
ag146
ag264
a(S'Michele Zorzi'
p1571
I12
tp1572
a(S'Debasis Kundu'
p1573
I26
tp1574
ag1418
a(S'David A. Harrison'
p1575
I14
tp1576
ag1106
a(S'Sarma R. Nidumolu'
p1577
I17
tp1578
ag206
a(S'Karl Aberer'
p1579
I20
tp1580
ag660
ag1148
ag778
ag1346
a(S'Xiaofei He'
p1581
I12
tp1582
a(S'Roy H. Campbell'
p1583
I13
tp1584
ag378
ag1412
ag148
ag626
ag1384
ag662
ag1246
ag488
ag1070
ag674
ag284
ag388
a(S'Eric Walden'
p1585
I18
tp1586
a(S'Sarv Devaraj'
p1587
I84
tp1588
ag890
ag436
ag628
ag1006
ag1212
a(S'George M. Marakas'
p1589
I17
tp1590
ag80
ag868
ag106
ag808
ag312
a(S'Xingquan Zhu'
p1591
I15
tp1592
ag1380
a(S'G\xc3\xb6khan Korkmaz'
p1593
I12
tp1594
ag440
asS'Luigi Iannone'
p1595
(lp1596
g782
ag1334
ag1116
ag712
ag344
ag296
ag736
ag1240
ag1166
ag398
a(S'Fran\xc3\xa7ois Bodart'
p1597
I17
tp1598
ag804
ag64
ag820
a(S'Tristan Henderson'
p1599
I14
tp1600
ag1214
ag768
a(S'Hung Keng Pung'
p1601
I30
tp1602
ag1398
ag1540
ag240
ag1538
ag904
ag250
a(S'Ramnath K. Chellappa'
p1603
I13
tp1604
a(S'Fabrizio Angiulli'
p1605
I12
tp1606
ag688
ag1302
ag1176
ag488
ag54
ag478
ag1278
ag1036
ag92
ag1576
ag62
ag1002
ag926
a(S'Anol Bhattacherjee'
p1607
I33
tp1608
ag710
ag22
ag1150
ag522
a(S'Theodore W. Hong'
p1609
I12
tp1610
a(S'C. Ranganathan'
p1611
I35
tp1612
ag442
ag934
ag532
ag520
ag1524
ag662
ag1026
ag962
a(S'C. Siva Ram Murthy'
p1613
I20
tp1614
ag334
ag1146
ag238
a(S'D. Harrison McKnight'
p1615
I69
tp1616
ag1210
ag1330
ag1028
a(S'Qiang Yang'
p1617
I21
tp1618
ag300
ag564
ag604
ag1030
ag308
ag1156
ag108
a(S'Ulrike von Luxburg'
p1619
I13
tp1620
ag494
ag1096
ag1352
a(S'Richard Gerlach'
p1621
I14
tp1622
ag800
ag78
ag1274
ag582
ag274
ag1392
a(S'Diane M. Strong'
p1623
I23
tp1624
ag686
a(S'Katia Obraczka'
p1625
I13
tp1626
ag1396
ag634
ag158
ag1350
ag1244
a(S'Xueyan Tang'
p1627
I13
tp1628
ag1420
ag916
ag544
ag990
ag490
ag682
ag674
ag470
ag722
ag196
ag146
ag182
a(S'Francesc Seb\xc3\xa9'
p1629
I20
tp1630
ag394
ag1130
ag1048
ag1412
ag280
ag1560
a(S'John Riedl'
p1631
I21
tp1632
ag472
ag1500
ag244
a(S'Daniel A. Menasc\xc3\xa9'
p1633
I39
tp1634
ag1342
ag1064
ag1102
a(S'Markus Schneider'
p1635
I27
tp1636
ag1402
ag1564
ag652
a(S'Vicki R. McKinney'
p1637
I27
tp1638
ag1522
ag118
ag842
ag1286
ag1144
ag1198
ag672
ag1212
ag422
ag1314
ag364
a(S'Hiok Chai Quek'
p1639
I18
tp1640
ag298
ag88
ag640
ag1434
ag1300
ag588
a(S'Vinod Kulathumani'
p1641
I11
tp1642
ag1460
ag8
ag464
ag678
ag1578
a(S'Marco Conti'
p1643
I24
tp1644
ag1588
ag1178
a(S'Jadwiga Indulska'
p1645
I14
tp1646
a(S'Maria E. Orlowska'
p1647
I13
tp1648
a(S'Prathima Agrawal'
p1649
I37
tp1650
ag230
ag1218
ag1262
ag106
ag654
ag1436
ag794
ag460
a(S'Farzin Maghoul'
p1651
I34
tp1652
ag718
ag176
ag1072
ag760
ag1120
ag642
ag616
ag1394
ag1172
ag546
ag714
ag420
ag1384
ag766
ag790
ag738
ag1246
ag1128
ag338
ag988
ag696
a(S'Andrew Tomkins'
p1653
I35
tp1654
ag764
ag1586
ag1344
ag1294
ag116
ag1338
a(S'Ness B. Shroff'
p1655
I32
tp1656
ag1362
ag1504
ag1566
ag830
ag874
ag324
ag986
ag554
ag142
ag400
asS'Sherali Zeadally'
p1657
(lp1658
g730
ag218
ag1122
a(S'Vineet Mittal'
p1659
I11
tp1660
ag1062
ag1240
ag1514
ag1566
ag988
a(S'Ian Clarke'
p1661
I12
tp1662
a(S'Cecilia Mascolo'
p1663
I23
tp1664
ag1540
ag254
ag530
ag80
a(S'Kirk P. Arnett'
p1665
I31
tp1666
ag182
ag740
ag1616
ag1590
ag1252
ag24
ag386
ag458
a(S'Il-Yeol Song'
p1667
I15
tp1668
ag580
ag624
ag642
ag792
ag646
ag952
ag732
ag786
ag1042
ag572
a(S'Karl Reiner Lang'
p1669
I14
tp1670
ag1602
ag502
a(S'Eun-Sun Jung'
p1671
I11
tp1672
ag628
ag74
ag800
ag1356
ag312
ag1394
ag728
ag940
ag1638
ag82
ag1080
ag1050
ag1568
a(S'Benoit Aubert'
p1673
I13
tp1674
ag140
ag394
ag1376
ag1060
a(S'J. Nicholas Laneman'
p1675
I12
tp1676
ag508
ag282
ag84
a(S'Munkee Choi'
p1677
I15
tp1678
ag176
ag298
ag908
ag1592
ag186
ag1402
ag1150
ag304
ag900
ag676
ag38
a(S'Aapo Hyv\xc3\xa4rinen'
p1679
I24
tp1680
ag1614
a(S'Shun-ichi Amari'
p1681
I11
tp1682
a(S'Sugato Bagchi'
p1683
I11
tp1684
ag256
ag1260
ag634
ag1246
ag422
ag1456
ag1176
ag880
ag750
ag926
ag1200
ag474
ag1426
ag262
ag1184
a(S'Yasuhiro Omori'
p1685
I12
tp1686
ag1466
ag1570
ag36
ag1120
ag588
a(S'Mahesh K. Marina'
p1687
I15
tp1688
ag884
ag1604
ag1390
ag1104
ag686
ag6
ag60
ag28
ag450
ag1440
a(S'Man Kit Chang'
p1689
I18
tp1690
ag1314
a(S'Kyle Jamieson'
p1691
I19
tp1692
ag896
ag442
a(S'Kunsoo Han'
p1693
I18
tp1694
ag1458
a(S'Jason L. Dedrick'
p1695
I16
tp1696
ag208
ag534
ag1250
ag614
ag568
ag428
ag232
ag1510
a(S'Samir Ranjan Das'
p1697
I14
tp1698
ag238
ag904
ag864
ag736
ag1362
ag1518
a(S'Marc Torrent-Moreno'
p1699
I24
tp1700
ag1172
ag1630
ag950
ag1326
ag978
ag314
a(S'Michel Benaroch'
p1701
I25
tp1702
ag1306
ag392
ag596
ag554
a(S'Ke Wang'
p1703
I32
tp1704
ag1278
ag1384
ag552
ag804
ag432
ag762
ag1448
ag1586
ag248
ag912
ag1010
ag810
ag1324
ag726
ag902
ag62
ag1626
ag1388
ag120
ag486
a(S'Deng Cai'
p1705
I12
tp1706
ag1532
ag1108
ag234
ag252
a(S'Varun Grover'
p1707
I93
tp1708
a(S'Robert W. Blanning'
p1709
I13
tp1710
a(S'Sanjay Kumar Madria'
p1711
I16
tp1712
ag288
ag104
ag1644
a(S'Torgeir Dings\xc3\xb8yr'
p1713
I28
tp1714
ag566
ag1422
ag670
a(S'Josep Maria Mateo-Sanz'
p1715
I37
tp1716
ag1372
ag638
a(S'Eleanna Kafeza'
p1717
I22
tp1718
a(S'Gilles Celeux'
p1719
I22
tp1720
a(S'William R. King'
p1721
I23
tp1722
ag1090
ag146
ag874
ag1320
ag454
ag570
a(S'Thomas Seidl'
p1723
I11
tp1724
ag1016
ag818
ag356
ag650
a(S'Sonia Bergamaschi'
p1725
I23
tp1726
ag368
ag462
asS'Daniele Miorandi'
p1727
(lp1728
g52
a(S'Gary Hackbarth'
p1729
I13
tp1730
ag350
ag914
ag634
a(S'Michael Vitale'
p1731
I54
tp1732
ag322
ag1198
ag392
ag1290
ag826
ag200
ag696
ag664
ag272
a(S'Sharad Mehrotra'
p1733
I14
tp1734
ag1374
a(S'Brian D. O. Anderson'
p1735
I21
tp1736
ag586
ag1558
ag60
ag1002
a(S'Robin Kravets'
p1737
I19
tp1738
ag1088
ag326
ag464
a(S'Shaju Stephen'
p1739
I12
tp1740
a(S'Christian Bettstetter'
p1741
I46
tp1742
a(S'Erdal Cayirci'
p1743
I187
tp1744
a(S'Ritu Agarwal'
p1745
I45
tp1746
ag550
ag268
ag1254
ag582
ag502
a(S'John F. Roddick'
p1747
I15
tp1748
ag576
ag1200
ag84
ag1340
ag80
ag518
ag1544
ag1246
ag1292
ag806
ag1438
ag218
ag790
ag294
ag214
ag628
ag1598
ag94
ag1322
ag82
ag400
ag1612
a(S'Marios Koufaris'
p1749
I48
tp1750
ag520
ag1042
ag290
ag1548
ag418
a(S'Evaggelia Pitoura'
p1751
I27
tp1752
a(S'Chris Mellish'
p1753
I13
tp1754
ag792
ag1140
ag402
a(S'Edward W. Knightly'
p1755
I15
tp1756
ag240
a(S'Paul A. Pavlou'
p1757
I86
tp1758
ag482
ag1570
a(S'Nirmal Mukhi'
p1759
I26
tp1760
ag1628
ag900
ag1676
ag1522
ag982
ag360
a(S'Myra Spiliopoulou'
p1761
I20
tp1762
a(S'James J. Jiang'
p1763
I40
tp1764
ag1432
ag1394
ag46
ag22
ag594
ag984
a(S'V\xc3\xadctor Leiva'
p1765
I15
tp1766
ag1556
ag840
ag368
a(S'Christopher Metz'
p1767
I15
tp1768
ag1494
ag224
ag270
a(S'Donald P. Ballou'
p1769
I15
tp1770
ag1666
ag420
ag74
ag1276
ag1484
ag1574
ag1118
ag1456
ag30
ag1590
ag1566
ag608
ag434
ag72
ag6
ag1604
ag1146
ag1366
ag558
ag754
ag222
ag1440
ag662
ag1360
ag288
ag1538
ag1172
ag866
ag926
ag100
ag798
ag1688
ag794
ag668
a(S'Jiawei Han'
p1771
I122
tp1772
ag38
ag1468
ag478
ag1130
ag528
ag824
ag1364
ag1210
ag1220
ag1554
ag1286
a(S'Viswanath Venkatesh'
p1773
I79
tp1774
ag1412
a(S'Steve Moulton'
p1775
I17
tp1776
ag770
a(S'Roberto J. Bayardo Jr.'
p1777
I13
tp1778
a(S'Manuel Galea'
p1779
I20
tp1780
ag1410
a(S'Tamer Nadeem'
p1781
I20
tp1782
ag726
ag1052
ag808
ag160
ag1024
ag254
ag310
ag538
ag1346
a(S'Qing Xu'
p1783
I17
tp1784
ag1530
a(S'Ernesto Damiani'
p1785
I14
tp1786
ag152
ag1620
ag1716
ag1150
ag1326
ag1668
a(S'David R. Choffnes'
p1787
I16
tp1788
ag138
ag930
ag1380
ag450
a(S'Jerome P. Reiter'
p1789
I12
tp1790
ag692
a(S'Ramesh Sarukkai'
p1791
I14
tp1792
ag584
a(S'Thomas Villmann'
p1793
I17
tp1794
ag1644
ag442
ag1070
ag852
ag1158
ag396
ag54
ag1328
a(S'Nick Roussopoulos'
p1795
I21
tp1796
ag348
ag186
ag1022
ag802
ag846
ag182
ag952
ag1504
ag260
ag626
ag130
asS'Frank Kargl'
p1797
(lp1798
g536
ag762
ag338
a(S'Peter A. Todd'
p1799
I28
tp1800
ag744
ag712
ag1792
ag738
ag1524
ag410
ag1722
ag62
ag1216
ag636
ag290
ag1438
ag584
ag1220
ag1758
ag716
a(S'Weidong Xia'
p1801
I14
tp1802
ag1232
ag356
ag1516
ag418
ag374
ag1388
ag488
ag1312
a(S'Dimitrios Tsoumakos'
p1803
I12
tp1804
ag142
ag368
ag1144
ag452
ag76
ag1304
ag1062
ag1574
ag706
ag1466
ag862
ag770
ag722
ag1302
ag292
ag1078
ag80
ag1646
ag1712
a(S'Sergey Verlan'
p1805
I18
tp1806
ag136
ag1522
a(S'J. Alberto Espinosa'
p1807
I12
tp1808
ag826
a(S'Kenji Doya'
p1809
I17
tp1810
ag1052
ag520
a(S'Aristides Gionis'
p1811
I14
tp1812
ag1374
ag838
ag244
ag170
ag344
ag756
ag1644
a(S'Bamshad Mobasher'
p1813
I16
tp1814
a(S'Jinde Cao'
p1815
I12
tp1816
ag958
ag1628
ag190
ag1492
ag242
ag1476
ag330
a(S'Gianluigi Greco'
p1817
I21
tp1818
a(S'Henry A. Kautz'
p1819
I22
tp1820
ag1660
ag702
a(S'Huan Liu'
p1821
I38
tp1822
ag890
ag1514
ag1372
ag618
ag1616
ag1736
ag352
a(S'Prabal Dutta'
p1823
I11
tp1824
ag222
ag930
ag896
ag140
ag878
ag1548
ag678
ag1486
ag804
ag110
a(S'Hany Farid'
p1825
I16
tp1826
ag1670
a(S'Timothy W. Finin'
p1827
I16
tp1828
ag1426
ag670
ag854
ag594
ag936
ag996
ag674
a(S'Christian Lochert'
p1829
I39
tp1830
ag682
ag1104
ag750
ag122
ag1086
a(S'Daniel A. Keim'
p1831
I14
tp1832
ag528
ag1126
a(S'Lei Yu'
p1833
I18
tp1834
ag318
ag1690
ag1116
ag1004
a(S'Robert Morris'
p1835
I25
tp1836
ag1326
ag246
a(S'Byungtae Lee'
p1837
I12
tp1838
ag248
ag494
ag104
ag10
ag1632
ag28
ag1694
a(S'Akhil Kumar'
p1839
I23
tp1840
ag198
ag168
ag940
ag650
ag610
ag336
ag1554
ag422
ag892
ag590
ag1498
ag614
ag506
ag466
ag174
ag202
ag1290
ag1528
ag74
ag820
ag1772
ag692
ag1278
ag836
ag1362
a(S'Rahul Telang'
p1841
I12
tp1842
ag902
ag1166
ag1132
ag954
a(S'Guodong (Gordon) Gao'
p1843
I12
tp1844
ag690
a(S'Thaddeus R. F. Fulford Jones'
p1845
I16
tp1846
ag1054
ag1002
ag16
ag468
a(S'Ashish Raniwala'
p1847
I40
tp1848
ag378
ag644
ag1066
ag94
ag1152
ag392
ag1112
ag546
ag1264
ag1656
ag586
ag880
ag648
ag1606
ag268
a(S'Jeff Ko'
p1849
I15
tp1850
ag1226
ag560
ag816
ag166
ag1442
ag1196
a(S'William H. DeLone'
p1851
I55
tp1852
a(S'Hemant K. Bhargava'
p1853
I26
tp1854
ag4
ag1756
ag1344
ag1436
ag550
asS'Naixue Xiong'
p1855
(lp1856
g1190
ag1608
ag1060
ag552
ag1152
a(S'Heikki Mannila'
p1857
I12
tp1858
ag972
ag1738
ag50
ag1284
ag320
ag1438
ag14
ag396
ag1304
ag858
ag1056
ag1342
ag358
a(S'Michihiro Kuramochi'
p1859
I18
tp1860
a(S'Mark Keil'
p1861
I32
tp1862
ag1360
ag418
a(S'Xiaohui Liu'
p1863
I14
tp1864
ag514
ag590
ag654
ag1204
a(S'Javier Gomez'
p1865
I13
tp1866
ag628
ag420
a(S'Ramesh A. Dandekar'
p1867
I15
tp1868
ag1580
ag1828
ag920
ag1420
ag266
ag584
ag458
ag1300
ag1490
ag1706
ag1088
ag1464
a(S'Dimitrios Katsaros'
p1869
I11
tp1870
ag802
ag1376
ag1148
ag966
ag122
ag1764
ag954
ag312
ag1620
ag616
ag878
ag1518
ag256
ag1762
ag188
a(S'Mark Vandenbosch'
p1871
I13
tp1872
ag506
ag416
ag438
ag1170
ag526
ag814
a(S'Grover S. Kearns'
p1873
I13
tp1874
ag582
ag534
ag232
ag1450
ag1668
ag1448
a(S'Jianyong Wang'
p1875
I37
tp1876
ag1356
ag1426
ag524
ag1184
ag1398
ag1672
ag1406
ag1590
ag542
ag34
a(S'Vincent S. Lai'
p1877
I14
tp1878
ag1548
ag1594
ag216
ag1364
ag1700
ag1068
ag102
ag1374
ag414
ag218
ag544
a(S'Hsin-Ginn Hwang'
p1879
I12
tp1880
ag1474
ag604
ag324
a(S'Mark L. Gillenson'
p1881
I25
tp1882
ag934
ag10
ag382
ag1080
ag1834
ag766
ag1572
ag872
ag994
a(S'Divyakant Agrawal'
p1883
I28
tp1884
ag442
ag1582
ag1532
ag588
ag62
ag334
ag1496
ag820
ag1270
a(S'Stephan Reiff-Marganiec'
p1885
I26
tp1886
ag384
ag1326
ag1826
ag1200
ag90
ag620
ag1224
ag1778
ag1774
ag366
ag546
ag238
ag1854
ag1576
ag276
ag1812
ag948
ag680
a(S'Enrico Gregori'
p1887
I20
tp1888
ag728
ag446
ag1330
ag1052
a(S'Giovanni Neglia'
p1889
I14
tp1890
ag1118
ag1318
ag712
ag924
a(S'Wynne W. Chin'
p1891
I53
tp1892
ag352
ag1526
ag738
ag568
ag612
ag1166
a(S'Jon Crowcroft'
p1893
I14
tp1894
ag258
ag1116
a(S'Pierangela Samarati'
p1895
I95
tp1896
ag1350
ag632
ag1178
a(S'J. Ben Schafer'
p1897
I21
tp1898
ag944
ag1836
ag1106
ag1216
ag1346
ag992
ag1674
a(S'Paolo Ciaccia'
p1899
I11
tp1900
ag1614
ag768
ag836
ag1064
ag926
a(S'Ziqi Liao'
p1901
I19
tp1902
ag640
ag658
ag730
ag104
ag314
ag1180
ag1288
ag1134
ag1392
ag1650
ag1340
ag156
ag1044
ag1696
ag1552
ag678
ag1846
ag1446
ag990
ag1852
ag1276
asS'Yurii Rogozhin'
p1903
(lp1904
g1126
ag968
ag482
ag680
ag458
ag12
a(S'Sanjay Gosain'
p1905
I19
tp1906
ag1262
ag1092
ag1890
ag1184
ag768
ag1232
ag1498
ag1340
ag1610
ag1462
ag1438
ag186
ag1868
ag412
ag760
ag1548
ag818
a(S'Imsook Ha'
p1907
I15
tp1908
ag256
ag1170
ag1560
ag486
ag1870
ag232
ag1390
ag1416
ag576
a(S'Salvatore T. March'
p1909
I17
tp1910
ag1328
ag958
ag1314
ag780
ag982
ag1562
ag1248
ag166
ag60
ag1654
ag116
ag1192
ag1140
ag1078
ag726
ag1270
ag300
ag524
ag432
ag1020
ag1070
ag1778
ag1864
ag78
ag202
ag1354
ag1172
ag1522
a(S'Martin Mauve'
p1911
I63
tp1912
ag1054
ag1594
ag1052
ag1406
ag1764
ag1422
ag688
ag1218
ag1552
ag332
a(S'Sandra Slaughter'
p1913
I25
tp1914
ag1454
ag556
ag1308
ag618
ag1060
ag1292
ag266
ag1244
a(S'Amit P. Sheth'
p1915
I50
tp1916
a(S'Dankmar B\xc3\xb6hning'
p1917
I26
tp1918
ag1656
ag88
ag1316
ag1722
ag1122
ag1374
ag1258
ag1368
ag1254
a(S'Sridhar Narasimhan'
p1919
I17
tp1920
ag330
ag552
ag490
ag1118
ag1236
ag852
ag646
ag1202
ag1660
ag1288
ag1710
ag950
ag1164
ag306
a(S'Stefanie Rinderle'
p1921
I24
tp1922
a(S'Souren Paul'
p1923
I16
tp1924
ag1470
ag1544
ag456
ag792
ag1386
ag1410
ag1160
ag56
a(S'Domenico Talia'
p1925
I13
tp1926
ag1628
ag312
ag226
ag1666
ag424
ag352
ag1394
a(S'John Mingers'
p1927
I16
tp1928
ag1150
ag1206
ag154
ag748
ag878
ag560
ag462
ag706
ag854
ag1112
ag1494
ag1898
ag786
ag248
ag980
ag422
ag1028
ag1012
ag416
ag578
ag114
ag642
ag626
ag1282
ag112
ag986
ag90
ag1436
ag1704
ag1528
ag756
ag898
ag1204
ag808
ag990
ag1014
ag1546
ag1110
a(S'Paulo J. G. Lisboa'
p1929
I18
tp1930
ag210
ag1104
ag572
ag204
ag244
ag144
ag316
ag1860
ag86
ag796
ag972
ag1434
ag864
a(S'John A. Miller'
p1931
I14
tp1932
ag1264
ag496
ag594
ag670
a(S'Huseyin Cavusoglu'
p1933
I12
tp1934
ag952
ag612
ag1154
ag1602
ag550
ag884
ag1458
ag1030
ag476
ag910
ag964
ag1468
ag1582
ag1724
asS'Albert Cabellos-Aparicio'
p1935
(lp1936
g410
ag1528
ag324
ag494
ag948
ag1712
ag1116
ag1854
ag1332
ag1614
ag1144
ag654
ag678
ag1314
ag614
ag1228
ag1584
ag1618
ag628
ag586
ag544
ag1450
ag72
ag610
ag1696
ag1216
ag1012
ag128
ag1432
ag952
ag666
ag1312
ag1026
ag1772
ag360
ag130
ag530
ag118
a(S'Hakman A. Wan'
p1937
I12
tp1938
ag1246
ag668
ag1208
ag1288
a(S'Martin Erwig'
p1939
I21
tp1940
ag40
ag1394
ag1594
ag528
ag1272
ag1842
ag1876
ag640
ag1462
ag560
ag552
ag428
ag124
ag1832
ag1166
ag168
ag1258
ag1274
ag230
ag358
ag1002
ag466
ag1416
ag68
ag400
ag1004
ag964
ag276
ag1128
ag310
ag1082
ag1514
ag1010
ag1404
ag778
ag1008
ag770
ag290
ag202
ag1266
ag870
ag1052
ag454
ag44
ag1846
ag664
ag1058
ag1202
ag848
ag1672
a(S'Renato Coppi'
p1941
I11
tp1942
ag1734
ag1460
ag824
ag1660
ag1186
ag1402
ag1604
ag1850
ag854
ag834
ag750
ag1428
ag1384
ag830
ag450
ag414
ag362
ag1150
ag1034
ag138
ag1234
ag1256
ag1162
ag60
ag1348
ag970
ag988
ag1808
ag688
ag1316
ag810
ag1576
ag328
ag1720
ag1378
ag198
ag1520
ag1582
ag356
a(S'Donald F. Towsley'
p1943
I30
tp1944
ag1638
ag1778
ag266
ag1296
ag76
ag216
ag1546
ag1790
ag1860
ag1816
ag1072
ag1810
ag424
ag762
ag208
ag344
ag1054
ag918
ag924
ag1628
ag1056
ag1910
ag1156
ag1442
ag1060
ag1740
ag312
ag170
ag1756
ag1592
ag368
ag1096
ag896
ag1688
ag1928
ag558
ag1370
ag1680
ag1160
ag1708
ag1126
ag1608
ag214
ag1260
ag80
ag1184
ag1020
ag1418
ag590
ag1802
ag880
ag1862
ag1420
a(S'Sandeep S. Kulkarni'
p1945
I12
tp1946
ag302
ag102
ag1722
ag1522
ag210
ag718
ag24
ag1424
ag656
ag1916
ag122
asS'Edwin M. M. Ortega'
p1947
(lp1948
g1288
ag520
ag836
a(S'Michel Patry'
p1949
I12
tp1950
ag1772
a(S'Kyuseok Shim'
p1951
I28
tp1952
ag240
ag1690
ag1032
ag1784
ag1620
ag1708
ag1324
ag1582
ag660
ag696
ag324
ag620
ag1920
ag244
ag1190
a(S'Boualem Benatallah'
p1953
I55
tp1954
ag1750
a(S'Eduardo Mena'
p1955
I13
tp1956
ag1426
ag524
ag1816
ag480
ag692
ag452
ag710
ag1534
ag812
ag1760
ag1824
ag884
ag1088
ag1656
ag1928
ag152
ag750
ag1306
ag1442
ag1036
ag628
ag614
ag738
ag760
ag300
ag46
ag1444
ag432
ag566
ag342
ag826
ag1322
ag266
ag558
ag1808
ag964
ag544
ag170
ag1068
ag478
ag716
a(S'Shantidev Mohanty'
p1957
I56
tp1958
ag944
ag926
ag1410
ag930
ag1626
ag238
ag1924
ag1858
ag1818
ag1692
ag568
ag188
ag448
ag20
ag58
ag984
a(S'T. Ravichandran'
p1959
I26
tp1960
ag1404
ag1064
ag1400
ag62
ag26
ag1902
ag1022
ag1044
a(S'Wendy Schneier Siegal'
p1961
I13
tp1962
ag1700
ag1382
ag536
ag1828
ag1478
ag88
ag1722
ag1918
a(S'Elena Ferrari'
p1963
I17
tp1964
ag1320
ag856
ag538
ag1528
ag1150
ag1470
ag312
a(S'Fran\xc3\xa7oise Sailhan'
p1965
I15
tp1966
ag618
ag1576
ag318
ag384
ag910
ag990
ag998
ag1770
ag1134
a(S'Marc Sim'
p1967
I17
tp1968
ag1476
ag726
ag1486
ag1606
a(S'Wendi Rabiner Heinzelman'
p1969
I26
tp1970
ag644
ag1234
ag790
ag484
ag1458
ag678
ag410
ag700
ag1568
ag724
ag806
ag134
ag1794
ag1548
ag792
ag1554
ag1014
ag172
ag880
ag1916
ag748
ag956
ag708
ag816
ag1166
ag1146
ag682
ag482
ag1344
ag814
ag72
ag1544
ag128
ag574
ag1428
ag1034
ag1164
ag1494
ag808
ag1268
ag624
ag882
ag646
ag204
ag1642
ag1108
ag456
ag1556
ag206
ag208
ag1412
ag612
ag698
ag1806
ag74
ag532
ag252
ag1196
ag136
ag440
ag1434
ag912
ag1316
ag924
a(S'N. Balakrishnan'
p1971
I29
tp1972
ag562
ag638
ag1408
ag1706
ag1814
ag526
ag1860
ag662
ag76
ag110
a(S'Domenico Beneventano'
p1973
I22
tp1974
asS'Rudolf Freund'
p1975
(lp1976
g130
ag1600
ag1626
ag680
ag1780
ag1702
ag1424
ag506
ag274
ag354
ag328
ag1260
ag1470
ag456
ag1418
ag14
ag1820
ag24
ag1954
ag1126
ag1774
ag418
ag1840
ag86
a(S'Xifeng Yan'
p1977
I21
tp1978
ag496
ag740
ag1920
ag268
ag674
ag822
ag1552
ag1950
ag316
ag528
ag1864
ag1098
ag124
ag752
ag1742
ag50
ag1822
ag928
ag386
ag1146
ag1134
ag758
ag190
ag800
ag746
ag1624
ag144
ag780
ag1844
ag468
ag406
ag1566
ag1684
ag1968
a(S'Ee-Peng Lim'
p1979
I19
tp1980
ag1876
ag814
ag884
ag1568
ag1852
ag400
ag1664
ag1010
ag1678
ag1338
ag1614
ag146
ag990
ag716
ag458
ag592
ag1896
ag1120
ag524
ag714
ag1972
ag1546
ag962
ag522
ag1370
ag1540
ag854
ag1698
ag894
ag1162
ag1170
ag288
ag334
ag426
ag278
ag1200
ag412
ag978
ag1598
ag70
ag42
ag1486
ag74
ag466
ag1498
ag1090
ag754
ag972
ag1282
ag604
ag1692
ag688
ag1082
ag1118
ag490
ag1926
ag1564
ag476
ag252
ag660
ag906
ag92
ag684
ag1004
ag394
ag1662
ag366
ag1548
ag244
ag1074
ag212
ag1722
ag248
ag580
ag1562
ag828
ag232
ag612
ag338
ag1708
ag294
ag1712
ag980
ag1326
ag1766
ag1602
ag166
ag26
ag924
ag500
ag1318
ag1494
ag188
ag678
ag380
ag1100
ag282
ag1148
ag256
ag1386
ag1184
ag1530
ag1894
ag1092
ag1322
ag756
ag378
ag778
ag228
ag760
ag1654
ag1944
ag1880
ag1122
ag1400
ag1960
ag1612
ag996
ag1584
ag322
ag892
ag1946
ag1642
ag560
ag536
ag712
ag762
ag1086
ag1290
ag266
ag764
ag1226
ag1518
ag806
ag270
ag160
ag804
ag1296
ag62
a(S'Raja Sengupta'
p1981
I21
tp1982
asS'Imrich Chlamtac'
p1983
(lp1984
g588
ag1456
ag1918
ag762
ag920
ag1142
ag1520
ag1896
ag594
ag1688
ag234
ag44
ag1498
ag304
ag482
ag212
ag500
ag1368
ag1912
ag110
ag140
ag1598
ag1394
ag72
ag656
ag1724
ag108
ag1266
ag638
ag1148
ag1250
ag1412
ag952
ag318
ag1224
ag1480
ag1320
ag1054
ag1956
ag886
ag612
ag1236
ag1162
ag486
ag1868
ag626
ag576
ag1078
ag1262
ag1400
ag1206
ag362
ag1240
ag866
ag1402
ag1834
ag854
ag530
ag688
ag1700
ag308
ag1254
ag1832
a(S'Hans-Peter Kriegel'
p1985
I14
tp1986
ag182
ag1110
ag704
ag936
ag1292
a(S'Sung S. Kim'
p1987
I21
tp1988
ag1326
ag1004
ag1794
ag122
ag1014
ag1534
ag1484
ag532
ag1734
ag1198
ag1606
a(S'Christian S. Jensen'
p1989
I38
tp1990
ag1952
a(S'Rajeev Motwani'
p1991
I34
tp1992
ag216
ag1350
ag1586
ag1220
ag1592
ag1492
ag354
ag1016
ag368
ag650
ag746
ag1422
ag664
ag170
ag1362
ag1920
ag1272
ag790
ag1618
ag508
ag1318
ag1472
ag312
ag1138
ag112
ag1372
ag1496
ag1208
ag1502
ag1860
ag268
ag10
ag1062
ag1616
ag1826
ag1322
ag1358
ag692
ag1352
ag1450
ag1708
ag786
ag450
ag1900
ag1878
ag1888
ag918
ag942
ag934
ag522
ag914
ag1692
ag1552
ag434
ag748
ag160
ag1172
ag168
ag1406
ag1926
ag1008
ag858
ag208
ag1046
ag908
ag1528
ag1628
ag1564
ag796
ag1968
ag1098
ag700
ag1530
ag740
ag1506
ag1470
ag1602
ag14
ag272
ag1840
ag1848
ag1024
ag24
ag560
ag158
ag1908
ag1454
ag1180
ag1776
a(S'Donald Kossmann'
p1993
I11
tp1994
ag1060
ag1374
ag558
ag1594
ag606
ag904
ag1880
ag1028
ag1532
ag138
ag30
ag1082
ag776
ag1940
ag1922
ag1072
ag390
ag592
ag1778
ag1584
ag418
ag1084
ag1252
ag596
ag1166
ag1842
asS'Mark Johnston'
p1995
(lp1996
g356
ag544
ag1672
ag112
ag908
ag906
ag1006
ag1698
ag172
ag746
ag434
ag1310
ag1520
ag818
ag1016
ag1940
ag42
ag1076
ag370
ag960
ag1962
ag1994
ag1422
ag1754
ag116
ag1730
ag762
ag910
ag1580
ag1038
ag450
ag1938
ag1322
ag488
ag504
ag536
ag1320
ag554
ag978
ag300
ag1874
ag1536
ag1386
ag200
ag1406
ag1008
ag946
ag364
ag56
ag1850
a(S'Luigi Logrippo'
p1997
I13
tp1998
ag426
ag1216
ag1684
ag250
ag860
ag324
ag808
ag1878
ag724
a(S'Yang W. Lee'
p1999
I26
tp2000
ag276
ag1090
ag1374
ag988
ag1906
ag1970
ag718
ag160
ag806
ag1516
ag872
ag1378
ag1956
ag1238
ag660
ag568
ag314
ag408
ag1224
ag754
ag272
ag514
ag1442
ag1194
ag50
ag1474
ag146
ag588
ag712
ag842
ag1884
ag1792
ag432
ag398
ag1342
ag1746
ag362
ag1262
ag1546
ag1178
ag690
ag1362
ag1578
a(S'Jen-Her Wu'
p2001
I24
tp2002
ag1916
ag1130
ag1538
ag1612
ag892
ag330
ag254
ag850
ag206
ag996
ag1542
ag1426
ag386
ag1640
ag80
ag1428
ag1540
ag756
ag1334
ag730
ag556
ag1784
ag1968
ag1670
ag1770
ag1486
ag566
ag1440
ag1692
ag476
ag1636
ag454
ag1786
ag912
ag678
ag1120
ag1824
ag526
ag262
ag1032
ag1364
ag612
ag1288
ag1686
ag1080
ag478
ag304
ag664
ag136
ag1740
ag54
ag1392
ag654
ag150
ag1466
ag462
ag794
ag1124
ag274
ag1750
ag1558
ag1384
ag922
ag1444
ag1190
ag1244
ag1480
ag72
ag1268
ag1274
ag1270
ag692
ag760
ag564
ag1826
ag916
ag144
ag1972
ag338
ag1034
ag1246
ag1926
ag218
ag1152
ag766
ag306
ag584
ag990
a(S'Yong-Mi Kim'
p2003
I12
tp2004
ag796
ag1226
ag1072
ag876
ag1952
a(S'Stefano Paraboschi'
p2005
I13
tp2006
asS'Alberto Leporati'
p2007
(lp2008
(S'Maguelonne Teisseire'
p2009
I12
tp2010
ag890
ag1670
ag216
ag930
ag394
ag624
ag1570
ag724
ag82
ag604
ag1472
ag348
ag1092
ag1648
ag452
ag148
ag1854
ag1406
ag134
ag488
ag1346
ag1266
ag368
ag1500
ag1318
ag1656
ag1386
ag800
ag700
ag30
ag554
ag990
a(S'Arun Iyengar'
p2011
I12
tp2012
ag1672
ag38
ag102
ag400
ag74
ag1028
ag142
ag1248
ag1038
ag1946
ag982
ag390
ag1492
ag1116
ag366
ag562
ag1928
ag964
ag1800
ag406
ag1222
a(S'Yiwen Yin'
p2013
I25
tp2014
ag358
ag14
ag920
ag1550
ag1324
ag1236
ag1432
ag24
ag1320
ag1890
ag486
ag808
ag1132
ag42
ag552
ag1624
ag16
ag1070
ag1402
ag1760
ag1218
ag1076
ag1578
ag848
ag1366
ag642
ag52
ag106
ag162
ag892
ag294
ag1390
ag524
ag1274
ag1034
ag1706
ag458
ag1568
ag1144
ag1210
ag410
ag1622
ag1914
ag912
ag118
ag2000
ag768
ag1934
ag1158
ag896
ag1860
ag1374
ag1174
ag1400
ag1630
ag1208
ag1858
ag682
ag186
ag546
ag496
ag1310
ag518
ag1170
ag1060
ag1326
ag956
ag806
ag1544
ag1696
ag376
ag1460
ag1896
ag1848
ag1078
ag616
ag666
ag1986
ag1300
ag40
ag520
ag1084
ag1884
ag344
ag1246
ag1924
ag190
ag852
ag34
ag1242
ag1956
ag1932
ag1718
ag408
ag1044
ag826
ag498
ag146
ag1662
ag220
ag1080
ag1822
ag1680
ag502
ag564
ag878
ag474
ag1866
ag894
ag944
ag1290
ag210
ag472
ag1278
ag1668
ag726
ag1950
ag1732
ag620
ag120
ag592
ag1072
ag774
ag832
ag122
ag1444
ag482
ag1194
ag838
ag992
ag1352
ag456
ag876
ag1784
ag560
ag1068
ag926
ag1338
ag254
ag354
ag1546
ag528
ag1992
ag1244
asS'Gy\xc3\xb6rgy Vaszil'
p2015
(lp2016
g850
ag710
ag1932
ag4
ag10
ag448
ag556
ag80
ag1360
ag214
ag1742
ag48
ag1124
ag78
ag1840
ag1986
ag934
ag756
ag1226
ag298
ag1914
ag1232
ag984
ag1548
ag296
ag1122
ag1040
ag1602
ag956
ag1358
ag1342
ag436
ag2012
ag582
ag466
ag320
ag1348
ag1462
ag1994
ag34
ag1848
ag1604
ag746
ag248
ag174
ag682
ag732
ag796
ag1176
ag560
ag1748
ag38
ag698
ag764
ag888
ag1458
ag292
ag540
ag574
ag440
ag1448
ag300
ag1930
ag1820
ag1440
ag1704
ag1570
ag1608
ag1776
ag1590
ag1660
ag1076
ag1906
ag618
ag636
ag1534
ag1480
ag170
ag830
ag14
ag1786
ag1110
ag1830
ag312
ag1806
ag168
ag144
ag44
ag846
ag808
ag1276
ag1876
ag950
ag1156
ag134
ag1874
ag1624
ag900
ag1896
ag200
ag586
ag1736
ag1194
ag1850
ag1982
ag408
ag1918
ag88
ag1574
ag920
ag1322
ag1132
ag1328
ag20
ag278
ag28
ag1746
ag1312
ag1894
ag384
ag962
ag1546
ag1902
ag814
ag1724
ag1450
ag1716
ag1758
ag1218
ag798
ag172
ag1774
ag1338
ag1732
ag924
ag386
ag1606
ag544
ag1396
ag32
ag1968
ag1642
ag562
ag1518
ag1318
ag884
ag222
ag354
ag638
ag1586
ag1090
ag616
ag1372
ag668
ag90
ag166
ag1942
ag1790
ag236
ag1432
ag754
ag252
ag1614
ag1892
ag536
ag604
ag374
ag1812
ag1246
ag1956
ag730
ag790
ag632
ag1858
ag1560
ag1740
ag280
ag446
ag514
ag750
ag800
ag1648
ag1096
ag452
ag714
ag1656
ag500
ag328
ag1882
ag1074
ag1412
ag906
ag1486
ag1046
ag954
ag624
ag258
ag1070
ag228
ag1476
asS'Ingrid Moerman'
p2017
(lp2018
g1532
ag1946
ag176
ag580
ag566
ag996
ag1034
ag1066
ag716
ag1230
ag344
ag1070
ag416
ag244
ag1396
ag770
ag516
ag1682
ag900
ag1332
ag442
ag126
ag32
ag1588
ag44
ag1514
ag1730
ag492
ag436
ag1062
ag590
ag812
ag1282
ag792
ag800
ag1844
ag644
ag512
ag50
ag1170
ag1886
ag1112
ag156
ag1884
ag744
ag380
a(S'Munindar P. Singh'
p2019
I16
tp2020
ag1758
ag410
ag1306
ag620
ag238
ag102
ag452
ag1120
ag464
ag1096
ag726
ag732
ag1286
ag1172
ag1782
ag1636
ag1736
ag1650
ag736
ag1864
ag594
ag2014
ag1896
ag1014
ag1110
ag1424
ag548
ag836
ag1738
ag1890
ag1598
ag86
ag1520
ag1216
ag704
ag1246
ag1804
ag688
ag1490
ag80
ag1770
ag166
ag940
ag1638
ag808
ag1944
ag1028
ag616
ag1618
ag1138
ag814
ag1952
ag114
ag1538
ag1252
ag1368
ag1018
ag1882
ag1392
ag1750
ag158
ag374
ag98
ag1142
ag784
ag1648
ag614
ag972
ag1868
ag1998
ag1534
ag250
ag104
ag1292
ag1416
ag174
ag1240
ag524
ag1502
ag1828
ag1622
ag200
ag994
ag1006
ag1372
ag1794
ag1968
ag880
ag82
ag74
ag258
ag656
ag882
ag322
ag684
ag1474
ag1922
ag1504
ag874
ag1786
ag382
ag1114
ag1444
ag1810
ag740
ag1042
ag536
ag734
ag612
ag460
ag1906
ag646
ag1472
ag858
ag1182
ag692
ag652
ag1558
ag1842
ag1506
ag180
ag1496
ag1090
ag1234
ag1820
ag474
ag1894
ag218
ag1834
ag1256
ag520
ag1104
ag1108
ag696
ag38
ag794
ag1914
ag1680
ag290
ag924
ag496
ag424
ag1988
ag564
ag518
ag772
ag658
ag1934
ag444
ag48
ag1660
ag1478
ag142
asS'Dimitrios Katsaros'
p2021
(lp2022
g64
ag876
ag588
ag1130
ag496
ag20
ag398
ag1418
ag378
ag744
ag1300
ag1066
ag880
ag1026
ag864
a(S'Ephraim R. McLean'
p2023
I65
tp2024
ag1230
ag1628
ag412
ag220
ag140
ag156
ag924
ag34
ag1900
ag1618
ag1606
ag936
ag674
ag606
ag262
ag528
ag498
ag1368
ag1538
ag566
ag1794
ag190
ag1744
ag1694
ag1918
ag2010
ag1588
ag1100
ag866
ag1272
ag1266
ag734
ag1186
ag1764
ag626
ag326
ag250
ag552
ag1158
ag950
ag1406
ag1498
ag1956
ag258
ag1636
ag1872
ag832
ag1370
ag394
ag538
ag1650
ag896
ag1038
ag1550
ag788
ag180
ag1532
ag1472
ag928
ag1894
ag460
ag772
ag700
ag716
ag750
ag1216
ag18
ag1626
ag554
ag1824
ag1224
ag902
ag678
ag1590
a(S'Timos K. Sellis'
p2025
I18
tp2026
ag1052
ag774
ag680
ag938
ag116
ag1546
ag2014
ag1298
ag492
ag230
ag890
ag846
a(S'James Y. L. Thong'
p2027
I35
tp2028
ag1450
ag954
ag1810
ag1242
ag46
ag4
ag1060
ag226
ag986
ag1848
ag1172
ag1686
ag1806
ag1514
ag242
ag1742
ag360
ag1884
ag1184
ag1760
ag208
ag182
ag1734
ag1008
ag828
ag1484
ag1432
ag1540
ag698
ag1774
ag550
ag338
ag132
ag1190
ag1430
ag446
ag1696
ag1148
ag1924
ag58
ag548
ag872
ag724
ag260
ag400
ag138
ag1424
ag1384
ag1868
ag688
ag1866
ag638
ag428
ag1354
ag294
ag1964
ag1462
ag290
ag22
ag610
ag1410
ag898
ag304
ag992
ag682
ag1726
ag532
ag508
ag1196
ag1014
ag1382
ag1074
ag972
ag1994
ag782
ag358
ag970
ag1602
ag1174
ag244
ag852
ag1962
ag122
ag1042
ag1136
ag1422
ag484
ag530
ag1228
ag1030
ag178
ag722
ag1692
ag540
ag40
ag616
asS'Jehoshua Bruck'
p2029
(lp2030
g1038
ag1348
ag1704
ag388
ag1252
ag1198
ag856
ag1986
ag178
ag822
ag1882
ag100
ag1656
ag232
ag1902
ag86
ag168
ag130
ag370
ag432
ag1318
ag1598
ag1674
ag1646
ag68
ag1550
ag696
ag1884
ag212
ag1900
ag266
ag620
ag1088
ag1344
ag90
ag458
ag1014
ag616
ag1872
ag566
ag1928
ag832
ag590
ag1978
ag356
ag1860
ag1246
ag1096
ag278
ag646
ag1150
ag630
ag754
ag1058
ag1398
ag442
ag1716
ag1772
ag304
ag892
ag1766
ag834
ag1128
ag1594
ag182
ag1452
ag1238
ag592
ag1100
ag320
ag1512
ag340
ag1840
ag1434
ag654
ag286
ag908
ag742
ag200
ag560
ag1730
ag780
a(S'Weiyin Hong'
p2031
I20
tp2032
ag148
ag1316
ag1608
ag1330
ag1404
ag1784
ag312
ag1776
ag192
ag394
a(S'Guoqiang Mao'
p2033
I22
tp2034
ag748
ag288
ag804
ag1672
ag180
ag732
ag416
ag570
ag464
ag334
ag928
ag1118
ag1078
ag1740
ag1922
ag396
ag30
ag390
ag628
ag1040
ag1720
ag564
ag1648
ag1744
ag1916
ag50
ag1408
ag20
ag76
ag1464
ag1268
ag1194
ag578
ag1796
ag10
ag1294
ag1148
ag1196
ag1804
ag1248
ag450
ag814
ag306
ag202
ag262
ag1530
ag906
ag246
ag1222
ag648
ag874
ag1474
ag1084
ag172
ag1842
ag494
ag1926
ag1506
ag1210
ag1502
ag1910
ag410
ag62
ag1062
ag554
ag308
ag1834
ag1352
ag358
ag1554
ag1518
ag144
ag1956
ag1604
ag1678
ag668
ag1228
ag420
ag386
ag1618
ag990
ag810
ag160
ag1272
ag354
ag204
ag1814
ag1552
ag778
ag466
ag102
ag424
ag1356
ag1892
ag18
ag208
ag478
ag1588
ag70
ag1068
ag1468
ag236
ag1924
ag1894
ag134
a(S'Wonseok Oh'
p2035
I20
tp2036
asS'Jian Chen'
p2037
(lp2038
g666
ag654
ag2000
ag690
ag324
ag812
ag554
ag1202
ag1156
ag392
ag1478
ag1092
ag440
ag1822
ag1556
ag1894
ag960
ag692
ag604
ag878
ag1074
ag448
ag996
ag706
ag1506
ag282
ag526
ag1346
ag1414
ag338
ag416
ag390
ag644
ag488
ag1802
ag34
ag780
ag216
ag1548
ag1324
ag1816
ag116
ag272
ag1740
ag1782
ag750
ag522
ag320
ag626
ag632
ag946
ag696
ag460
ag1510
ag1978
ag1520
ag792
ag1874
ag772
ag364
ag238
ag1580
ag566
ag1030
ag1514
ag1194
ag270
ag204
ag1276
ag40
ag1870
ag1444
ag1866
ag540
ag1128
ag154
ag226
ag1016
ag178
ag1104
ag1692
ag314
ag1544
ag990
ag1320
ag1906
ag1328
ag1292
ag438
ag1944
ag660
ag1040
ag1054
ag698
ag726
ag630
ag312
ag1604
ag1408
ag1732
ag670
ag1680
ag1992
ag1888
ag542
ag1644
ag1494
ag1470
ag1810
ag450
ag1062
ag958
ag462
ag146
ag1158
ag916
ag1378
ag150
ag1726
ag1472
ag1878
ag1144
ag1620
ag1238
ag140
ag1900
ag1540
ag1666
ag432
ag490
ag1132
ag64
ag242
ag1458
ag1568
ag1706
ag136
ag1808
ag1582
ag2028
ag378
ag1768
ag1416
ag1924
ag1784
ag580
ag1662
ag170
ag336
ag94
ag1654
ag1946
ag352
ag1174
ag2002
ag1150
ag1426
ag1058
ag398
ag1014
ag28
ag866
ag436
ag974
ag1178
ag380
ag10
ag382
ag1994
ag118
ag784
ag1456
ag86
ag148
ag350
ag8
ag60
ag1356
ag1880
ag1172
ag1400
ag1616
ag1050
ag1350
ag1142
ag1140
ag1566
ag384
ag454
ag854
ag1368
ag680
ag1288
ag1380
ag1006
ag1190
ag908
ag1358
ag1920
ag1656
asS'Dickson K. W. Chiu'
p2039
(lp2040
g728
ag78
ag1738
ag1234
ag1846
ag834
ag1306
ag1294
ag1456
ag1072
ag744
ag150
ag268
ag202
ag668
ag1274
ag458
ag1416
ag532
ag826
ag900
ag1642
ag1704
ag1174
ag704
ag886
ag1352
ag1130
ag1104
ag30
ag380
ag582
ag1098
ag1748
ag1396
ag558
ag290
ag2002
ag102
ag1222
ag1016
ag948
a(S'Weiquan Wang'
p2041
I13
tp2042
ag1732
ag1362
ag1706
ag1940
ag1226
ag1118
ag972
ag1630
ag1148
ag1386
ag328
ag1166
ag276
ag2020
ag1688
ag836
ag1254
ag342
ag750
ag2010
ag1156
ag764
ag1256
ag1022
ag832
ag1202
ag1152
ag1308
ag464
ag454
ag1666
ag656
ag386
ag876
ag1574
ag1340
ag68
ag600
ag760
ag86
ag1040
ag370
ag72
ag610
ag54
ag898
ag966
ag896
ag1270
ag48
ag588
ag1450
ag1002
ag1144
ag746
ag462
ag248
ag810
ag422
ag316
ag1020
ag1338
ag456
ag518
ag1604
ag448
ag1238
ag1722
ag812
ag936
ag1060
ag598
ag852
ag1662
ag1884
ag1076
ag628
ag74
ag1488
ag1034
ag1610
ag292
ag1958
ag1926
ag1068
ag1528
ag1568
ag1806
ag1772
ag1560
ag2024
ag1784
ag816
ag1694
ag414
ag1496
ag1592
ag138
ag1682
ag1392
ag1820
ag1708
a(S'J. J. Garcia-Luna-Aceves'
p2043
I19
tp2044
ag474
ag1720
ag620
ag550
ag1252
ag1982
ag1134
ag1930
ag174
ag678
ag602
ag1696
ag1066
ag108
ag164
ag1890
ag1200
ag442
ag288
ag190
ag478
ag1288
ag114
ag208
ag214
ag878
ag762
ag914
ag1970
ag724
ag514
ag1184
ag362
ag246
ag692
ag1580
ag84
ag632
ag1332
ag1766
ag806
ag1792
ag958
ag1504
ag988
ag1388
ag508
ag926
ag1114
ag60
ag786
ag358
ag204
ag186
asS'Ritu Agarwal'
p2045
(lp2046
g1812
ag576
ag662
ag924
ag126
ag478
ag222
ag1260
ag134
ag1476
ag1890
ag804
ag670
ag632
ag702
ag1792
ag1136
ag1790
ag26
ag540
ag1176
ag1490
ag808
ag826
ag1866
ag124
ag1560
ag334
ag780
ag168
ag1802
ag1536
ag1626
ag1832
ag1462
ag1156
ag1010
ag254
ag1594
ag1994
ag1886
ag1636
ag1184
ag178
ag556
ag1492
ag530
ag52
ag1920
ag710
ag120
ag406
ag30
ag1676
ag874
ag16
ag122
ag1496
ag1736
ag118
ag980
ag1046
ag98
ag1630
ag1172
ag1910
ag268
ag1878
ag352
ag1978
ag802
ag286
ag1380
ag864
ag1932
ag684
ag1236
ag1282
ag1198
ag594
ag592
ag696
ag172
ag1356
ag854
ag1864
ag194
ag674
ag1772
ag1286
ag392
ag1898
ag1028
ag1308
ag1224
ag182
ag882
ag1188
ag588
ag454
ag914
ag240
ag734
ag1304
ag1672
ag4
ag1774
ag1316
ag2006
ag1546
ag1186
ag1234
ag668
ag1324
ag442
ag2002
ag1300
ag950
ag1230
ag1152
ag940
ag692
ag550
ag322
ag518
ag1038
ag1722
ag1962
ag1052
ag1058
ag414
ag34
ag1974
ag1614
ag760
ag770
ag1154
ag1112
ag1124
ag252
ag1600
ag656
ag1738
ag512
ag1362
ag1544
ag344
ag346
ag114
ag1474
ag1716
ag1826
ag1276
ag92
ag1576
ag496
ag892
ag996
ag1330
ag1892
ag1092
ag1858
ag188
ag682
ag1024
ag700
ag402
ag158
ag824
ag590
ag852
ag922
ag18
ag174
ag1686
ag834
ag212
ag894
ag750
ag902
ag932
ag1202
ag756
ag672
ag432
ag1062
ag584
ag1410
ag1674
ag164
ag72
ag2014
ag522
ag258
ag538
ag1160
ag776
ag528
ag250
ag1590
asS'Michel Gendreau'
p2047
(lp2048
g1398
ag1056
ag1940
ag254
ag750
ag820
ag894
ag756
ag1822
ag680
ag338
ag696
ag534
ag1236
ag896
ag860
ag1014
ag1312
ag156
ag956
ag300
ag2036
ag2006
ag218
ag652
ag752
ag1198
ag808
ag968
ag764
ag526
ag272
ag236
ag1230
ag426
ag1086
ag1332
ag114
ag1386
ag1584
ag1564
ag1740
ag858
ag224
ag870
ag150
ag296
ag1654
ag1634
ag1722
ag494
ag728
ag1030
ag76
ag132
ag1672
ag816
ag466
ag1374
ag446
ag1864
ag1306
ag4
ag1730
ag1636
ag1022
ag38
ag1320
ag1924
ag604
ag1150
ag1792
ag134
ag278
ag1066
ag1268
ag558
ag1786
ag1778
ag1278
ag310
ag1962
ag876
ag856
ag478
ag398
ag770
ag1224
ag1804
ag1540
ag722
ag314
ag1834
ag1860
ag642
ag1182
ag600
ag1568
ag416
ag1624
ag1506
ag1674
ag1964
ag10
ag712
ag40
ag1304
ag286
ag1288
ag60
ag1206
ag510
ag482
ag810
ag1788
ag84
ag1094
ag1124
ag732
ag1356
ag574
ag610
ag838
ag312
ag848
ag1980
ag1012
ag1808
ag1470
ag1504
ag608
ag1010
ag1870
ag1292
ag662
ag1246
ag864
ag1338
ag1078
ag1566
ag1488
ag1694
ag1264
ag120
ag430
ag22
ag198
ag442
ag64
ag1062
ag1820
ag734
ag1880
ag824
ag260
ag1942
ag1828
ag1044
ag72
ag1852
ag1614
ag1114
ag1050
ag692
ag1054
ag34
ag922
ag2000
ag918
ag1532
ag1970
ag366
ag1250
ag42
ag1454
ag12
ag940
ag1744
ag1724
ag420
ag450
ag1316
ag18
ag1456
ag1890
ag230
ag1782
ag1256
ag766
ag1878
ag2012
ag1716
ag1908
ag926
ag1542
ag1260
ag1152
ag164
ag332
a(S'June Lu'
p2049
I17
tp2050
asS'Hsing Kenneth Cheng'
p2051
(lp2052
g972
ag1276
ag542
ag924
ag286
ag1752
ag508
ag1684
ag422
ag568
ag80
ag1226
ag584
ag616
ag1566
ag536
ag420
ag1846
ag520
ag50
ag1320
ag334
ag754
ag1412
ag86
ag1608
ag1410
ag1222
ag748
ag150
ag886
ag1712
ag668
ag1730
ag1324
ag526
ag1340
ag842
ag988
ag58
ag1558
ag940
ag262
ag48
ag1690
ag1278
ag824
ag1866
ag1048
ag1692
ag110
ag630
ag1156
ag1486
ag1174
ag732
ag1290
ag248
ag1934
ag722
ag1450
ag1018
ag1864
ag2028
ag1358
ag828
ag1192
ag812
ag1816
ag1668
ag1270
ag188
ag502
ag986
ag1988
ag1236
ag814
ag1126
ag442
ag276
ag1542
ag242
ag1104
ag1312
ag1524
ag324
ag1676
ag968
ag358
ag926
ag538
ag1462
ag216
ag1956
ag1950
ag664
ag1050
ag660
ag70
ag1150
ag1854
ag270
ag1714
ag274
ag1778
ag160
ag2014
ag834
ag1578
ag1506
ag1332
ag1822
ag1008
ag838
ag1806
ag978
ag1020
ag700
ag136
ag1598
ag1870
ag202
ag1422
ag1632
ag356
ag1190
ag544
ag1548
ag1990
ag1186
ag118
ag318
ag204
ag882
ag1372
ag232
ag816
ag1550
ag1348
ag32
ag74
ag910
ag154
ag1630
ag140
ag970
ag932
ag1710
ag528
ag1722
ag1052
ag1944
ag1810
ag1010
ag1378
ag52
ag1408
ag1274
ag708
ag512
ag14
ag652
ag864
ag684
ag554
ag556
ag1666
ag208
ag1624
ag776
ag1876
ag1442
ag1326
ag1082
ag1250
ag34
ag1724
ag288
ag1282
ag252
ag1510
ag1850
ag1426
ag602
ag1028
ag106
ag1800
ag470
ag552
ag394
ag1772
ag570
ag696
ag1330
ag492
ag1204
ag1046
ag1366
ag706
ag1852
asS'Piet Van Mieghem'
p2053
(lp2054
g1840
ag1218
ag1134
ag300
ag1722
ag964
ag1576
ag898
ag1458
ag1690
ag1112
ag66
ag130
ag922
ag288
ag1634
ag1572
ag332
ag1400
ag440
ag1154
ag1006
ag982
ag1700
ag956
ag1180
ag1174
ag1276
ag32
ag312
ag666
ag1698
ag1538
ag158
ag940
ag1788
ag148
ag634
ag2044
ag936
ag362
ag788
ag1324
ag792
ag1214
ag2028
ag1418
ag1108
ag1790
ag1532
ag1782
ag126
ag196
ag804
ag1564
ag424
ag578
ag1992
ag1286
ag1386
ag722
ag1562
ag1116
ag1334
ag568
ag314
ag766
ag502
ag1374
ag1982
ag92
ag1274
ag1980
ag1190
ag1072
ag1378
ag54
ag740
ag1086
ag660
ag1446
ag1770
ag592
ag1346
ag1330
ag1678
ag328
ag338
ag1884
ag1656
ag968
ag1624
ag1848
ag1692
ag1326
ag1530
ag1816
ag884
ag1296
ag24
ag1238
ag610
ag1484
ag908
ag6
ag888
ag1614
ag1620
ag48
ag258
ag626
ag1988
ag678
ag1450
ag640
ag212
ag1232
ag960
ag1516
ag70
ag278
ag1016
ag832
ag532
ag1664
ag348
ag1824
ag606
ag2006
ag878
ag1584
ag954
ag928
ag1380
ag1328
ag654
ag106
ag1644
ag1472
ag1058
ag676
ag1008
ag1078
ag1964
ag36
ag552
ag1826
ag882
ag1504
ag1038
ag1268
ag1544
ag1062
ag1792
ag914
ag1758
ag452
ag1104
ag1600
ag306
ag486
ag456
ag1358
ag918
ag828
ag1172
ag2036
ag1944
ag1808
ag74
ag1814
ag560
ag906
ag648
ag1610
ag90
ag1796
ag230
ag618
ag2010
ag186
ag758
ag78
ag322
ag1460
ag318
ag1640
ag974
ag1340
ag1846
ag1836
ag1892
ag1406
ag1558
ag1440
ag1312
ag718
ag1968
ag482
ag428
asS'Murat Yuksel'
p2055
(lp2056
g1238
ag1688
ag796
ag224
ag540
ag1594
ag1248
ag1962
ag816
ag160
ag218
ag22
ag1866
ag334
ag666
ag1236
ag244
ag1604
ag2000
ag962
ag1726
ag650
ag1220
ag434
ag368
ag658
ag1534
ag1392
ag862
ag352
ag1138
ag770
ag640
ag142
ag44
ag534
ag452
ag1972
ag942
ag1840
ag668
ag826
ag1760
ag300
ag886
ag1778
ag724
ag1418
ag1120
ag560
ag1710
ag624
ag1402
ag1818
ag234
ag868
ag1094
ag150
ag94
ag1664
ag564
ag412
ag1538
ag988
ag1738
ag38
ag1368
ag1954
ag1352
ag1092
ag2036
ag324
ag638
ag1144
ag702
ag1762
ag1754
ag1098
ag524
ag1800
ag548
ag846
ag1084
ag1214
ag470
ag270
ag1770
ag1982
ag448
ag344
ag438
ag776
ag768
ag1794
ag1438
ag370
ag1934
ag1074
ag1552
ag402
ag1242
ag1968
ag418
ag1198
ag1868
ag1522
ag1410
ag652
ag1960
ag1926
ag1938
ag154
ag284
ag1104
ag1252
ag732
ag750
ag878
ag570
ag320
ag1650
ag1056
ag1516
ag554
ag1682
ag272
ag476
ag1916
ag1640
ag380
ag1882
ag1348
ag682
ag232
ag1370
ag994
ag1342
ag1532
ag464
ag312
ag236
ag436
ag852
ag1006
ag1586
ag1044
ag670
ag1332
ag354
ag676
ag1076
ag1188
ag1786
ag50
ag1152
ag1706
ag118
ag1106
ag130
ag822
ag1376
ag1444
ag874
ag226
ag1386
ag528
ag388
ag1772
ag950
ag596
ag1166
ag600
ag926
ag896
ag1890
ag1304
ag400
ag1886
ag1240
ag414
ag922
ag32
ag1810
ag782
ag598
ag654
ag1930
ag1606
ag704
ag1156
ag112
ag660
ag304
ag1752
ag1712
ag206
ag696
ag96
ag1734
ag568
asS'Hsinchun Chen'
p2057
(lp2058
g98
ag1572
ag410
ag750
ag302
ag1478
ag54
ag1994
ag346
ag1810
ag432
ag944
ag288
ag1750
ag898
ag1152
ag90
ag76
ag1400
ag710
ag660
ag1494
ag1098
ag1144
ag522
ag982
ag1888
ag1638
ag1118
ag1844
ag1340
ag1446
ag352
ag1450
ag2028
ag848
ag466
ag864
ag1510
ag144
ag26
ag1522
ag1606
ag920
ag798
ag1134
ag1402
ag1012
ag1666
ag340
ag1460
ag558
ag116
ag1978
ag1830
ag1102
ag260
ag2044
ag632
ag1116
ag554
ag1942
ag778
ag1264
ag1258
ag172
ag552
ag402
ag286
ag390
ag636
ag1040
ag818
ag156
ag258
ag1560
ag1542
ag264
ag942
ag1836
ag336
ag876
ag1986
ag1132
ag178
ag2026
ag902
ag1530
ag808
ag38
a(S'Dik Lun Lee'
p2059
I51
tp2060
ag1824
ag18
ag1738
ag746
ag1244
ag210
ag1216
ag218
ag1226
ag742
ag1988
ag870
ag1992
ag1182
ag628
ag1420
ag2014
ag1944
ag620
ag968
ag1362
ag122
ag1232
ag348
ag216
ag1376
ag1338
ag312
ag20
ag1174
ag232
ag736
ag1384
ag462
ag914
ag180
ag1740
ag1062
ag236
ag964
ag1500
ag1938
ag1600
ag1054
ag730
ag1372
ag1674
ag58
ag1138
ag1240
ag1350
ag242
ag618
ag1890
ag1498
ag12
ag756
ag1114
ag1700
ag608
ag866
ag1206
ag1780
ag1406
ag1832
ag842
ag362
ag1026
ag108
ag772
ag32
ag1894
ag1028
ag1126
ag518
ag1654
ag1378
ag1056
ag1768
ag1950
ag1656
ag1898
ag846
ag1970
ag562
ag634
ag1662
ag1016
ag530
ag1412
ag586
ag1696
ag1660
ag134
ag762
ag686
ag926
ag1918
ag1616
ag62
ag1776
ag186
ag984
ag972
ag584
ag36
ag1688
ag1862
ag674
asS'Gang Li'
p2061
(lp2062
g1084
ag1172
ag120
ag1378
ag1990
ag1076
ag1114
ag18
ag506
ag1878
ag484
ag1714
ag922
ag686
ag1306
ag1820
ag1016
ag2002
ag1964
ag418
ag658
ag1462
ag208
ag974
ag1832
ag928
ag826
ag1974
ag458
ag1498
ag1012
ag1872
ag644
ag436
ag660
ag1430
ag988
ag646
ag94
ag526
ag1040
ag1252
ag1534
ag522
ag972
ag1492
ag1364
ag278
ag1052
ag1562
ag1638
ag1258
ag1008
ag1916
ag1500
ag480
ag20
ag594
ag764
ag1414
ag1050
ag932
ag178
ag1366
ag1458
ag476
ag126
ag1042
ag1222
ag1110
ag1560
ag802
ag1312
ag1664
ag694
ag1372
ag1438
ag134
ag132
ag1180
ag1030
ag1532
ag386
ag1636
ag1692
ag654
ag296
ag348
ag1816
ag744
ag1894
ag24
ag690
ag1774
ag552
ag786
ag1468
ag838
ag510
ag1576
ag250
ag638
ag1906
ag520
ag1694
ag544
ag968
ag172
ag1680
ag444
ag1096
ag998
ag1722
ag2006
ag1446
ag766
ag942
ag1514
ag1988
ag182
ag1132
ag1768
ag1994
ag1502
ag184
ag294
ag674
ag1546
ag1900
ag1928
ag174
ag580
ag808
ag1318
ag156
ag1484
ag680
ag768
ag1924
ag1188
ag702
ag288
ag1672
ag306
ag1342
ag1346
ag470
ag136
ag1870
ag1918
ag900
ag1380
ag88
ag1138
ag1594
ag1146
ag72
ag1098
ag860
ag1358
ag1666
ag1716
ag1588
ag740
ag392
ag1130
ag576
ag1698
ag30
ag1240
ag950
ag270
ag322
ag1392
ag1370
ag616
ag1584
ag986
ag1006
ag1278
ag828
ag1406
ag1178
ag912
ag1642
ag222
ag790
ag692
ag1302
ag1922
ag1810
ag824
ag600
ag12
ag276
ag532
ag910
ag1792
ag1266
ag1548
asS'Fei Wang'
p2063
(lp2064
g574
ag228
ag628
ag516
ag1140
ag580
ag1518
ag1262
ag1318
ag1100
ag1606
ag1546
ag460
ag1378
ag1254
ag176
ag674
ag1384
ag1430
ag1088
ag2004
ag74
ag1148
ag868
ag264
ag936
ag1990
ag1022
ag1918
ag610
ag962
ag928
ag50
ag1266
ag56
ag1808
ag1668
ag788
ag1308
ag1232
ag374
ag1950
ag96
ag614
ag1426
ag1182
ag1304
ag1228
ag2028
ag1566
ag280
ag1362
ag20
ag232
ag362
ag244
ag1008
ag956
ag1370
ag2026
ag1940
ag288
ag1224
ag172
ag1894
ag908
ag268
ag72
ag1774
ag1734
ag1108
ag1576
ag160
ag34
ag1784
ag1260
ag504
ag544
ag690
ag196
ag1342
ag1428
ag606
ag216
ag1124
ag1248
ag598
ag694
ag2060
ag2010
ag324
ag1538
ag1112
ag1714
ag1448
ag924
ag110
ag918
ag1208
ag1910
ag210
ag1024
ag1028
ag114
ag716
ag1926
ag1852
ag1786
ag1256
ag102
ag1358
ag1696
ag1424
ag12
ag880
ag1586
ag1580
ag1060
ag1452
ag1122
ag1458
ag1234
ag1286
ag1552
ag194
ag282
ag1106
ag1970
ag76
ag776
ag1616
ag1410
ag212
ag1496
ag512
ag420
ag1348
ag1020
ag608
ag1980
ag108
ag1964
ag958
ag942
ag1474
ag454
ag148
ag1648
ag1612
ag1866
ag1536
ag448
ag1386
ag1840
ag2050
ag1790
ag122
ag130
ag1494
ag654
ag1946
ag802
ag660
ag1016
ag564
ag546
ag394
ag1188
ag1938
ag1542
ag116
ag1126
ag1046
ag1096
ag988
ag1396
ag1558
ag622
ag468
ag2034
ag1212
ag1334
ag1644
ag1284
ag1540
ag430
ag466
ag1160
ag234
ag646
ag1670
ag66
ag200
ag1992
ag842
ag498
ag260
ag500
ag736
ag860
asS'Patrick Bas'
p2065
(lp2066
g244
ag350
ag48
ag2060
ag316
ag1306
ag1810
ag1994
ag322
ag822
ag440
ag1514
ag1284
ag1564
ag1172
ag1946
ag1710
ag744
ag338
ag1964
ag372
ag1802
ag714
ag220
ag1436
ag1276
ag1348
ag890
ag1202
ag530
ag470
ag486
ag1704
ag1258
ag1776
ag938
ag1952
ag1442
ag522
ag164
ag1938
ag738
ag502
ag1192
ag1890
ag108
ag212
ag390
ag1968
ag776
ag562
ag1680
ag932
ag1532
ag512
ag330
ag1580
ag466
ag716
ag1534
ag142
ag920
ag2004
ag566
ag1412
ag1304
ag698
ag1480
ag746
ag1194
ag1236
ag428
ag1600
ag1598
ag736
ag1292
ag1508
ag1162
ag1002
ag92
ag688
ag684
ag764
ag328
ag592
ag1342
ag1116
ag1404
ag762
ag956
ag1570
ag1640
ag20
ag1732
ag718
ag1892
ag910
ag494
ag1706
ag280
ag406
ag1576
ag1792
ag50
ag1612
ag1914
ag1422
ag1186
ag1452
a(S'Xiang-Yang Li'
p2067
I11
tp2068
ag1944
ag1456
ag1780
ag94
ag990
ag1962
ag1498
ag1660
ag1622
ag408
ag22
ag1134
ag256
ag1740
ag1380
ag56
ag232
ag550
ag974
ag730
ag982
ag306
ag1248
ag1606
ag542
ag694
ag1884
ag202
ag1718
ag834
ag402
ag1272
ag978
ag376
ag696
ag174
ag702
ag1496
ag1212
ag810
ag1510
ag206
ag860
ag1828
ag1250
ag766
ag236
ag1360
ag438
ag234
ag332
ag1032
ag878
ag1702
ag1900
ag88
ag1774
ag482
ag370
ag750
ag454
ag1866
ag58
ag1438
ag856
ag1544
ag1886
ag1252
ag1050
ag1568
ag2002
ag248
ag1648
ag1930
ag1328
ag72
ag638
ag700
ag98
ag588
ag1028
ag1322
ag250
ag1256
ag630
ag1332
ag40
ag348
ag1132
ag214
asS'Stefanos Gritzalis'
p2069
(lp2070
g1138
ag1566
ag338
ag1052
ag1824
ag1490
ag1616
ag1720
ag240
ag1752
ag1812
ag924
ag848
ag178
ag600
ag280
ag1578
ag602
ag472
ag798
ag918
ag726
ag340
ag468
ag1010
ag1412
ag24
ag420
ag1742
ag544
ag1366
ag1472
ag1340
ag1196
ag352
ag1454
ag1162
ag598
ag1746
ag96
ag946
ag52
ag234
ag870
ag1234
ag692
ag1206
ag1122
ag378
ag332
ag1732
ag1674
ag108
ag1902
ag1114
ag1568
ag962
ag2036
ag1968
ag1520
ag822
ag1120
ag82
ag644
ag1172
ag1118
ag66
ag1684
ag1396
ag386
ag184
ag746
ag838
ag2020
ag1086
ag1710
ag1734
ag576
ag1576
ag442
ag532
ag2044
ag134
ag1370
ag1654
ag1368
ag960
ag1864
ag512
ag124
ag402
ag748
ag502
ag774
ag1360
ag770
ag1950
ag1534
ag584
ag1062
ag716
ag552
ag738
ag494
ag1638
ag36
ag368
ag366
ag1682
ag1570
ag154
ag1620
ag12
ag604
ag208
ag408
ag722
ag936
ag388
ag684
ag592
ag434
ag150
ag196
ag1388
ag886
ag1166
ag958
ag1868
ag1050
ag288
ag1140
ag2024
ag1972
ag782
ag702
ag922
ag758
ag1462
ag596
ag1796
ag1328
ag1624
ag688
ag1636
ag1378
ag326
ag824
ag1544
ag516
ag800
ag926
ag974
ag864
ag1602
ag1834
ag1794
ag1586
ag714
ag248
ag1474
ag1304
ag1178
ag892
ag690
ag1716
ag1044
ag718
ag1960
ag296
ag130
ag306
ag1112
ag1356
ag92
ag712
ag1906
ag740
ag536
ag1600
ag570
ag1524
ag616
ag1842
ag1810
ag780
ag1296
ag1888
ag86
ag786
ag730
ag1590
ag428
ag1926
ag304
ag1802
ag1548
ag1270
ag954
ag1894
asS'David C. Yen'
p2071
(lp2072
g1024
ag812
ag550
ag1268
ag358
ag1722
ag634
ag240
ag408
ag1194
ag1172
ag1282
ag1520
ag1554
ag1210
ag1346
ag1578
ag1932
ag810
ag1220
ag1112
ag1278
ag1902
ag1742
ag1854
ag68
ag12
ag570
ag1928
ag762
ag286
ag560
ag1154
ag1576
ag1388
ag1930
ag1128
ag1056
ag506
ag1254
ag56
ag2036
ag172
ag422
ag112
ag1324
ag862
ag372
ag16
ag156
ag1804
ag52
ag370
ag486
ag410
ag1800
ag1764
ag1858
ag510
ag1232
ag1474
ag14
ag186
ag258
ag1870
ag238
ag1594
ag424
ag414
ag712
ag1480
ag1124
ag316
ag1730
ag1922
ag224
ag1180
ag2060
ag908
ag454
ag10
ag702
ag530
ag1356
ag788
ag920
ag124
ag470
ag1732
ag1398
ag1054
ag1086
ag1736
ag1400
ag374
ag1848
ag164
ag686
ag50
ag430
ag1740
ag130
ag324
ag1750
ag1640
ag914
ag1986
ag250
ag1910
ag970
ag434
ag1318
ag2068
ag668
ag830
ag1070
ag1284
ag1182
ag838
ag1150
ag1958
ag924
ag696
ag806
ag1206
ag426
ag80
ag18
ag1630
ag1766
ag1990
ag170
ag884
ag114
ag1634
ag1100
ag706
ag518
ag1460
ag1236
ag1726
ag1916
ag1908
ag490
ag1454
ag98
ag1846
ag1044
ag1208
ag296
ag1832
ag1392
ag1164
ag1434
ag1716
ag852
ag154
ag436
ag564
ag1864
ag1712
ag692
ag1760
ag1770
ag1588
ag232
ag936
ag1720
ag1724
ag904
ag880
ag1028
ag734
ag494
ag1574
ag1610
ag1330
ag1148
ag552
ag782
ag652
ag740
ag1192
ag1036
ag1342
ag1618
ag744
ag62
ag1786
ag290
ag972
ag1376
ag204
ag722
ag1114
ag1386
ag1088
ag142
ag474
ag192
asS'Pedro Garc\xc3\xada L\xc3\xb3pez'
p2073
(lp2074
g96
ag1060
ag962
ag396
ag1542
ag1010
ag1318
ag774
ag874
ag700
ag982
ag1236
ag110
ag1042
ag84
ag126
ag1934
ag478
ag990
ag364
ag772
ag576
ag1854
ag1944
ag128
ag1822
ag896
ag278
ag316
ag1918
ag468
ag1096
ag1370
ag550
ag1712
ag1286
ag456
ag14
ag1672
ag1090
ag2024
ag716
ag804
ag388
ag1038
ag1076
ag1190
ag1578
ag1928
ag1062
ag872
ag1312
ag1160
ag318
ag1252
ag1900
ag1592
ag272
ag330
ag1046
ag1722
ag348
ag482
ag1298
ag1104
ag1234
ag212
ag1660
ag2010
ag522
ag268
ag44
ag966
ag1530
ag518
ag1990
ag66
ag802
ag228
ag1384
ag988
ag12
ag1226
ag1910
ag138
ag1668
ag42
ag64
ag1044
ag718
ag1846
ag1992
ag1154
ag1124
ag1770
ag356
ag920
ag130
ag1158
ag56
ag646
ag824
ag1512
ag306
ag1584
ag1966
ag1614
ag786
ag334
ag1262
ag2050
ag1842
ag296
ag1720
ag1432
ag350
ag226
ag1716
ag1612
ag860
ag150
ag1920
ag1594
ag1608
ag1812
ag862
ag542
ag1766
ag1162
ag808
ag832
ag1582
ag1184
ag1538
ag1240
ag1696
ag1456
ag1982
ag1956
ag800
ag1110
ag1974
ag472
ag1434
ag1224
ag1794
ag1860
ag1880
ag1416
ag1064
ag1830
ag244
ag1198
ag2014
ag784
ag1526
ag548
ag1790
ag1756
ag1946
ag1106
ag2020
ag92
ag2060
ag1804
ag1916
ag232
ag362
ag1176
ag532
ag1758
ag1786
ag986
ag1316
ag1808
ag870
ag868
ag546
ag1254
ag572
ag1684
ag530
ag312
ag880
ag1894
ag1748
ag1866
ag1598
ag1548
ag1534
ag612
ag76
ag1844
ag310
ag1460
ag670
ag642
ag2000
ag838
ag1890
asS'Gauss M. Cordeiro'
p2075
(lp2076
g1100
ag142
ag36
ag1274
ag1938
ag1548
ag1760
ag1650
ag1882
ag356
ag1094
ag1312
ag1606
ag932
ag1832
ag1176
ag1612
ag54
ag506
ag1010
ag594
ag1276
ag1826
ag674
ag412
ag852
ag1206
ag710
ag1538
ag502
ag1446
ag1796
ag1642
ag1830
ag2000
ag1278
ag792
ag154
ag112
ag1942
ag2020
ag500
ag1388
ag220
ag98
ag1106
ag1958
ag1588
ag1654
ag898
ag2050
ag1102
ag1030
ag1788
ag964
ag630
ag1210
ag1086
ag572
ag958
ag602
ag910
ag1730
ag922
ag1050
ag1750
ag1228
ag1202
ag1982
ag196
ag1782
ag1104
ag150
ag1498
ag1776
ag1898
ag1240
ag890
ag128
ag174
ag838
ag1784
ag206
ag966
ag1438
ag462
ag1454
ag1586
ag1298
ag1466
ag64
ag374
ag1402
ag1424
ag640
ag70
ag578
ag1932
ag1370
ag568
ag1444
ag612
ag794
ag2034
ag1684
ag266
ag1868
ag946
ag1894
ag980
ag1702
ag1652
ag310
ag1186
ag1770
ag810
ag1508
ag706
ag806
ag1610
ag1170
ag208
ag362
ag1464
ag1928
ag1692
ag1344
ag1626
ag1134
ag1890
ag1380
ag802
ag48
ag876
ag1638
ag1040
ag1774
ag204
ag648
ag1372
ag1470
ag4
ag2010
ag1598
ag1098
ag260
ag698
ag1148
ag1518
ag604
ag1740
ag422
ag458
ag1738
ag1334
ag1570
ag1840
ag528
ag638
ag1880
ag518
ag1852
ag1386
ag176
ag1292
ag304
ag1766
ag770
ag410
ag1316
ag744
ag492
ag1412
ag776
ag908
ag1800
ag1834
ag872
ag1162
ag1950
ag1342
ag1036
ag1426
ag130
ag1854
ag1496
ag608
ag264
ag80
ag480
ag1238
ag1920
ag1746
ag886
ag1786
ag1670
ag1268
ag842
ag726
ag686
asS'Fabio Martignon'
p2077
(lp2078
g1826
ag68
ag1028
ag86
ag1132
ag1462
ag764
ag522
ag126
ag56
ag1398
ag128
ag724
ag826
ag1544
ag1916
ag1460
ag1464
ag1930
ag478
ag754
ag912
ag268
ag944
ag264
ag582
ag1920
ag1020
ag1766
ag410
ag1074
ag1708
ag742
ag1232
ag1428
ag920
ag94
ag1858
ag684
ag1082
ag1278
ag1980
ag884
ag1256
ag1702
ag1790
ag2034
ag1478
ag1268
ag1778
ag1208
ag560
ag1118
ag900
ag586
ag1292
ag938
ag830
ag792
ag1080
ag856
ag356
ag778
ag1816
ag316
ag228
ag1090
ag2050
ag1404
ag1414
ag1846
ag282
ag1358
ag1848
ag296
ag1454
ag1528
ag460
ag1762
ag302
ag1620
ag592
ag1524
ag50
ag1932
ag200
ag1050
ag130
ag678
ag1994
ag1314
ag960
ag1812
ag838
ag790
ag756
ag556
ag1144
ag1914
ag1722
ag2002
ag664
ag1990
ag370
ag1640
ag974
ag1584
ag54
ag22
ag1642
ag876
ag1970
ag1338
ag1582
ag1262
ag376
ag1466
ag1680
ag214
ag1772
ag188
ag1212
ag1016
ag2044
ag1072
ag600
ag2028
ag1448
ag1704
ag70
ag2010
ag1536
ag836
ag4
ag888
ag1440
ag1098
ag956
ag236
ag674
ag1550
ag1940
ag1040
ag1234
ag668
ag752
ag1906
ag996
ag1216
ag804
ag1988
ag1386
ag1950
ag1516
ag170
ag828
ag1066
ag1952
ag508
ag952
ag1592
ag432
ag758
ag446
ag1502
ag760
ag406
ag1910
ag208
ag886
ag1092
ag1894
ag1618
ag26
ag822
ag1270
ag1150
ag710
ag800
ag148
ag680
ag78
ag1046
ag1396
ag52
ag1928
ag1138
ag210
ag1068
ag332
ag248
ag782
ag6
ag122
ag138
ag1714
ag530
ag650
ag218
ag894
asS'Luciano Lenzini'
p2079
(lp2080
g82
ag1770
ag900
ag696
ag1062
ag1922
ag180
ag1090
ag578
ag264
ag634
ag1076
ag1898
ag1776
ag12
ag1258
ag2010
ag1526
ag820
ag1012
ag994
ag1268
ag1002
ag238
ag1252
ag1722
ag66
ag208
ag1814
ag1254
ag1238
ag750
ag698
ag572
ag1486
ag1990
ag1098
ag644
ag640
ag352
ag1778
ag1284
ag1520
ag1360
ag1588
ag6
ag1196
ag708
ag1082
ag1068
ag522
ag1438
ag1400
ag1908
ag1402
ag410
ag1822
ag1050
ag656
ag1968
ag802
ag562
ag618
ag1516
ag502
ag232
ag1686
ag24
ag1132
ag616
ag786
ag1606
ag878
ag1176
ag424
ag1736
ag1152
ag1900
ag314
ag130
ag1760
ag744
ag1462
ag598
ag1120
ag784
ag730
ag972
ag924
ag974
ag112
ag1156
ag942
ag1248
ag1148
ag1040
ag1974
ag1960
ag110
ag1270
ag406
ag128
ag636
ag1538
ag1866
ag1888
ag318
ag268
ag638
ag1470
ag308
ag1466
ag1802
ag1782
ag614
ag776
ag1696
ag1460
ag2042
ag1174
ag800
ag950
ag918
ag1454
ag1118
ag482
ag2060
ag254
ag294
ag326
ag946
ag496
ag1032
ag1412
ag166
ag1408
ag1852
ag1618
ag1180
ag156
ag1674
ag1280
ag1136
ag1746
ag868
ag2000
ag1350
ag348
ag762
ag738
ag874
ag420
ag454
ag388
ag1980
ag704
ag220
ag1688
ag1816
ag1628
ag518
ag86
ag660
ag904
ag970
ag1112
ag1052
ag1818
ag80
ag1892
ag1294
ag1222
ag70
ag484
ag724
ag1552
ag462
ag330
ag590
ag922
ag272
ag1704
ag1202
ag204
ag1748
ag1232
ag1524
ag1166
ag1668
ag1640
ag1730
ag1048
ag200
ag594
ag1930
ag1650
ag1450
ag1786
ag1590
ag980
asS'Vicent Pla'
p2081
(lp2082
g822
ag1514
ag386
ag1672
ag348
ag512
ag1880
ag1556
ag1656
ag152
ag1680
ag346
ag282
ag924
ag820
ag716
ag126
ag356
ag982
ag310
ag1632
ag470
ag768
ag372
ag680
ag1678
ag772
ag264
ag994
ag1308
ag526
ag1066
ag1602
ag1020
ag904
ag1990
ag1928
ag1226
ag2024
ag358
ag520
ag478
ag1600
ag70
ag2068
ag452
ag1498
ag1758
ag550
ag462
ag594
ag914
ag340
ag1474
ag1032
ag1200
ag766
ag1502
ag2000
ag1744
ag966
ag950
ag2044
ag572
ag1746
ag1842
ag514
ag1282
ag900
ag1674
ag1912
ag1806
ag1526
ag1988
ag542
ag580
ag608
ag922
ag354
ag658
ag1280
ag1570
ag1824
ag1086
ag328
ag226
ag1390
ag314
ag1838
ag1182
ag620
ag788
ag1662
ag1694
ag504
ag164
ag1862
ag1576
ag1986
ag180
ag1854
ag22
ag1248
ag1486
ag932
ag1956
ag728
ag654
ag1802
ag1270
ag198
ag568
ag1266
ag670
ag1392
ag698
ag1064
ag600
ag326
ag546
ag988
ag1604
ag544
ag810
ag1690
ag168
ag1808
ag284
ag2012
ag794
ag1532
ag20
ag244
ag1626
ag36
ag1408
ag1666
ag1352
ag626
ag1898
ag776
ag1872
ag958
ag1070
ag1098
ag940
ag252
ag64
ag2014
ag1076
ag1138
ag1908
ag300
ag1030
ag1472
ag1208
ag1470
ag818
ag1534
ag1748
ag1252
ag26
ag1466
ag1810
ag1224
ag702
ag1146
ag1750
ag1428
ag826
ag1538
ag590
ag460
ag842
ag1054
ag298
ag484
ag676
ag1858
ag136
ag586
ag172
ag1892
ag556
ag1238
ag124
ag122
ag338
ag1942
ag610
ag1616
ag1078
ag434
ag1366
ag1340
ag1654
ag690
ag1140
ag18
ag450
asS'Azuraliza Abu Bakar'
p2083
(lp2084
g1628
ag1736
ag1894
ag772
ag1346
ag1364
ag1378
ag290
ag766
ag1590
ag1684
ag1630
ag618
ag698
ag178
ag466
ag202
ag1414
ag1008
ag610
ag814
ag1170
ag1476
ag1742
ag414
ag106
ag594
ag912
ag1458
ag1542
ag1494
ag1176
ag1274
ag2028
ag1712
ag832
ag424
ag1092
ag236
ag1934
ag1370
ag1970
ag560
ag1222
ag390
ag474
ag206
ag188
ag664
ag1512
ag1214
ag964
ag294
ag162
ag624
ag1722
ag340
ag992
ag386
ag1150
ag1576
ag1764
ag1112
ag136
ag1388
ag1528
ag880
ag974
ag1726
ag1368
ag48
ag2004
ag1006
ag1922
ag934
ag890
ag872
ag2002
ag1912
ag932
ag70
ag838
ag542
ag1098
ag1342
ag1464
ag378
ag432
ag1570
ag1042
ag154
ag1322
ag922
ag1410
ag244
ag166
ag1014
ag646
ag450
ag1116
ag1870
ag1760
ag1206
ag1104
ag1340
ag258
ag1426
ag1144
ag858
ag886
ag962
ag1852
ag696
ag46
ag1444
ag748
ag410
ag1096
ag708
ag1254
ag918
ag1232
ag654
ag2036
ag372
ag1816
ag86
ag54
ag1228
ag1442
ag534
ag826
ag22
ag1492
ag1118
ag700
ag546
ag198
ag1418
ag834
ag752
ag1608
ag1304
ag1696
ag1334
ag1366
ag284
ag1186
ag1700
ag8
ag1484
ag2000
ag6
ag1498
ag326
ag272
ag1136
ag84
ag438
ag1786
ag1806
ag1902
ag1532
ag354
ag380
ag4
ag1582
ag1724
ag1030
ag1302
ag1300
ag896
ag1352
ag702
ag988
ag1646
ag1320
ag1250
ag666
ag1194
ag522
ag496
ag242
ag572
ag174
ag1692
ag1820
ag464
ag1892
ag1814
ag1326
ag56
ag1758
ag1156
ag1128
ag540
ag1278
ag520
ag1804
ag804
asS'Jie Chen'
p2085
(lp2086
g1278
ag276
ag1812
ag358
ag356
ag1438
ag176
ag1276
ag1782
ag1368
ag4
ag922
ag1084
ag1634
ag968
ag908
ag1690
ag1606
ag1284
ag396
ag744
ag1922
ag1754
ag858
ag152
ag662
ag626
ag576
ag1038
ag422
ag1248
ag1548
ag1104
ag1502
ag1478
ag596
ag1256
ag1910
ag1016
ag746
ag202
ag458
ag2014
ag2050
ag1044
ag1402
ag284
ag232
ag1414
ag1148
ag1264
ag932
ag1644
ag1380
ag1334
ag1094
ag1286
ag528
ag624
ag1018
ag1226
ag1068
ag260
ag854
ag170
ag1116
ag1052
ag812
ag544
ag910
ag1304
ag1390
ag734
ag752
ag394
ag1004
ag916
ag1662
ag310
ag1756
ag1902
ag656
ag1908
ag722
ag1918
ag636
ag1220
ag30
ag802
ag1394
ag1132
ag1330
ag758
ag1092
ag918
ag1562
ag1528
ag1130
ag1242
ag1166
ag1788
ag514
ag82
ag934
ag1034
ag1448
ag1424
ag1630
ag1446
ag828
ag634
ag524
ag138
ag790
ag468
ag200
ag1968
ag1688
ag1058
ag1868
ag1808
ag1524
ag890
ag1102
ag1584
ag526
ag1526
ag1300
ag1604
ag1592
ag954
ag1978
ag974
ag2000
ag1082
ag1710
ag1306
ag962
ag278
ag1162
ag1182
ag1784
ag1646
ag1880
ag836
ag1686
ag820
ag1222
ag1114
ag54
ag926
ag1146
ag1542
ag1676
ag218
ag102
ag1900
ag980
ag198
ag24
ag806
ag156
ag1986
ag86
ag1636
ag1158
ag1816
ag2042
ag312
ag386
ag266
ag1610
ag242
ag2002
ag378
ag1074
ag92
ag334
ag1638
ag476
ag204
ag1260
ag684
ag1290
ag1228
ag600
ag786
ag60
ag614
ag804
ag1098
ag1842
ag448
ag1576
ag1720
ag1698
ag1180
ag642
ag862
ag130
asS'Winston Khoon Guan Seah'
p2087
(lp2088
g1950
ag752
ag150
ag96
ag1314
ag1494
ag1502
ag1238
ag1146
ag1428
ag588
ag344
ag1858
ag448
ag502
ag1126
ag1036
ag642
ag1388
ag1676
ag248
ag38
ag304
ag1030
ag1260
ag1338
ag1440
ag900
ag412
ag1714
ag1618
ag622
ag1408
ag230
ag1582
ag1516
ag10
ag1884
ag1824
ag1620
ag1160
ag1096
ag1580
ag1008
ag1626
ag290
ag130
ag842
ag360
ag962
ag84
ag114
ag654
ag1902
ag1020
ag60
ag1318
ag2024
ag156
ag12
ag184
ag1530
ag66
ag892
ag24
ag1566
ag830
ag192
ag362
ag1242
ag1842
ag308
ag1436
ag944
ag744
ag30
ag396
ag124
ag1954
ag1150
ag710
ag78
ag1908
ag446
ag174
ag994
ag1876
ag126
ag336
ag394
ag32
ag88
ag620
ag1854
ag1642
ag476
ag386
ag1766
ag1748
ag864
ag816
ag1784
ag1426
ag1552
ag1432
ag1406
ag876
ag1344
ag1190
ag758
ag1066
ag374
ag630
ag330
ag260
ag1202
ag738
ag468
ag1484
ag1844
ag784
ag1770
ag2006
ag364
ag822
ag780
ag1116
ag916
ag1860
ag498
ag1670
ag544
ag602
ag208
ag1304
ag828
ag254
ag1084
ag1760
ag1612
ag530
ag1028
ag1244
ag458
ag1466
ag726
ag1666
ag484
ag272
ag1602
ag868
ag888
ag258
ag810
ag1050
ag1782
ag1226
ag426
ag846
ag1112
ag496
ag194
ag560
ag798
ag536
ag1832
ag92
ag1420
ag938
ag1554
ag1794
ag354
ag920
ag1246
ag1490
ag1376
ag438
ag464
ag1252
ag1588
ag1826
ag1172
ag1274
ag948
ag332
ag56
ag990
ag1082
ag1836
ag736
ag1980
ag1880
ag1758
ag746
ag854
ag1078
ag160
ag1872
ag70
ag1786
asS'Lisong Xu'
p2089
(lp2090
g958
ag1694
ag634
ag968
ag942
ag1940
ag244
ag812
ag1050
ag640
ag1470
ag1474
ag1638
ag1924
ag972
ag508
ag536
ag912
ag964
ag2050
ag662
ag86
ag556
ag1576
ag1742
ag128
ag70
ag1582
ag514
ag1750
ag1240
ag368
ag756
ag688
ag1052
ag1506
ag566
ag1286
ag848
ag1848
ag60
ag872
ag28
ag1076
ag1906
ag1586
ag798
ag1476
ag38
ag1492
ag786
ag1442
ag1594
ag108
ag444
ag234
ag1268
ag1556
ag584
ag100
ag692
ag344
ag810
ag1064
ag1328
ag740
ag480
ag154
ag1044
ag1698
ag1744
ag1458
ag1682
ag742
ag254
ag1786
ag1920
ag504
ag646
ag1464
ag1512
ag796
ag1784
ag1290
ag1288
ag1692
ag1572
ag1942
ag814
ag1096
ag1398
ag898
ag390
ag416
ag250
ag1800
ag1438
ag2010
ag2028
ag1184
ag642
ag1860
ag482
ag346
ag708
ag460
ag1214
ag1790
ag312
ag738
ag242
ag1610
ag134
ag1530
ag622
ag496
ag66
ag1602
ag994
ag2014
ag800
ag914
ag230
ag16
ag252
ag1760
ag676
ag1228
ag854
ag1130
ag1770
ag1196
ag522
ag200
ag1624
ag1148
ag1314
ag802
ag1922
ag1778
ag1272
ag1928
ag864
ag158
ag596
ag844
ag2036
ag1598
ag778
ag1206
ag1710
ag1254
ag1758
ag436
ag1686
ag1674
ag1858
ag1056
ag636
ag1734
ag984
ag98
ag238
ag1606
ag402
ag1172
ag1026
ag892
ag862
ag1344
ag616
ag520
ag1292
ag1650
ag1684
ag1142
ag440
ag746
ag266
ag978
ag268
ag304
ag1082
ag1256
ag1820
ag386
ag1104
ag1062
ag422
ag528
ag684
ag88
ag300
ag710
ag1640
ag1434
ag764
ag1830
ag560
ag194
asS'Tao Gu'
p2091
(lp2092
g110
ag486
ag1076
ag296
ag1330
ag116
ag834
ag234
ag1610
ag1088
ag524
ag1470
ag1162
ag1854
ag602
ag1178
ag770
ag1954
ag178
ag934
ag1122
ag1876
ag972
ag230
ag1120
ag578
ag1862
ag160
ag140
ag1564
ag444
ag874
ag378
ag588
ag1412
ag960
ag1900
ag644
ag1870
ag276
ag1364
ag1450
ag1224
ag134
ag608
ag74
ag952
ag190
ag898
ag340
ag1520
ag52
ag1778
ag1246
ag1638
ag1788
ag506
ag1090
ag708
ag968
ag420
ag322
ag1268
ag1260
ag1020
ag1232
ag1846
ag852
ag194
ag166
ag1252
ag2000
ag1554
ag1004
ag244
ag430
ag336
ag1652
ag556
ag1548
ag1796
ag728
ag1540
ag1366
ag164
ag1438
ag1190
ag1084
ag432
ag1002
ag1080
ag986
ag1166
ag1574
ag1944
ag906
ag738
ag100
ag292
ag872
ag112
ag1508
ag1110
ag982
ag364
ag72
ag286
ag592
ag1714
ag1956
ag1234
ag1718
ag1566
ag1420
ag1932
ag60
ag1644
ag1386
ag1480
ag1488
ag1716
ag282
ag1838
ag428
ag1468
ag1152
ag572
ag1794
ag1584
ag1424
ag510
ag208
ag1236
ag1850
ag1100
ag442
ag780
ag1598
ag1818
ag1670
ag890
ag248
ag1270
ag916
ag1210
ag1286
ag1096
ag320
ag758
ag782
ag1302
ag1680
ag1458
ag1908
ag888
ag474
ag638
ag1308
ag692
ag1338
ag304
ag454
ag1034
ag1994
ag1700
ag848
ag576
ag1444
ag1668
ag1028
ag1494
ag718
ag1082
ag1186
ag632
ag1318
ag316
ag946
ag334
ag1408
ag904
ag1742
ag26
ag396
ag1920
ag850
ag202
ag1134
ag86
ag1056
ag1124
ag152
ag1250
ag1890
ag424
ag2020
ag384
ag96
ag104
ag1942
asS'Serge Fdida'
p2093
(lp2094
g1708
ag712
ag1066
ag242
ag284
ag238
ag1546
ag810
ag48
ag670
ag1324
ag858
ag1122
ag1428
ag122
ag1808
ag458
ag1974
ag908
ag60
ag224
ag410
ag944
ag1076
ag1790
ag1796
ag198
ag868
ag638
ag1274
ag1372
ag290
ag1358
ag1218
ag484
ag1952
ag1090
ag460
ag530
ag1994
ag114
ag992
ag1270
ag1714
ag1702
ag1746
ag506
ag772
ag1848
ag310
ag438
ag1922
ag164
ag1772
ag1362
ag1838
ag204
ag1292
ag692
ag1258
ag1360
ag708
ag22
ag462
ag1792
ag996
ag1538
ag1574
ag812
ag776
ag304
ag922
ag1114
ag158
ag1460
ag104
ag210
ag400
ag1208
ag1920
ag1640
ag1756
ag250
ag1508
ag148
ag1476
ag1968
ag434
ag1616
ag1478
ag1020
ag1284
ag864
ag68
ag1542
ag140
ag730
ag442
ag1672
ag940
ag1590
ag1528
ag814
ag182
ag2060
ag1356
ag784
ag6
ag754
ag314
ag1276
ag232
ag1352
ag432
ag334
ag1124
ag90
ag448
ag1064
ag212
ag398
ag660
ag508
ag258
ag1212
ag414
ag1944
ag1954
ag1696
ag1924
ag1092
ag1664
ag950
ag1614
ag370
ag12
ag246
ag980
ag1830
ag1988
ag1572
ag1132
ag600
ag1414
ag856
ag298
ag928
ag262
ag64
ag896
ag498
ag1294
ag260
ag982
ag1110
ag350
ag348
ag1378
ag524
ag216
ag1986
ag964
ag226
ag1524
ag340
ag590
ag56
ag1430
ag532
ag1502
ag24
ag1450
ag1932
ag386
ag526
ag1134
ag1468
ag898
ag1004
ag396
ag1034
ag1858
ag1552
ag316
ag782
ag1408
ag836
ag134
ag1330
ag1734
ag854
ag1992
ag1374
ag176
ag446
ag1474
ag308
ag248
ag968
ag1044
asS'Quan Z. Sheng'
p2095
(lp2096
g1934
ag1572
ag856
ag1768
ag330
ag1146
ag408
ag1458
ag1792
ag1892
ag1260
ag936
ag190
ag426
ag1288
ag1556
ag516
ag480
ag620
ag984
ag1916
ag1930
ag642
ag1524
ag1332
ag1078
ag2004
ag1842
ag112
ag706
ag1840
ag92
ag574
ag868
ag824
ag1528
ag1266
ag724
ag1298
ag922
ag742
ag1326
ag1488
ag88
ag132
ag1652
ag1094
ag1574
ag328
ag638
ag1656
ag336
ag1744
ag1436
ag1324
ag1084
ag518
ag1812
ag530
ag752
ag1198
ag1236
ag850
ag472
ag958
ag118
ag26
ag624
ag890
ag946
ag1644
ag1126
ag1092
ag74
ag704
ag2020
ag1546
ag968
ag784
ag184
ag854
ag654
ag2014
ag870
ag1308
ag1918
ag1520
ag690
ag1424
ag1354
ag820
ag962
ag874
ag272
ag424
ag34
ag522
ag1218
ag1388
ag2036
ag866
ag432
ag1232
ag544
ag966
ag1650
ag1682
ag1594
ag506
ag1600
ag974
ag2012
ag884
ag1140
ag964
ag1462
ag818
ag1058
ag298
ag1566
ag774
ag1300
ag1498
ag1006
ag160
ag2044
ag756
ag60
ag1922
ag218
ag1992
ag1270
ag982
ag356
ag66
ag36
ag554
ag860
ag1640
ag1060
ag314
ag648
ag1864
ag1114
ag1268
ag594
ag136
ag1894
ag606
ag1032
ag828
ag944
ag1582
ag906
ag1672
ag570
ag528
ag1208
ag832
ag274
ag858
ag1818
ag228
ag2000
ag2032
ag680
ag1028
ag1222
ag2010
ag710
ag678
ag20
ag316
ag748
ag1748
ag1278
ag434
ag200
ag1968
ag208
ag30
ag380
ag1066
ag714
ag1774
ag14
ag1686
ag1998
ag410
ag392
ag1540
ag1196
ag1616
ag604
ag1654
ag880
ag698
ag1152
ag438
ag1044
asS'Yunhao Liu'
p2097
(lp2098
g530
ag590
ag1738
ag730
ag288
ag1934
ag668
ag1014
ag740
ag1340
ag710
ag544
ag744
ag1422
ag600
ag120
ag344
ag208
ag278
ag1344
ag884
ag1806
ag1726
ag1570
ag1944
ag2006
ag1890
ag496
ag446
ag580
ag768
ag576
ag1758
ag1950
ag116
ag840
ag1512
ag1292
ag1510
ag1016
ag1284
ag842
ag654
ag450
ag1142
ag1842
ag1694
ag536
ag1184
ag78
ag206
ag1392
ag618
ag812
ag996
ag1342
ag10
ag1328
ag132
ag1000
ag770
ag834
ag1724
ag1922
ag168
ag844
ag248
ag1312
ag924
ag1250
ag1720
ag818
ag506
ag216
ag1370
ag1860
ag1790
ag1024
ag942
ag2068
ag1244
ag478
ag822
ag1892
ag2028
ag1546
ag968
ag326
ag60
ag386
ag1916
ag760
ag1816
ag1414
ag836
ag186
ag1148
ag492
ag1158
ag1396
ag1664
ag726
ag1280
ag764
ag848
ag418
ag1784
ag1182
ag1424
ag1518
ag1762
ag804
ag1006
ag1128
ag1362
ag256
ag448
ag112
ag1920
ag1876
ag1010
ag1320
ag1520
ag1402
ag16
ag606
ag1376
ag456
ag1034
ag204
ag1204
ag958
ag550
ag398
ag964
ag92
ag1194
ag772
ag228
ag1406
ag614
ag1572
ag498
ag224
ag1742
ag554
ag1500
ag196
ag896
ag1992
ag1442
ag296
ag1122
ag1106
ag1416
ag470
ag1680
ag1980
ag724
ag560
ag20
ag244
ag596
ag1878
ag430
ag368
ag1298
ag1960
ag1544
ag500
ag648
ag14
ag336
ag126
ag1228
ag1908
ag1590
ag722
ag1872
ag656
ag2014
ag1988
ag920
ag1538
ag1008
ag616
ag1302
ag632
ag660
ag444
ag1066
ag852
ag1630
ag490
ag346
ag1706
ag612
ag36
ag662
ag1906
asS'Romit Roy Choudhury'
p2099
(lp2100
g1834
ag564
ag1794
ag1124
ag1428
ag580
ag924
ag352
ag1138
ag1656
ag452
ag1576
ag58
ag406
ag4
ag1348
ag1892
ag50
ag1468
ag1316
ag1420
ag378
ag1684
ag1300
ag1886
ag2044
ag1720
ag1236
ag708
ag220
ag1426
ag1820
ag668
ag1762
ag1068
ag1284
ag654
ag1366
ag1248
ag346
ag234
ag560
ag48
ag1110
ag1732
ag1354
ag448
ag204
ag1402
ag1766
ag1868
ag1552
ag724
ag644
ag936
ag1606
ag1522
ag290
ag1992
ag98
ag478
ag488
ag414
ag710
ag1094
ag194
ag994
ag1398
ag944
ag2014
ag1644
ag500
ag712
ag1810
ag1578
ag832
ag1162
ag814
ag428
ag1278
ag1106
ag1474
ag1048
ag918
ag278
ag1432
ag1166
ag1790
ag16
ag1566
ag1982
ag1994
ag1958
ag1952
ag864
ag1436
ag1808
ag128
ag648
ag744
ag682
ag672
ag1404
ag714
ag1730
ag904
ag906
ag524
ag1620
ag1002
ag1880
ag150
ag1456
ag1214
ag350
ag1622
ag216
ag318
ag1022
ag1234
ag1736
ag1980
ag1504
ag686
ag264
ag1202
ag1280
ag892
ag1028
ag1924
ag1228
ag1108
ag1250
ag908
ag1746
ag1164
ag1906
ag698
ag434
ag1734
ag520
ag506
ag2012
ag730
ag1632
ag1822
ag852
ag364
ag1630
ag1342
ag136
ag1510
ag962
ag1638
ag272
ag2028
ag76
ag762
ag328
ag692
ag1902
ag38
ag112
ag1442
ag1152
ag338
ag1314
ag1052
ag1614
ag368
ag1600
ag1602
ag242
ag1054
ag632
ag1090
ag1270
ag1676
ag1282
ag1454
ag882
ag808
ag482
ag1372
ag1206
ag1330
ag782
ag1060
ag966
ag582
ag306
ag1322
ag738
ag440
ag670
ag454
ag978
ag1662
ag1480
ag1682
asS'Antonio F. G\xc3\xb3mez-Skarmeta'
p2101
(lp2102
g4
ag1580
ag716
ag1962
ag488
ag1152
ag902
ag1896
ag1808
ag1004
ag664
ag6
ag1746
ag2000
ag1204
ag1490
ag60
ag1156
ag500
ag916
ag1464
ag1946
ag432
ag1114
ag1982
ag1396
ag2026
ag1442
ag1316
ag1750
ag1032
ag1594
ag1994
ag1592
ag1196
ag1454
ag1070
ag516
ag2042
ag232
ag1320
ag644
ag1686
ag1348
ag370
ag638
ag2060
ag1134
ag426
ag868
ag1704
ag746
ag1680
ag1876
ag698
ag912
ag1040
ag1944
ag1166
ag512
ag128
ag618
ag2006
ag1696
ag954
ag1128
ag266
ag286
ag86
ag1130
ag742
ag566
ag990
ag1934
ag1410
ag694
ag294
ag114
ag988
ag2024
ag126
ag1438
ag502
ag766
ag712
ag590
ag1986
ag998
ag600
ag1466
ag1030
ag226
ag1830
ag522
ag724
ag1434
ag12
ag1614
ag858
ag532
ag1160
ag34
ag1718
ag1462
ag1296
ag268
ag770
ag570
ag1586
ag282
ag422
ag1112
ag662
ag1406
ag164
ag116
ag20
ag1486
ag1558
ag1600
ag1078
ag1560
ag330
ag666
ag714
ag1748
ag1404
ag616
ag1722
ag1094
ag1432
ag1308
ag1178
ag1726
ag160
ag658
ag1564
ag248
ag1646
ag1136
ag2032
ag18
ag950
ag1302
ag1222
ag1608
ag204
ag1506
ag1480
ag926
ag814
ag752
ag442
ag974
ag194
ag1288
ag598
ag242
ag434
ag322
ag14
ag668
ag886
ag1162
ag1972
ag842
ag152
ag1838
ag228
ag1314
ag1528
ag1710
ag730
ag1772
ag774
ag1212
ag960
ag1806
ag62
ag1530
ag1270
ag576
ag1382
ag82
ag558
ag1670
ag1626
ag1910
ag246
ag1832
ag458
ag1306
ag788
ag478
ag142
ag1150
ag1372
ag1656
ag1568
ag1000
asS'Man-Lai Tang'
p2103
(lp2104
g188
ag668
ag1758
ag1742
ag1662
ag80
ag1324
ag1432
ag1916
ag1440
ag2000
ag1872
ag712
ag72
ag1594
ag1750
ag166
ag1036
ag1004
ag1794
ag414
ag572
ag434
ag1582
ag30
ag70
ag740
ag772
ag598
ag278
ag234
ag1226
ag1818
ag684
ag506
ag994
ag1384
ag1520
ag1666
ag1654
ag1614
ag724
ag1808
ag726
ag1266
ag758
ag1752
ag1716
ag1382
ag662
ag616
ag476
ag1622
ag688
ag160
ag1814
ag564
ag1288
ag76
ag488
ag622
ag780
ag1018
ag1426
ag1478
ag326
ag1038
ag1638
ag232
ag456
ag894
ag24
ag1946
ag924
ag948
ag914
ag1074
ag478
ag1202
ag1258
ag432
ag482
ag1664
ag126
ag52
ag1104
ag248
ag1252
ag778
ag706
ag1680
ag1110
ag374
ag1928
ag1696
ag1376
ag764
ag212
ag2028
ag1180
ag346
ag1158
ag1926
ag590
ag792
ag1424
ag1452
ag484
ag114
ag996
ag2060
ag1392
ag762
ag446
ag1268
ag1956
ag818
ag426
ag1644
ag1826
ag1090
ag320
ag1080
ag1338
ag1804
ag174
ag1444
ag1692
ag176
ag814
ag1320
ag608
ag1526
ag1204
ag156
ag992
ag140
ag864
ag750
ag1762
ag464
ag328
ag958
ag350
ag304
ag1148
ag746
ag1634
ag1420
ag1352
ag1088
ag1464
ag244
ag1858
ag1854
ag1866
ag834
ag268
ag612
ag694
ag84
ag1898
ag534
ag1672
ag630
ag1850
ag868
ag1950
ag1260
ag1776
ag768
ag394
ag1242
ag666
ag1572
ag48
ag198
ag1922
ag392
ag1262
ag1448
ag384
ag504
ag1322
ag220
ag1732
ag644
ag1842
ag316
ag770
ag1476
ag78
ag544
ag1124
ag334
ag60
ag1610
ag1706
ag74
ag322
asS'Min Chen'
p2105
(lp2106
g980
ag994
ag446
ag1718
ag1888
ag320
ag370
ag136
ag1084
ag876
ag228
ag798
ag1876
ag770
ag208
ag764
ag1748
ag1010
ag1238
ag1112
ag1640
ag612
ag1792
ag1280
ag64
ag358
ag932
ag266
ag868
ag430
ag152
ag2004
ag1740
ag1684
ag1076
ag1662
ag1026
ag684
ag1036
ag1412
ag922
ag718
ag96
ag1968
ag930
ag1844
ag1918
ag1286
ag406
ag80
ag1038
ag1118
ag594
ag522
ag562
ag128
ag1444
ag1492
ag334
ag1310
ag618
ag1926
ag462
ag1532
ag1182
ag1346
ag858
ag1172
ag308
ag146
ag1188
ag86
ag1908
ag1304
ag2024
ag1180
ag154
ag1032
ag610
ag678
ag1104
ag866
ag1060
ag294
ag712
ag1636
ag636
ag1008
ag1566
ag2034
ag1408
ag442
ag1678
ag268
ag516
ag1958
ag58
ag46
ag264
ag1530
ag468
ag4
ag1480
ag1824
ag962
ag452
ag1852
ag1738
ag292
ag1886
ag1612
ag580
ag1012
ag1724
ag60
ag1174
ag1342
ag1710
ag1956
ag606
ag1872
ag734
ag428
ag1308
ag550
ag882
ag1052
ag530
ag1734
ag1912
ag234
ag66
ag1682
ag356
ag1544
ag54
ag174
ag2012
ag332
ag1316
ag1588
ag558
ag1808
ag250
ag354
ag1328
ag340
ag374
ag1016
ag1586
ag220
ag2000
ag1396
ag394
ag1814
ag750
ag942
ag1234
ag772
ag1048
ag1340
ag1270
ag1898
ag242
ag1672
ag1708
ag1804
ag1974
ag928
ag1920
ag1302
ag1148
ag1916
ag288
ag186
ag984
ag1768
ag144
ag478
ag1800
ag1540
ag1290
ag1226
ag324
ag1568
ag638
ag902
ag894
ag156
ag658
ag170
ag1062
ag1616
ag1766
ag1064
ag1486
ag2026
ag1690
ag196
ag642
asS'Ibrahim Korpeoglu'
p2107
(lp2108
g486
ag1618
ag1164
ag1678
ag162
ag66
ag428
ag424
ag778
ag454
ag1624
ag886
ag982
ag1620
ag714
ag868
ag1266
ag1036
ag1640
ag606
ag136
ag46
ag1656
ag602
ag858
ag182
ag1982
ag1178
ag1634
ag1772
ag754
ag448
ag1068
ag1932
ag690
ag1420
ag1684
ag542
ag536
ag368
ag464
ag966
ag288
ag1556
ag1928
ag250
ag768
ag1030
ag1176
ag1970
ag772
ag1894
ag750
ag748
ag1020
ag1708
ag432
ag1848
ag490
ag400
ag206
ag1810
ag1444
ag958
ag1160
ag824
ag280
ag1332
ag1360
ag1260
ag290
ag1992
ag850
ag910
ag1118
ag88
ag1452
ag1108
ag1504
ag898
ag1952
ag12
ag998
ag1070
ag1872
ag1446
ag1044
ag1828
ag1466
ag412
ag1480
ag1060
ag298
ag790
ag736
ag1328
ag756
ag1534
ag742
ag1032
ag254
ag178
ag704
ag10
ag1200
ag1972
ag1308
ag1344
ag144
ag1606
ag1270
ag2002
ag1702
ag322
ag20
ag892
ag1508
ag1662
ag392
ag1758
ag1738
ag1096
ag294
ag578
ag1644
ag1582
ag1382
ag1424
ag1016
ag1546
ag2000
ag1458
ag870
ag1804
ag780
ag946
ag822
ag518
ag2028
ag1162
ag320
ag1654
ag302
ag2032
ag716
ag1422
ag1210
ag1604
ag566
ag1850
ag1002
ag1464
ag1588
ag1038
ag1714
ag814
ag6
ag230
ag214
ag1820
ag1812
ag150
ag864
ag1340
ag274
ag1980
ag1218
ag1994
ag962
ag608
ag352
ag190
ag44
ag1788
ag788
ag180
ag664
ag1290
ag1132
ag878
ag1048
ag2050
ag1538
ag728
ag1876
ag64
ag58
ag32
ag306
ag1214
ag990
ag860
ag1234
ag1720
ag1750
ag1960
ag1958
ag1836
ag1564
ag16
asS'Raghupathy Sivakumar'
p2109
(lp2110
g1362
ag304
ag792
ag330
ag980
ag64
ag986
ag1780
ag1388
ag1350
ag744
ag476
ag1418
ag1424
ag464
ag1570
ag570
ag834
ag1956
ag1918
ag612
ag1466
ag1828
ag1602
ag510
ag1772
ag1476
ag376
ag524
ag1714
ag1080
ag1838
ag954
ag1346
ag1114
ag1690
ag300
ag278
ag1368
ag52
ag1788
ag868
ag740
ag1002
ag78
ag736
ag1446
ag558
ag728
ag1622
ag1414
ag1522
ag1272
ag1572
ag1554
ag1800
ag1426
ag1052
ag1624
ag1950
ag1206
ag724
ag1734
ag162
ag588
ag978
ag240
ag1298
ag242
ag1592
ag1546
ag1010
ag1296
ag672
ag1866
ag1154
ag732
ag1664
ag268
ag1550
ag1162
ag1126
ag1632
ag1878
ag86
ag132
ag1636
ag1082
ag1308
ag1118
ag996
ag148
ag1696
ag1486
ag914
ag636
ag770
ag1770
ag758
ag1954
ag1260
ag310
ag906
ag1252
ag344
ag1712
ag176
ag1760
ag364
ag80
ag600
ag616
ag1054
ag1086
ag1568
ag1940
ag784
ag1752
ag1578
ag1958
ag262
ag274
ag40
ag1284
ag298
ag808
ag1354
ag1046
ag644
ag484
ag368
ag626
ag1614
ag886
ag1406
ag1290
ag1172
ag62
ag428
ag38
ag30
ag336
ag226
ag858
ag1100
ag1848
ag1830
ag1234
ag618
ag332
ag1200
ag212
ag818
ag670
ag1310
ag112
ag296
ag26
ag1066
ag1384
ag574
ag216
ag412
ag1774
ag372
ag862
ag370
ag1442
ag738
ag1322
ag316
ag314
ag138
ag104
ag958
ag402
ag1444
ag1000
ag1968
ag852
ag1754
ag620
ag250
ag1304
ag564
ag2044
ag556
ag430
ag380
ag482
ag778
ag1274
ag1676
ag1504
ag892
ag1730
ag1078
ag1672
ag1758
ag1410
asS'Martin J. Wainwright'
p2111
(lp2112
g602
ag1810
ag436
ag898
ag760
ag912
ag1424
ag504
ag1384
ag116
ag1466
ag130
ag1062
ag320
ag1486
ag884
ag554
ag50
ag254
ag1922
ag1702
ag1778
ag690
ag124
ag844
ag1730
ag1394
ag1492
ag576
ag1212
ag1246
ag832
ag1184
ag526
ag242
ag454
ag330
ag742
ag990
ag94
ag978
ag696
ag1274
ag160
ag540
ag274
ag1024
ag754
ag322
ag1188
ag530
ag1740
ag1442
ag1876
ag1892
ag1220
ag1982
ag1086
ag1112
ag352
ag1316
ag1966
ag1604
ag448
ag1250
ag562
ag1912
ag1308
ag114
ag1292
ag1640
ag1600
ag558
ag1490
ag1644
ag196
ag1006
ag190
ag1130
ag20
ag1284
ag264
ag452
ag612
ag1688
ag1780
ag1066
ag1974
ag1894
ag532
ag1932
ag718
ag1992
ag1556
ag1028
ag2012
ag326
ag988
ag1396
ag1386
ag1368
ag1332
ag258
ag350
ag1792
ag480
ag104
ag210
ag632
ag856
ag1156
ag1990
ag1178
ag228
ag72
ag1944
ag1660
ag630
ag762
ag1954
ag284
ag1222
ag224
ag188
ag1914
ag1358
ag1930
ag482
ag1750
ag1634
ag878
ag478
ag1036
ag26
ag930
ag1090
ag92
ag1360
ag598
ag1254
ag678
ag1678
ag710
ag778
ag764
ag1016
ag1998
ag536
ag1518
ag438
ag868
ag378
ag596
ag1562
ag1842
ag496
ag112
ag476
ag146
ag1772
ag614
ag1528
ag1174
ag1310
ag818
ag1994
ag220
ag910
ag848
ag1752
ag80
ag166
ag574
ag1650
ag246
ag1520
ag312
ag728
ag164
ag594
ag704
ag418
ag8
ag692
ag240
ag1450
ag1186
ag32
ag106
ag786
ag872
ag1084
ag626
ag154
ag1620
ag1176
ag1906
ag1666
ag702
ag1616
asS'Hossam S. Hassanein'
p2113
(lp2114
g1074
ag332
ag1092
ag372
ag1500
ag904
ag1880
ag1170
ag1706
ag752
ag1042
ag1704
ag1916
ag578
ag1784
ag1908
ag1934
ag1642
ag498
ag448
ag2032
ag860
ag890
ag194
ag902
ag542
ag850
ag1606
ag1354
ag1874
ag32
ag1496
ag546
ag1418
ag768
ag180
ag348
ag1370
ag960
ag1926
ag706
ag1814
ag1100
ag828
ag1472
ag1286
ag1144
ag808
ag1460
ag1356
ag458
ag1674
ag164
ag574
ag90
ag292
ag746
ag288
ag1910
ag1210
ag1258
ag566
ag1294
ag96
ag872
ag1422
ag906
ag604
ag672
ag422
ag1514
ag916
ag406
ag496
ag1106
ag634
ag18
ag824
ag1646
ag1696
ag1208
ag1570
ag1656
ag1020
ag1504
ag1154
ag258
ag1960
ag34
ag1054
ag488
ag1174
ag690
ag572
ag770
ag326
ag1178
ag1848
ag1644
ag974
ag6
ag56
ag1134
ag22
ag134
ag300
ag1338
ag806
ag606
ag696
ag508
ag928
ag596
ag874
ag244
ag612
ag72
ag1714
ag260
ag1036
ag700
ag848
ag1662
ag1212
ag476
ag962
ag1150
ag1822
ag1580
ag1982
ag1712
ag1112
ag1890
ag638
ag162
ag766
ag1246
ag946
ag1164
ag1832
ag1718
ag1432
ag1792
ag780
ag480
ag954
ag500
ag732
ag186
ag1078
ag1046
ag952
ag1056
ag1568
ag614
ag676
ag1700
ag214
ag1802
ag402
ag464
ag490
ag1536
ag1862
ag414
ag644
ag744
ag658
ag206
ag730
ag1610
ag1198
ag1680
ag1128
ag294
ag652
ag1508
ag1502
ag1952
ag1114
ag1024
ag1786
ag1958
ag1402
ag1562
ag1306
ag980
ag456
ag798
ag1512
ag802
ag1986
ag172
ag1028
ag1972
ag470
ag912
ag1572
ag478
ag582
asS'Masashi Sugiyama'
p2115
(lp2116
g570
ag526
ag1920
ag612
ag1098
ag1600
ag698
ag958
ag274
ag536
ag862
ag1606
ag982
ag736
ag1398
ag146
ag348
ag1356
ag990
ag1438
ag1768
ag1406
ag42
ag1374
ag616
ag1420
ag1590
ag1220
ag464
ag374
ag302
ag222
ag966
ag1776
ag508
ag1858
ag650
ag1764
ag114
ag1054
ag372
ag1660
ag722
ag1602
ag1866
ag1762
ag378
ag1178
ag1026
ag2060
ag488
ag1404
ag1854
ag1940
ag1194
ag1850
ag998
ag390
ag774
ag1818
ag212
ag1862
ag1494
ag856
ag1698
ag2044
ag1608
ag1114
ag1276
ag1514
ag1400
ag838
ag1512
ag1958
ag94
ag1648
ag1312
ag458
ag1546
ag150
ag1526
ag1616
ag1228
ag938
ag770
ag1720
ag10
ag1110
ag874
ag1516
ag1226
ag538
ag1932
ag636
ag1346
ag192
ag1542
ag1192
ag66
ag624
ag272
ag352
ag1390
ag1618
ag866
ag864
ag628
ag380
ag592
ag746
ag1576
ag1842
ag680
ag1896
ag358
ag1128
ag474
ag1126
ag1218
ag1160
ag692
ag472
ag1380
ag1180
ag1628
ag1988
ag1496
ag1994
ag1632
ag1132
ag318
ag960
ag1250
ag78
ag1750
ag76
ag1630
ag830
ag948
ag1876
ag1396
ag68
ag1738
ag1140
ag1484
ag560
ag368
ag1832
ag1444
ag1646
ag1788
ag190
ag858
ag1944
ag98
ag1946
ag1338
ag1884
ag764
ag506
ag34
ag1060
ag1838
ag660
ag1478
ag120
ag206
ag876
ag1662
ag1870
ag568
ag886
ag912
ag2006
ag1598
ag814
ag430
ag742
ag1306
ag340
ag1416
ag100
ag74
ag54
ag940
ag168
ag1264
ag1446
ag1154
ag1612
ag1428
ag1532
ag482
ag180
ag1952
ag544
ag754
ag1170
ag416
ag1354
asS'James Won-Ki Hong'
p2117
(lp2118
g194
ag2000
ag1944
ag1812
ag1546
ag1190
ag332
ag920
ag750
ag238
ag1032
ag1946
ag796
ag930
ag870
ag788
ag1834
ag1810
ag1660
ag718
ag1474
ag962
ag430
ag1652
ag268
ag82
ag1908
ag1636
ag1626
ag2010
ag254
ag1540
ag1014
ag1612
ag1628
ag228
ag838
ag986
ag1106
ag648
ag1224
ag42
ag1938
ag1100
ag466
ag1360
ag438
ag734
ag948
ag1346
ag214
ag1072
ag932
ag810
ag344
ag1266
ag904
ag426
ag916
ag166
ag1114
ag578
ag1792
ag2034
ag2004
ag1940
ag1416
ag1332
ag494
ag978
ag1096
ag2044
ag696
ag618
ag1232
ag1394
ag790
ag1892
ag1108
ag1942
ag440
ag706
ag902
ag1654
ag1536
ag1400
ag1808
ag386
ag486
ag1370
ag1440
ag592
ag92
ag1178
ag198
ag630
ag408
ag98
ag476
ag1254
ag550
ag1480
ag358
ag1104
ag752
ag72
ag1962
ag834
ag1672
ag1608
ag746
ag1916
ag938
ag280
ag1476
ag60
ag1158
ag196
ag1750
ag1364
ag678
ag1468
ag1564
ag1616
ag414
ag1602
ag1136
ag1290
ag80
ag1288
ag596
ag646
ag882
ag742
ag1350
ag1958
ag1526
ag470
ag512
ag1478
ag1690
ag1506
ag162
ag202
ag780
ag702
ag1704
ag1390
ag1010
ag1594
ag134
ag1520
ag620
ag300
ag1880
ag1584
ag1174
ag860
ag1732
ag4
ag2014
ag554
ag28
ag672
ag2060
ag1674
ag768
ag782
ag1832
ag318
ag1806
ag88
ag400
ag1684
ag288
ag1230
ag1618
ag1242
ag1220
ag36
ag294
ag354
ag1436
ag540
ag1240
ag420
ag1532
ag1274
ag244
ag376
ag1572
ag20
ag222
ag1702
ag1334
ag846
ag1558
ag86
ag156
ag1062
asS'Bu-Sung Lee'
p2119
(lp2120
g100
ag468
ag1182
ag1344
ag1176
ag346
ag548
ag772
ag504
ag968
ag172
ag1096
ag378
ag1248
ag768
ag1546
ag1436
ag140
ag1992
ag800
ag1268
ag354
ag1008
ag1212
ag1914
ag988
ag1214
ag1600
ag2068
ag572
ag934
ag564
ag1190
ag120
ag896
ag1530
ag1872
ag1424
ag1394
ag808
ag1876
ag1146
ag228
ag1272
ag1390
ag202
ag422
ag440
ag540
ag992
ag1608
ag728
ag1744
ag150
ag578
ag1398
ag1654
ag758
ag302
ag1016
ag284
ag632
ag1566
ag744
ag1520
ag1796
ag1968
ag832
ag1614
ag1110
ag1216
ag708
ag1734
ag110
ag674
ag1698
ag260
ag1858
ag1348
ag1042
ag1630
ag166
ag192
ag1778
ag296
ag630
ag1354
ag402
ag1024
ag1010
ag1900
ag546
ag1410
ag392
ag1704
ag1430
ag16
ag936
ag1552
ag1312
ag620
ag1396
ag1802
ag1006
ag1186
ag1392
ag44
ag46
ag1112
ag1378
ag1452
ag332
ag498
ag210
ag882
ag868
ag156
ag54
ag532
ag312
ag320
ag258
ag448
ag1756
ag1832
ag18
ag876
ag224
ag1266
ag1290
ag562
ag198
ag490
ag352
ag384
ag1632
ag798
ag1358
ag628
ag1376
ag1406
ag786
ag1714
ag1022
ag36
ag950
ag1286
ag1038
ag864
ag138
ag846
ag1260
ag438
ag1670
ag344
ag1252
ag444
ag926
ag938
ag584
ag1806
ag664
ag1322
ag1026
ag1880
ag1474
ag1076
ag558
ag246
ag610
ag1526
ag1034
ag984
ag754
ag604
ag1130
ag66
ag188
ag104
ag1946
ag1156
ag550
ag1448
ag1126
ag732
ag32
ag1048
ag724
ag1814
ag1374
ag1134
ag822
ag360
ag722
ag1444
ag1104
ag914
ag638
ag1002
ag108
asS'Feng Wang'
p2121
(lp2122
g386
ag1194
ag490
ag874
ag94
ag1048
ag1334
ag6
ag930
ag460
ag716
ag262
ag1808
ag830
ag1826
ag1872
ag1656
ag320
ag1810
ag1642
ag274
ag536
ag398
ag1754
ag1782
ag1072
ag1694
ag286
ag82
ag1768
ag1056
ag558
ag1428
ag1442
ag1704
ag1380
ag1434
ag1280
ag1560
ag1770
ag74
ag566
ag2010
ag542
ag1886
ag10
ag156
ag1698
ag1256
ag222
ag698
ag866
ag184
ag746
ag1762
ag1406
ag1660
ag346
ag1180
ag492
ag1478
ag502
ag996
ag1188
ag1854
ag118
ag1882
ag292
ag60
ag1362
ag1688
ag1524
ag1774
ag322
ag264
ag722
ag652
ag1176
ag772
ag1638
ag248
ag1240
ag1174
ag898
ag1062
ag1662
ag1858
ag1332
ag950
ag1944
ag728
ag1940
ag106
ag1282
ag900
ag614
ag1266
ag1162
ag1472
ag48
ag812
ag456
ag1816
ag868
ag1964
ag220
ag422
ag174
ag1614
ag828
ag1952
ag920
ag402
ag226
ag1018
ag906
ag138
ag1552
ag762
ag368
ag686
ag1908
ag1222
ag952
ag824
ag1184
ag1038
ag400
ag32
ag326
ag1544
ag480
ag884
ag596
ag622
ag626
ag1060
ag26
ag236
ag1466
ag870
ag188
ag624
ag662
ag630
ag514
ag1514
ag934
ag784
ag1118
ag1264
ag876
ag1716
ag268
ag1202
ag928
ag594
ag776
ag442
ag394
ag1424
ag1574
ag1630
ag834
ag1648
ag1076
ag1740
ag842
ag246
ag1200
ag1342
ag1186
ag862
ag132
ag1840
ag902
ag104
ag1922
ag1674
ag552
ag1726
ag918
ag1248
ag1696
ag1790
ag800
ag1420
ag1252
ag412
ag1078
ag2032
ag726
ag994
ag972
ag1270
ag1494
ag16
ag1346
ag86
ag380
asS'Ram D. Gopal'
p2123
(lp2124
g586
ag1938
ag1084
ag362
ag508
ag268
ag868
ag478
ag1544
ag714
ag366
ag1434
ag1590
ag814
ag1260
ag1394
ag1732
ag1440
ag498
ag44
ag64
ag1676
ag438
ag1866
ag532
ag858
ag1514
ag1570
ag1762
ag1874
ag1930
ag274
ag1270
ag1932
ag626
ag132
ag1550
ag1786
ag122
ag642
ag1204
ag1046
ag286
ag1556
ag828
ag672
ag1038
ag298
ag1186
ag1390
ag60
ag1672
ag1958
ag270
ag1994
ag752
ag406
ag544
ag908
ag1586
ag458
ag1510
ag482
ag528
ag1478
ag1838
ag1324
ag916
ag1688
ag1090
ag1368
ag2050
ag928
ag1700
ag8
ag436
ag1228
ag474
ag250
ag946
ag860
ag1150
ag1634
ag1466
ag540
ag1474
ag1362
ag1370
ag1020
ag242
ag554
ag1516
ag1800
ag92
ag222
ag1120
ag1364
ag1376
ag236
ag402
ag998
ag1252
ag320
ag846
ag1496
ag1884
ag552
ag710
ag2004
ag446
ag1114
ag1436
ag96
ag1010
ag1450
ag1318
ag1182
ag1284
ag598
ag1346
ag624
ag1248
ag564
ag172
ag2006
ag882
ag1118
ag380
ag1506
ag4
ag1758
ag1776
ag906
ag1744
ag884
ag1698
ag330
ag168
ag1142
ag1274
ag1048
ag1906
ag1868
ag1154
ag1602
ag190
ag370
ag1950
ag798
ag1178
ag1588
ag1826
ag1880
ag1256
ag1444
ag1152
ag1272
ag1006
ag1680
ag1876
ag934
ag176
ag1576
ag1642
ag374
ag640
ag2010
ag1828
ag1616
ag924
ag1092
ag750
ag1138
ag1538
ag1566
ag790
ag1974
ag1934
ag350
ag1308
ag856
ag308
ag1742
ag1900
ag1788
ag88
ag958
ag1422
ag1620
ag900
ag1492
ag1014
ag1898
ag736
ag1870
ag1918
ag164
ag1696
ag518
ag1756
asS'Vijay S. Mookerjee'
p2125
(lp2126
g1842
ag1218
ag1450
ag1566
ag1692
ag1376
ag42
ag1140
ag1610
ag642
ag1602
ag464
ag1804
ag868
ag1018
ag1958
ag542
ag374
ag2044
ag1076
ag1272
ag762
ag172
ag1870
ag1264
ag510
ag1486
ag450
ag1844
ag1132
ag1176
ag1492
ag580
ag382
ag1528
ag1518
ag276
ag1302
ag1514
ag1618
ag1136
ag970
ag1854
ag1224
ag212
ag234
ag252
ag386
ag2002
ag836
ag1170
ag514
ag704
ag442
ag1838
ag1268
ag1746
ag614
ag1344
ag1000
ag1716
ag1494
ag1398
ag312
ag1368
ag84
ag822
ag1564
ag1320
ag1260
ag1874
ag842
ag242
ag1022
ag674
ag2010
ag30
ag1686
ag1148
ag1750
ag384
ag1270
ag874
ag1712
ag332
ag218
ag1524
ag1664
ag1550
ag1922
ag1672
ag1598
ag1154
ag756
ag930
ag1390
ag1410
ag552
ag1378
ag686
ag394
ag1654
ag1488
ag466
ag1330
ag6
ag666
ag1204
ag112
ag314
ag680
ag750
ag530
ag1782
ag618
ag474
ag1312
ag12
ag1758
ag748
ag1318
ag1544
ag348
ag1878
ag352
ag828
ag978
ag1466
ag224
ag1444
ag600
ag1252
ag964
ag1644
ag1772
ag924
ag1362
ag728
ag1412
ag1862
ag1584
ag1276
ag1708
ag1888
ag1764
ag336
ag556
ag1062
ag636
ag1310
ag104
ag576
ag616
ag1024
ag116
ag960
ag928
ag1822
ag926
ag900
ag1918
ag1100
ag1112
ag254
ag36
ag1726
ag734
ag346
ag504
ag1484
ag1652
ag626
ag1436
ag974
ag1182
ag1228
ag22
ag788
ag1894
ag1818
ag288
ag1178
ag1850
ag278
ag1346
ag106
ag536
ag904
ag1462
ag44
ag786
ag716
ag1426
ag1142
ag1932
ag808
ag1160
ag1560
ag1796
ag1388
asS'Bin Liu'
p2127
(lp2128
g1718
ag504
ag1282
ag792
ag56
ag1218
ag860
ag1478
ag1722
ag554
ag64
ag920
ag112
ag176
ag416
ag678
ag1188
ag332
ag1072
ag1568
ag640
ag980
ag950
ag1680
ag1896
ag298
ag1750
ag1898
ag1224
ag90
ag1116
ag906
ag1818
ag1344
ag438
ag1014
ag674
ag808
ag658
ag1954
ag250
ag580
ag1206
ag1830
ag742
ag1570
ag746
ag1512
ag1674
ag1986
ag1310
ag1538
ag1660
ag198
ag436
ag1648
ag48
ag948
ag1560
ag74
ag1760
ag712
ag1038
ag536
ag892
ag644
ag100
ag1520
ag1034
ag1424
ag898
ag226
ag38
ag1756
ag1864
ag680
ag358
ag824
ag1044
ag586
ag520
ag628
ag1966
ag994
ag542
ag1776
ag982
ag1252
ag672
ag1144
ag344
ag1446
ag1444
ag1826
ag918
ag702
ag1634
ag1592
ag1202
ag564
ag110
ag512
ag338
ag216
ag1178
ag1496
ag670
ag990
ag772
ag534
ag170
ag1266
ag1352
ag998
ag1546
ag1646
ag1386
ag302
ag96
ag894
ag266
ag424
ag168
ag1918
ag1748
ag1268
ag84
ag376
ag846
ag880
ag1360
ag146
ag1158
ag1796
ag1758
ag382
ag1738
ag328
ag1112
ag832
ag1922
ag522
ag494
ag664
ag562
ag938
ag1768
ag1694
ag1852
ag108
ag1652
ag1880
ag276
ag1286
ag912
ag196
ag1630
ag1094
ag2034
ag1774
ag1306
ag6
ag1058
ag1098
ag1642
ag1492
ag1872
ag320
ag1146
ag1890
ag40
ag724
ag18
ag92
ag510
ag1242
ag1140
ag676
ag1974
ag986
ag1514
ag1944
ag858
ag142
ag388
ag154
ag704
ag1906
ag1730
ag486
ag2068
ag738
ag1870
ag806
ag590
ag692
ag1500
ag1400
ag1678
ag1636
asS'Gerhard Tr\xc3\xb6ster'
p2129
(lp2130
g1268
ag40
ag1800
ag820
ag1868
ag1216
ag1080
ag1320
ag294
ag128
ag166
ag902
ag1140
ag810
ag970
ag48
ag396
ag94
ag1732
ag582
ag24
ag1298
ag1386
ag1604
ag1246
ag1002
ag586
ag1942
ag10
ag1676
ag696
ag1108
ag144
ag1274
ag36
ag1908
ag470
ag1310
ag1568
ag456
ag388
ag1284
ag2014
ag1852
ag1514
ag558
ag1672
ag1412
ag1042
ag752
ag1104
ag764
ag1738
ag1474
ag152
ag1478
ag510
ag1872
ag1350
ag680
ag1206
ag492
ag838
ag844
ag690
ag1230
ag1674
ag168
ag500
ag602
ag1832
ag630
ag26
ag580
ag1526
ag1150
ag908
ag1598
ag1754
ag1822
ag2002
ag160
ag1158
ag842
ag920
ag962
ag1680
ag1146
ag1892
ag1036
ag740
ag1444
ag816
ag308
ag190
ag750
ag176
ag714
ag1540
ag1592
ag4
ag954
ag1090
ag1502
ag1210
ag1782
ag66
ag692
ag1182
ag1730
ag1678
ag1886
ag1224
ag1344
ag840
ag1176
ag1694
ag1330
ag1262
ag1624
ag1302
ag1926
ag496
ag770
ag896
ag1740
ag608
ag1534
ag1762
ag482
ag184
ag1484
ag1056
ag1418
ag1802
ag1308
ag70
ag686
ag142
ag592
ag1374
ag182
ag360
ag1402
ag1324
ag226
ag1178
ag1702
ag1082
ag776
ag808
ag778
ag1970
ag1164
ag1722
ag1452
ag1826
ag28
ag1966
ag1232
ag600
ag730
ag1580
ag936
ag1838
ag230
ag802
ag2020
ag364
ag108
ag2036
ag832
ag222
ag1718
ag1546
ag688
ag1328
ag594
ag320
ag812
ag872
ag1004
ag1928
ag1572
ag984
ag1708
ag1020
ag1516
ag378
ag1292
ag1990
ag1972
ag130
ag44
ag1710
ag1612
ag208
ag16
ag828
ag698
asS'Yang Xiang'
p2131
(lp2132
g1038
ag336
ag574
ag1766
ag466
ag1182
ag680
ag722
ag1360
ag1062
ag1330
ag1436
ag1202
ag1312
ag1248
ag1608
ag436
ag1516
ag1550
ag72
ag1362
ag1118
ag70
ag1566
ag1600
ag1180
ag1740
ag1602
ag1752
ag194
ag1474
ag1508
ag698
ag346
ag1812
ag946
ag1322
ag1392
ag1276
ag1122
ag1664
ag1454
ag62
ag1934
ag584
ag770
ag1388
ag1910
ag726
ag1134
ag1746
ag482
ag642
ag1758
ag444
ag1050
ag358
ag318
ag1242
ag1866
ag1874
ag312
ag908
ag936
ag704
ag568
ag958
ag1188
ag1604
ag1220
ag396
ag1144
ag400
ag1542
ag1384
ag56
ag1794
ag332
ag646
ag712
ag846
ag1834
ag106
ag308
ag236
ag442
ag338
ag1678
ag852
ag762
ag1950
ag1442
ag304
ag378
ag694
ag464
ag536
ag1422
ag1632
ag902
ag1494
ag380
ag928
ag306
ag474
ag696
ag1892
ag1112
ag292
ag1148
ag714
ag1888
ag16
ag326
ag1978
ag1098
ag670
ag1844
ag58
ag348
ag440
ag1258
ag854
ag402
ag92
ag900
ag1140
ag234
ag526
ag542
ag1270
ag1518
ag1736
ag1780
ag1432
ag2050
ag468
ag920
ag906
ag1048
ag206
ag128
ag1406
ag1674
ag950
ag76
ag1692
ag1314
ag890
ag918
ag192
ag1804
ag1540
ag6
ag1850
ag1234
ag1840
ag1184
ag1824
ag1756
ag376
ag1916
ag804
ag356
ag100
ag830
ag1488
ag102
ag1296
ag1822
ag248
ag1854
ag678
ag140
ag1738
ag1064
ag1416
ag148
ag452
ag622
ag1208
ag1902
ag1640
ag742
ag1558
ag2028
ag756
ag1648
ag1836
ag1998
ag990
ag374
ag802
ag778
ag300
ag1426
ag498
ag912
ag540
ag736
asS'Li Xu'
p2133
(lp2134
g40
ag1064
ag1424
ag1674
ag740
ag172
ag1018
ag416
ag1886
ag316
ag1836
ag1342
ag256
ag1564
ag1688
ag1574
ag68
ag414
ag1012
ag1618
ag1112
ag1252
ag1366
ag1150
ag982
ag222
ag1998
ag274
ag1698
ag72
ag1510
ag448
ag1978
ag1068
ag122
ag1522
ag298
ag286
ag1816
ag370
ag1492
ag1280
ag754
ag1604
ag106
ag698
ag1080
ag70
ag930
ag1156
ag1944
ag742
ag360
ag314
ag804
ag1994
ag2044
ag240
ag1990
ag718
ag1480
ag1584
ag922
ag724
ag164
ag1560
ag1670
ag1040
ag1808
ag1312
ag82
ag134
ag1686
ag1218
ag2050
ag1554
ag1874
ag890
ag1730
ag1662
ag1110
ag94
ag1060
ag1852
ag1086
ag798
ag966
ag980
ag1440
ag478
ag1452
ag970
ag1854
ag954
ag1428
ag1760
ag1832
ag1672
ag228
ag934
ag96
ag1640
ag1374
ag552
ag1090
ag758
ag1276
ag1372
ag1208
ag24
ag1504
ag1586
ag1088
ag582
ag1884
ag290
ag146
ag1580
ag652
ag614
ag960
ag38
ag1246
ag1008
ag1956
ag892
ag1220
ag492
ag506
ag1084
ag822
ag174
ag1250
ag1592
ag394
ag626
ag1346
ag100
ag1334
ag1186
ag1038
ag44
ag344
ag1078
ag304
ag1352
ag732
ag180
ag364
ag1426
ag1514
ag1432
ag672
ag1330
ag1562
ag126
ag188
ag586
ag828
ag794
ag1690
ag1104
ag1666
ag150
ag1402
ag1534
ag1526
ag1608
ag1292
ag28
ag904
ag680
ag644
ag458
ag420
ag8
ag1400
ag260
ag708
ag216
ag864
ag666
ag1582
ag288
ag842
ag234
ag1260
ag1394
ag844
ag2060
ag1202
ag456
ag580
ag1692
ag1660
ag534
ag900
ag1460
ag678
ag706
asS'Srihari Nelakuditi'
p2135
(lp2136
g1618
ag1386
ag1536
ag1272
ag1726
ag674
ag730
ag1178
ag528
ag1456
ag758
ag1412
ag918
ag1362
ag1722
ag958
ag1834
ag412
ag1428
ag270
ag366
ag2050
ag764
ag348
ag1438
ag374
ag292
ag1960
ag892
ag364
ag1132
ag1348
ag588
ag1230
ag1558
ag494
ag1990
ag760
ag156
ag372
ag1576
ag622
ag1172
ag972
ag1964
ag1140
ag1306
ag470
ag1382
ag284
ag328
ag1838
ag836
ag1154
ag1604
ag714
ag1720
ag1052
ag1208
ag950
ag636
ag584
ag1852
ag330
ag1564
ag1264
ag474
ag1938
ag266
ag1016
ag350
ag1614
ag142
ag420
ag176
ag1842
ag1872
ag1002
ag1044
ag924
ag572
ag340
ag2024
ag490
ag1026
ag1660
ag1818
ag1226
ag614
ag502
ag414
ag752
ag32
ag1944
ag982
ag612
ag1742
ag94
ag138
ag1900
ag42
ag1108
ag712
ag1864
ag604
ag1090
ag904
ag98
ag602
ag224
ag2034
ag1760
ag144
ag1696
ag218
ag1164
ag838
ag668
ag1932
ag2020
ag944
ag946
ag1440
ag12
ag298
ag974
ag1836
ag1388
ag1334
ag1522
ag1546
ag458
ag320
ag132
ag718
ag1110
ag1792
ag1718
ag1442
ag564
ag410
ag902
ag1478
ag80
ag656
ag576
ag1214
ag1662
ag1946
ag184
ag1166
ag480
ag1322
ag940
ag550
ag1816
ag1988
ag1682
ag1170
ag1040
ag48
ag8
ag1342
ag222
ag590
ag716
ag1290
ag788
ag208
ag1020
ag50
ag680
ag1544
ag846
ag2068
ag1004
ag872
ag1642
ag1540
ag1086
ag1494
ag1702
ag534
ag1242
ag580
ag1782
ag536
ag1740
ag1794
ag1714
ag2002
ag930
ag1622
ag812
ag4
ag504
ag54
ag1902
ag552
ag1462
asS'Gary J. Koehler'
p2137
(lp2138
g228
ag1526
ag1716
ag766
ag1454
ag904
ag96
ag1750
ag1012
ag2010
ag1752
ag1676
ag850
ag1466
ag770
ag672
ag88
ag312
ag1084
ag1566
ag1570
ag1764
ag562
ag1198
ag378
ag176
ag1506
ag1958
ag1438
ag422
ag424
ag1288
ag20
ag1028
ag982
ag1202
ag1744
ag1834
ag1460
ag1318
ag954
ag902
ag56
ag1502
ag244
ag908
ag816
ag618
ag1088
ag1914
ag592
ag948
ag1138
ag1312
ag1068
ag266
ag1510
ag1216
ag1620
ag1114
ag938
ag554
ag666
ag1500
ag1134
ag1832
ag410
ag670
ag790
ag750
ag1214
ag214
ag910
ag1000
ag624
ag1456
ag358
ag834
ag260
ag1910
ag1232
ag1422
ag1532
ag10
ag2004
ag1800
ag832
ag1778
ag1968
ag1638
ag974
ag1724
ag1626
ag540
ag644
ag882
ag1694
ag736
ag1416
ag1918
ag712
ag964
ag1896
ag246
ag806
ag1890
ag574
ag1488
ag542
ag986
ag1048
ag26
ag366
ag1330
ag248
ag1362
ag124
ag252
ag1326
ag178
ag1614
ag1184
ag1142
ag1420
ag170
ag836
ag518
ag994
ag360
ag588
ag846
ag1376
ag1940
ag1276
ag1730
ag1272
ag1016
ag1888
ag1022
ag1842
ag1484
ag1706
ag284
ag136
ag856
ag914
ag1846
ag1534
ag478
ag1342
ag394
ag520
ag2036
ag1240
ag6
ag1404
ag230
ag272
ag1150
ag934
ag1178
ag186
ag1664
ag102
ag694
ag282
ag238
ag1792
ag680
ag1010
ag1140
ag1656
ag1320
ag514
ag1582
ag1368
ag1038
ag388
ag220
ag1192
ag1732
ag1354
ag1790
ag1594
ag944
ag1864
ag1898
ag1868
ag1478
ag8
ag584
ag488
ag1784
ag1590
ag746
ag726
ag564
ag1036
ag100
ag264
asS'Ming Li'
p2139
(lp2140
g1512
ag860
ag1624
ag1154
ag1946
ag1284
ag1042
ag316
ag1084
ag866
ag136
ag1564
ag6
ag864
ag1314
ag1794
ag1366
ag454
ag1754
ag1832
ag1854
ag406
ag524
ag568
ag1276
ag34
ag1298
ag1282
ag1930
ag1516
ag1964
ag1816
ag1412
ag446
ag278
ag706
ag1528
ag574
ag240
ag28
ag742
ag1778
ag254
ag52
ag474
ag54
ag320
ag1738
ag682
ag936
ag418
ag1554
ag344
ag842
ag198
ag688
ag640
ag306
ag746
ag1052
ag1222
ag886
ag1636
ag1130
ag1966
ag862
ag134
ag1868
ag1970
ag1382
ag212
ag132
ag114
ag1714
ag668
ag1152
ag1374
ag1164
ag1124
ag1434
ag1722
ag1090
ag1446
ag462
ag144
ag504
ag616
ag1350
ag1030
ag90
ag350
ag1418
ag1430
ag1172
ag66
ag1266
ag244
ag1300
ag894
ag428
ag2012
ag1092
ag1342
ag1188
ag954
ag1502
ag590
ag674
ag108
ag868
ag42
ag1822
ag410
ag140
ag624
ag920
ag1310
ag184
ag642
ag578
ag810
ag1394
ag1880
ag614
ag1416
ag1872
ag1234
ag1622
ag464
ag670
ag814
ag1620
ag1612
ag570
ag188
ag1534
ag1706
ag284
ag1338
ag1664
ag1248
ag318
ag1392
ag1484
ag692
ag1986
ag346
ag1588
ag1570
ag930
ag1676
ag750
ag1390
ag1142
ag718
ag606
ag1690
ag700
ag970
ag1888
ag1362
ag1784
ag618
ag948
ag684
ag1246
ag1426
ag208
ag678
ag1670
ag1908
ag584
ag802
ag984
ag900
ag1312
ag492
ag1866
ag1050
ag1354
ag366
ag1582
ag156
ag362
ag1654
ag1870
ag644
ag1686
ag262
ag1452
ag1992
ag792
ag1080
ag726
ag1004
ag962
ag1702
ag554
ag64
ag1514
asS'Daqing Zhang'
p2141
(lp2142
g1520
ag902
ag1194
ag1604
ag1446
ag202
ag808
ag882
ag1210
ag1932
ag766
ag1772
ag1664
ag234
ag1694
ag1920
ag1052
ag246
ag58
ag580
ag1220
ag754
ag358
ag646
ag1062
ag690
ag46
ag72
ag1362
ag866
ag1310
ag60
ag1532
ag1356
ag1886
ag1952
ag1666
ag894
ag814
ag544
ag56
ag556
ag1212
ag1474
ag1864
ag598
ag410
ag520
ag876
ag1232
ag1342
ag1882
ag1972
ag402
ag1546
ag1014
ag1174
ag1268
ag1290
ag954
ag1966
ag172
ag194
ag1800
ag1436
ag1806
ag324
ag398
ag1910
ag1714
ag570
ag1272
ag1162
ag896
ag822
ag982
ag1006
ag782
ag872
ag176
ag104
ag702
ag1780
ag1266
ag1578
ag1072
ag490
ag438
ag1172
ag1722
ag884
ag1670
ag18
ag1792
ag448
ag1754
ag282
ag1240
ag136
ag1170
ag432
ag352
ag424
ag924
ag512
ag874
ag986
ag24
ag664
ag934
ag1116
ag164
ag102
ag2068
ag988
ag1544
ag1392
ag1234
ag1024
ag1742
ag304
ag442
ag816
ag998
ag1894
ag1198
ag1334
ag762
ag1086
ag462
ag380
ag1394
ag408
ag458
ag502
ag106
ag1542
ag414
ag1540
ag2042
ag354
ag1866
ag174
ag1870
ag1846
ag1284
ag972
ag1700
ag436
ag138
ag1582
ag1192
ag1166
ag774
ag372
ag916
ag1570
ag522
ag318
ag1568
ag1244
ag572
ag1368
ag1862
ag186
ag1626
ag494
ag444
ag196
ag16
ag1762
ag1648
ag1364
ag1650
ag1188
ag1660
ag1998
ag8
ag980
ag2036
ag10
ag2020
ag1652
ag260
ag590
ag214
ag96
ag1716
ag2060
ag1352
ag1618
ag108
ag2010
ag1982
ag274
ag1566
ag454
ag344
ag968
ag1868
asS'Tore Dyb\xc3\xa5'
p2143
(lp2144
g918
ag664
ag1098
ag1206
ag1024
ag1622
ag950
ag754
ag394
ag124
ag244
ag116
ag686
ag386
ag1224
ag1352
ag894
ag1742
ag408
ag1770
ag978
ag1370
ag956
ag2020
ag150
ag1998
ag1240
ag546
ag1926
ag1078
ag8
ag1416
ag652
ag746
ag1162
ag1994
ag334
ag300
ag782
ag988
ag1854
ag1600
ag1278
ag88
ag1322
ag336
ag1732
ag1382
ag1512
ag808
ag1882
ag632
ag786
ag1026
ag866
ag766
ag674
ag968
ag696
ag1464
ag1246
ag1052
ag812
ag1938
ag944
ag768
ag756
ag1978
ag380
ag1878
ag230
ag762
ag958
ag850
ag1604
ag1922
ag924
ag382
ag170
ag1546
ag442
ag1128
ag1374
ag14
ag62
ag1876
ag372
ag892
ag564
ag1178
ag1816
ag1086
ag1292
ag1970
ag1522
ag1392
ag1156
ag1448
ag32
ag704
ag858
ag1112
ag282
ag1082
ag294
ag1540
ag1694
ag330
ag580
ag1724
ag778
ag960
ag1200
ag1064
ag948
ag242
ag376
ag1766
ag1628
ag1000
ag1080
ag554
ag1796
ag1068
ag1736
ag662
ag1458
ag714
ag1362
ag1972
ag752
ag1900
ag448
ag824
ag228
ag1468
ag650
ag1048
ag1572
ag1320
ag280
ag114
ag1344
ag1852
ag1514
ag132
ag1346
ag338
ag422
ag1342
ag1500
ag1066
ag990
ag496
ag552
ag1678
ag1666
ag606
ag982
ag914
ag1648
ag1762
ag1422
ag1316
ag678
ag220
ag784
ag922
ag1394
ag1930
ag1252
ag1838
ag694
ag1150
ag878
ag1284
ag1492
ag792
ag1594
ag1400
ag424
ag1598
ag1470
ag342
ag1584
ag416
ag16
ag504
ag1434
ag588
ag596
ag118
ag760
ag1822
ag1916
ag1010
ag22
ag192
ag1528
ag1758
asS'Ignas G. Niemegeers'
p2145
(lp2146
g216
ag1046
ag196
ag664
ag878
ag24
ag1832
ag904
ag1320
ag1862
ag668
ag1126
ag1912
ag868
ag456
ag1204
ag1218
ag426
ag554
ag1918
ag246
ag750
ag1982
ag610
ag1576
ag288
ag1778
ag300
ag1992
ag1542
ag776
ag674
ag1698
ag784
ag1234
ag178
ag1486
ag656
ag1514
ag1622
ag1708
ag576
ag60
ag1670
ag1200
ag1000
ag550
ag1642
ag636
ag1654
ag310
ag1906
ag1214
ag540
ag1304
ag1572
ag1194
ag634
ag522
ag902
ag968
ag440
ag1888
ag822
ag686
ag846
ag320
ag948
ag1688
ag690
ag708
ag1328
ag164
ag1022
ag1792
ag1452
ag1032
ag1028
ag1676
ag124
ag434
ag808
ag1258
ag1646
ag1184
ag270
ag1446
ag1746
ag1724
ag1432
ag630
ag624
ag1362
ag1120
ag142
ag72
ag1252
ag1768
ag1704
ag392
ag1814
ag888
ag1108
ag398
ag1150
ag1228
ag1348
ag486
ag166
ag1624
ag372
ag524
ag1808
ag1978
ag100
ag108
ag1880
ag1970
ag104
ag488
ag1570
ag1754
ag380
ag1916
ag1324
ag36
ag1286
ag1608
ag1480
ag898
ag382
ag882
ag1292
ag740
ag954
ag676
ag1592
ag306
ag1036
ag1440
ag572
ag1316
ag1636
ag1364
ag98
ag952
ag432
ag490
ag820
ag1762
ag986
ag874
ag318
ag70
ag244
ag34
ag420
ag1538
ag934
ag52
ag1600
ag14
ag476
ag758
ag1244
ag908
ag1038
ag90
ag1988
ag188
ag1692
ag498
ag1848
ag1462
ag666
ag1900
ag858
ag1810
ag632
ag1554
ag1476
ag1156
ag1844
ag756
ag1630
ag1098
ag1850
ag1408
ag1434
ag762
ag1470
ag472
ag1532
ag198
ag1702
ag46
ag1504
ag282
ag344
ag1530
asS'Vincenzo Manca'
p2147
(lp2148
g330
ag400
ag1680
ag194
ag1290
ag1062
ag924
ag1466
ag952
ag1254
ag1692
ag1676
ag1448
ag940
ag1516
ag1112
ag112
ag358
ag352
ag1826
ag764
ag1770
ag856
ag1772
ag1390
ag1434
ag848
ag1602
ag984
ag692
ag1796
ag698
ag1944
ag768
ag1510
ag1276
ag884
ag934
ag658
ag1432
ag700
ag1282
ag1892
ag676
ag1924
ag426
ag1052
ag946
ag1456
ag394
ag454
ag864
ag1780
ag734
ag1706
ag22
ag1700
ag1908
ag16
ag1072
ag78
ag1114
ag1498
ag1236
ag1666
ag738
ag104
ag1462
ag590
ag1822
ag786
ag1116
ag1182
ag666
ag1102
ag436
ag14
ag1036
ag722
ag1674
ag1912
ag190
ag1106
ag98
ag1874
ag1534
ag1334
ag270
ag914
ag340
ag704
ag1472
ag398
ag1200
ag1370
ag144
ag840
ag368
ag1626
ag1452
ag1694
ag1488
ag806
ag628
ag1868
ag1872
ag378
ag2060
ag1896
ag746
ag1176
ag680
ag1286
ag778
ag1888
ag798
ag1684
ag690
ag548
ag1478
ag1350
ag1664
ag1396
ag1154
ag1358
ag1640
ag616
ag222
ag1794
ag678
ag518
ag936
ag1070
ag1656
ag1204
ag1014
ag1724
ag1322
ag922
ag1126
ag1644
ag1400
ag1208
ag1998
ag1702
ag744
ag562
ag142
ag1816
ag1382
ag1554
ag1194
ag20
ag1048
ag752
ag164
ag322
ag1774
ag74
ag1016
ag80
ag1746
ag908
ag1850
ag1166
ag1876
ag92
ag100
ag1344
ag1164
ag1878
ag748
ag1110
ag302
ag1412
ag230
ag1558
ag1650
ag1484
ag284
ag1436
ag1272
ag316
ag286
ag1312
ag1542
ag1578
ag392
ag272
ag724
ag932
ag158
ag672
ag1212
ag1002
ag1536
ag900
ag670
ag1910
ag972
asS'Vicen\xc3\xa7 Torra'
p2149
(lp2150
g1526
ag1480
ag490
ag4
ag1246
ag1082
ag1886
ag110
ag1818
ag1628
ag1946
ag1008
ag266
ag1522
ag892
ag1198
ag582
ag1274
ag410
ag220
ag1026
ag320
ag142
ag964
ag702
ag280
ag1724
ag1162
ag1252
ag392
ag1386
ag28
ag1492
ag1158
ag1498
ag1142
ag1456
ag168
ag1048
ag222
ag34
ag228
ag1488
ag1848
ag140
ag304
ag368
ag1546
ag146
ag452
ag634
ag1554
ag554
ag730
ag68
ag1020
ag982
ag1828
ag1764
ag474
ag190
ag1390
ag104
ag1404
ag1060
ag1906
ag942
ag1450
ag382
ag1324
ag1666
ag1494
ag1096
ag456
ag44
ag1454
ag344
ag324
ag1258
ag1606
ag1130
ag1288
ag958
ag800
ag1012
ag298
ag894
ag1282
ag536
ag1376
ag1180
ag1690
ag746
ag742
ag1402
ag1816
ag1144
ag644
ag890
ag1136
ag1688
ag1022
ag446
ag1084
ag1872
ag18
ag182
ag42
ag388
ag48
ag938
ag1718
ag466
ag1150
ag134
ag994
ag1254
ag400
ag1334
ag332
ag902
ag1332
ag1642
ag590
ag322
ag784
ag1762
ag884
ag1134
ag586
ag1420
ag2026
ag1788
ag1042
ag1930
ag680
ag648
ag1086
ag1010
ag2000
ag1518
ag1824
ag356
ag1340
ag1230
ag1990
ag276
ag74
ag1354
ag506
ag520
ag1346
ag128
ag936
ag1278
ag1502
ag1702
ag1772
ag618
ag538
ag1668
ag1898
ag1286
ag1034
ag1116
ag550
ag186
ag138
ag1928
ag562
ag1062
ag540
ag1988
ag204
ag380
ag310
ag1118
ag1748
ag740
ag572
ag1076
ag638
ag990
ag548
ag1308
ag1382
ag366
ag1626
ag1550
ag1250
ag1090
ag580
ag1188
ag622
ag1944
ag458
ag102
ag1248
ag1712
ag1124
asS'Masayuki Murata'
p2151
(lp2152
g1612
ag980
ag124
ag1812
ag1542
ag932
ag98
ag1184
ag1428
ag1828
ag840
ag982
ag116
ag1978
ag734
ag1454
ag162
ag1802
ag848
ag48
ag486
ag430
ag1208
ag1382
ag1552
ag450
ag704
ag112
ag702
ag776
ag1254
ag1084
ag1426
ag1486
ag244
ag760
ag1656
ag830
ag390
ag670
ag972
ag868
ag998
ag1090
ag888
ag1502
ag1756
ag788
ag84
ag1490
ag1108
ag320
ag412
ag344
ag794
ag604
ag1706
ag1770
ag180
ag1074
ag242
ag610
ag1560
ag1704
ag860
ag1792
ag166
ag1138
ag358
ag496
ag826
ag104
ag1846
ag1926
ag1462
ag114
ag1964
ag712
ag1008
ag1686
ag230
ag322
ag456
ag32
ag266
ag236
ag340
ag508
ag1724
ag1282
ag834
ag684
ag1790
ag1312
ag1884
ag1050
ag1872
ag708
ag1636
ag408
ag1440
ag1478
ag1748
ag914
ag1746
ag224
ag1764
ag786
ag816
ag904
ag706
ag354
ag948
ag1196
ag362
ag1664
ag936
ag1438
ag1344
ag1972
ag1866
ag476
ag4
ag1024
ag918
ag1512
ag1230
ag2026
ag658
ag110
ag6
ag526
ag2014
ag1132
ag148
ag40
ag596
ag246
ag1922
ag1668
ag122
ag1156
ag1906
ag2024
ag1124
ag76
ag1698
ag1346
ag1402
ag1056
ag1574
ag1392
ag336
ag800
ag1338
ag1060
ag1932
ag966
ag846
ag1296
ag638
ag1100
ag36
ag748
ag1290
ag916
ag754
ag1962
ag520
ag1114
ag1946
ag1076
ag1642
ag170
ag206
ag680
ag454
ag1930
ag1314
ag1692
ag1322
ag1722
ag256
ag490
ag506
ag384
ag1536
ag606
ag1148
ag174
ag768
ag138
ag364
ag1078
ag870
ag624
ag1188
ag1466
ag200
ag1580
asS'Frans Coenen'
p2153
(lp2154
g1732
ag1138
ag1042
ag474
ag828
ag258
ag994
ag366
ag1112
ag1390
ag1888
ag816
ag1782
ag1088
ag818
ag630
ag622
ag972
ag176
ag1046
ag378
ag978
ag1342
ag1254
ag612
ag138
ag1172
ag530
ag1918
ag1890
ag606
ag536
ag1340
ag834
ag956
ag1378
ag1520
ag1852
ag478
ag24
ag678
ag786
ag1260
ag1206
ag80
ag1040
ag1462
ag782
ag1764
ag200
ag232
ag358
ag154
ag1970
ag1240
ag344
ag492
ag450
ag1648
ag98
ag454
ag1644
ag544
ag714
ag1514
ag1376
ag1398
ag310
ag104
ag1534
ag144
ag510
ag1248
ag468
ag1110
ag234
ag264
ag576
ag1474
ag130
ag1734
ag592
ag1454
ag312
ag268
ag788
ag596
ag620
ag1704
ag1920
ag488
ag1982
ag82
ag470
ag856
ag1014
ag2010
ag286
ag558
ag1754
ag1424
ag764
ag1216
ag1834
ag900
ag216
ag252
ag1326
ag988
ag1876
ag1090
ag1082
ag86
ag226
ag92
ag156
ag650
ag1060
ag178
ag336
ag356
ag1368
ag1808
ag266
ag1574
ag496
ag538
ag198
ag886
ag1540
ag600
ag1004
ag1928
ag1352
ag1344
ag330
ag62
ag296
ag920
ag1780
ag692
ag1898
ag302
ag484
ag652
ag1598
ag228
ag1682
ag270
ag582
ag2012
ag1362
ag1018
ag424
ag1170
ag1028
ag1308
ag1702
ag1228
ag896
ag1280
ag518
ag1694
ag1610
ag1068
ag1718
ag1564
ag1348
ag572
ag1814
ag214
ag1674
ag624
ag1404
ag120
ag498
ag4
ag640
ag140
ag1144
ag924
ag1388
ag860
ag1822
ag1490
ag970
ag408
ag500
ag1330
ag1902
ag1132
ag1538
ag1986
ag44
ag1896
ag148
ag868
ag520
ag1566
ag1952
asS'Eduardo Fern\xc3\xa1ndez-Medina'
p2155
(lp2156
g1496
ag348
ag538
ag1012
ag400
ag458
ag1016
ag1786
ag1146
ag1330
ag1032
ag1432
ag410
ag2006
ag800
ag506
ag1660
ag1024
ag160
ag1350
ag1824
ag254
ag120
ag582
ag1716
ag222
ag1326
ag844
ag768
ag1572
ag1520
ag328
ag758
ag402
ag1562
ag496
ag1052
ag466
ag74
ag1884
ag1258
ag1322
ag1420
ag6
ag1410
ag1864
ag1804
ag552
ag988
ag1642
ag302
ag596
ag230
ag1510
ag1656
ag630
ag2044
ag1894
ag1362
ag128
ag716
ag1852
ag894
ag508
ag962
ag1340
ag44
ag648
ag624
ag1672
ag1844
ag82
ag22
ag574
ag1784
ag2042
ag1778
ag1346
ag1498
ag1184
ag430
ag224
ag1930
ag1314
ag1670
ag1480
ag1764
ag250
ag646
ag2024
ag1010
ag1928
ag1396
ag1992
ag804
ag566
ag920
ag1366
ag776
ag688
ag498
ag378
ag240
ag1734
ag760
ag1212
ag1834
ag1946
ag1316
ag1718
ag658
ag636
ag366
ag244
ag1262
ag572
ag1374
ag1560
ag212
ag1382
ag1508
ag500
ag602
ag408
ag1020
ag290
ag1030
ag68
ag1190
ag2014
ag1268
ag954
ag1240
ag1022
ag1738
ag10
ag1882
ag1528
ag196
ag114
ag1404
ag1112
ag418
ag270
ag730
ag2036
ag1078
ag536
ag1780
ag1352
ag1160
ag1142
ag774
ag668
ag1084
ag1952
ag1090
ag838
ag292
ag256
ag182
ag1372
ag324
ag1328
ag732
ag1536
ag1602
ag692
ag1644
ag1438
ag1394
ag176
ag1376
ag1092
ag278
ag942
ag490
ag1284
ag1196
ag1832
ag238
ag1038
ag1248
ag518
ag728
ag218
ag480
ag514
ag1172
ag854
ag738
ag2050
ag802
ag1054
ag1208
ag1094
ag570
ag1130
ag504
ag826
asS'Yu-Chee Tseng'
p2157
(lp2158
g646
ag204
ag1918
ag1848
ag1282
ag1058
ag842
ag476
ag1902
ag1634
ag1852
ag682
ag1554
ag756
ag536
ag1236
ag1174
ag764
ag1194
ag472
ag208
ag422
ag1556
ag1312
ag1832
ag78
ag2060
ag966
ag1840
ag1646
ag604
ag1054
ag826
ag698
ag256
ag514
ag86
ag898
ag272
ag1050
ag1764
ag1030
ag296
ag1740
ag738
ag1826
ag1982
ag634
ag1230
ag1064
ag914
ag1932
ag1298
ag506
ag1200
ag732
ag1192
ag70
ag706
ag930
ag1520
ag1046
ag1504
ag1532
ag306
ag672
ag490
ag164
ag1522
ag1628
ag1992
ag1156
ag912
ag348
ag692
ag1510
ag332
ag1084
ag1398
ag1396
ag1410
ag916
ag774
ag668
ag650
ag1820
ag840
ag1012
ag174
ag264
ag318
ag316
ag786
ag1202
ag742
ag1958
ag848
ag1190
ag1676
ag354
ag1078
ag76
ag1486
ag18
ag438
ag470
ag1926
ag1340
ag2034
ag532
ag1496
ag1284
ag1908
ag1744
ag1688
ag1698
ag700
ag1222
ag98
ag420
ag1506
ag138
ag158
ag718
ag542
ag200
ag1096
ag90
ag1382
ag1638
ag1122
ag376
ag564
ag1136
ag234
ag1476
ag984
ag1270
ag1294
ag1822
ag808
ag498
ag1648
ag248
ag708
ag588
ag928
ag868
ag574
ag1276
ag1008
ag1460
ag724
ag1518
ag224
ag1540
ag1914
ag566
ag94
ag1768
ag1834
ag1304
ag1290
ag1002
ag1250
ag1120
ag860
ag596
ag1350
ag346
ag336
ag712
ag1692
ag1052
ag54
ag1226
ag1380
ag1828
ag1900
ag1538
ag1606
ag1896
ag628
ag888
ag1550
ag878
ag1358
ag2000
ag1288
ag1228
ag1502
ag594
ag1862
ag676
ag1374
ag1730
ag1878
ag1210
ag1622
ag1516
asS'Chai Kiat Yeo'
p2159
(lp2160
g1068
ag1120
ag1578
ag1406
ag1642
ag878
ag902
ag1664
ag580
ag750
ag68
ag1688
ag832
ag616
ag884
ag56
ag1432
ag1130
ag100
ag646
ag850
ag1044
ag964
ag1952
ag150
ag1160
ag1244
ag754
ag58
ag1300
ag1388
ag2004
ag1706
ag114
ag934
ag1730
ag890
ag938
ag4
ag1136
ag914
ag1756
ag692
ag912
ag1182
ag1210
ag586
ag926
ag714
ag546
ag378
ag302
ag2068
ag74
ag1112
ag826
ag514
ag250
ag1246
ag918
ag1024
ag1764
ag678
ag482
ag584
ag472
ag1194
ag638
ag1592
ag1404
ag2002
ag1520
ag162
ag1612
ag602
ag1594
ag990
ag1714
ag370
ag1624
ag1632
ag1686
ag222
ag332
ag1248
ag70
ag322
ag960
ag1234
ag1794
ag262
ag568
ag1646
ag202
ag1600
ag234
ag1460
ag614
ag1608
ag810
ag1280
ag760
ag932
ag622
ag1752
ag110
ag232
ag1162
ag454
ag628
ag1338
ag1308
ag1096
ag246
ag1766
ag862
ag1456
ag1704
ag682
ag942
ag1558
ag1990
ag1238
ag1034
ag506
ag484
ag324
ag344
ag356
ag844
ag1808
ag1872
ag1146
ag898
ag1320
ag432
ag1536
ag1770
ag870
ag1676
ag158
ag298
ag636
ag962
ag664
ag1396
ag966
ag66
ag466
ag534
ag1004
ag1954
ag40
ag710
ag882
ag1106
ag1368
ag1296
ag1814
ag212
ag1712
ag1366
ag468
ag84
ag1880
ag1534
ag1478
ag946
ag1556
ag554
ag152
ag1680
ag512
ag1830
ag296
ag1804
ag1158
ag1610
ag120
ag744
ag1964
ag1852
ag492
ag182
ag1410
ag2050
ag200
ag848
ag416
ag372
ag1052
ag1824
ag494
ag2014
ag134
ag840
ag188
ag818
ag1980
ag598
asS'Ignacio P\xc3\xa9rez-Hurtado'
p2161
(lp2162
g564
ag82
ag1348
ag1732
ag1008
ag1622
ag1294
ag1966
ag1806
ag1162
ag808
ag1726
ag1390
ag776
ag640
ag636
ag1484
ag1588
ag1756
ag1758
ag1490
ag786
ag638
ag1228
ag1286
ag1494
ag44
ag1686
ag550
ag356
ag906
ag1882
ag218
ag1386
ag806
ag1908
ag1662
ag962
ag730
ag1748
ag1184
ag494
ag2010
ag1998
ag1158
ag1774
ag756
ag1570
ag1506
ag1742
ag20
ag182
ag1462
ag478
ag1940
ag442
ag532
ag876
ag1152
ag1696
ag742
ag1298
ag128
ag1460
ag570
ag1648
ag1834
ag1296
ag414
ag1864
ag270
ag1092
ag46
ag300
ag1256
ag554
ag412
ag1078
ag1878
ag1266
ag1136
ag760
ag1950
ag1322
ag1956
ag590
ag1010
ag464
ag950
ag686
ag1716
ag1132
ag606
ag1206
ag1842
ag24
ag992
ag1012
ag836
ag616
ag872
ag1056
ag938
ag1072
ag728
ag514
ag416
ag1576
ag130
ag1422
ag1368
ag980
ag1740
ag1300
ag1832
ag1692
ag1710
ag476
ag1090
ag2060
ag1776
ag1852
ag1244
ag1030
ag648
ag768
ag614
ag868
ag1552
ag600
ag1372
ag364
ag158
ag2044
ag26
ag968
ag238
ag336
ag726
ag1226
ag2004
ag1392
ag282
ag1058
ag1108
ag98
ag340
ag428
ag940
ag930
ag2020
ag376
ag1600
ag320
ag114
ag1890
ag18
ag828
ag1820
ag2002
ag1064
ag1500
ag1960
ag1816
ag964
ag676
ag624
ag1562
ag1458
ag1790
ag334
ag506
ag1332
ag794
ag1652
ag1302
ag580
ag764
ag1546
ag1760
ag584
ag466
ag1616
ag1014
ag302
ag168
ag272
ag822
ag100
ag132
ag1224
ag154
ag1590
ag1664
ag690
ag1364
ag1718
ag380
ag1646
ag1666
asS'Cem Ersoy'
p2163
(lp2164
g412
ag1600
ag194
ag948
ag320
ag1994
ag1232
ag1042
ag1274
ag1004
ag420
ag1072
ag2042
ag1224
ag1620
ag852
ag1374
ag428
ag1172
ag1444
ag1872
ag754
ag1652
ag118
ag424
ag438
ag134
ag850
ag1066
ag1932
ag1842
ag1124
ag680
ag128
ag656
ag1618
ag658
ag1686
ag1032
ag1270
ag84
ag76
ag1470
ag1386
ag218
ag1704
ag738
ag1258
ag4
ag1554
ag584
ag1970
ag748
ag1474
ag598
ag74
ag96
ag1074
ag1382
ag1246
ag1724
ag1642
ag624
ag1544
ag1340
ag1886
ag1120
ag1090
ag1128
ag168
ag522
ag814
ag950
ag270
ag974
ag148
ag808
ag1906
ag518
ag1276
ag1812
ag338
ag1154
ag554
ag406
ag846
ag1104
ag1666
ag1468
ag402
ag1520
ag918
ag290
ag1460
ag684
ag268
ag1420
ag248
ag300
ag172
ag1370
ag1018
ag1640
ag1526
ag1436
ag942
ag120
ag1068
ag458
ag552
ag1536
ag546
ag1188
ag184
ag1538
ag1960
ag10
ag186
ag1260
ag1874
ag1210
ag182
ag1062
ag2028
ag1662
ag160
ag1698
ag1742
ag1054
ag348
ag1014
ag232
ag2000
ag1870
ag224
ag1968
ag640
ag920
ag1266
ag682
ag1006
ag1888
ag652
ag768
ag468
ag820
ag276
ag140
ag1524
ag44
ag496
ag312
ag50
ag1700
ag20
ag1288
ag538
ag494
ag374
ag1710
ag1388
ag516
ag380
ag1376
ag1898
ag1930
ag1730
ag2034
ag1462
ag1530
ag1732
ag596
ag882
ag1902
ag144
ag842
ag1674
ag926
ag1296
ag344
ag1864
ag946
ag368
ag1454
ag328
ag1738
ag734
ag90
ag1622
ag648
ag1646
ag1676
ag708
ag1012
ag1056
ag1546
ag816
ag1134
ag1194
ag506
asS'Tzu-Chi Huang'
p2165
(lp2166
g1364
ag1586
ag1632
ag1696
ag2000
ag364
ag872
ag622
ag640
ag1746
ag1462
ag2042
ag1580
ag642
ag1410
ag362
ag602
ag1000
ag266
ag530
ag852
ag240
ag834
ag12
ag1814
ag1968
ag818
ag14
ag494
ag1590
ag1446
ag412
ag1012
ag1978
ag1434
ag162
ag1778
ag1552
ag934
ag914
ag586
ag262
ag1734
ag504
ag140
ag1156
ag330
ag138
ag1680
ag694
ag666
ag524
ag1810
ag2032
ag608
ag1290
ag1136
ag46
ag604
ag2028
ag1654
ag1086
ag1098
ag1970
ag516
ag808
ag1958
ag1180
ag1862
ag1578
ag1784
ag356
ag998
ag1310
ag2010
ag630
ag1744
ag2044
ag1522
ag766
ag564
ag1870
ag1296
ag174
ag844
ag1154
ag1914
ag10
ag910
ag308
ag1360
ag1640
ag610
ag1040
ag1282
ag2024
ag1496
ag594
ag600
ag2006
ag526
ag230
ag388
ag1994
ag656
ag198
ag1480
ag836
ag992
ag1260
ag1642
ag340
ag700
ag534
ag498
ag1184
ag414
ag354
ag802
ag1230
ag1216
ag896
ag256
ag1546
ag1520
ag1556
ag1754
ag536
ag876
ag126
ag638
ag1982
ag726
ag950
ag996
ag620
ag1550
ag624
ag2034
ag416
ag1284
ag1150
ag1416
ag222
ag460
ag672
ag1026
ag1206
ag2004
ag1736
ag2026
ag658
ag1974
ag1562
ag722
ag1278
ag664
ag98
ag1656
ag1386
ag1506
ag1404
ag1630
ag442
ag470
ag1652
ag908
ag1864
ag1126
ag332
ag1288
ag374
ag1880
ag334
ag164
ag1846
ag1032
ag894
ag246
ag1890
ag1920
ag166
ag1908
ag552
ag1034
ag84
ag220
ag754
ag60
ag860
ag1340
ag276
ag272
ag592
ag1384
ag1244
ag64
ag1142
ag2060
ag1776
asS'Sergey Verlan'
p2167
(lp2168
g248
ag390
ag340
ag526
ag1086
ag1754
ag146
ag388
ag1332
ag618
ag72
ag1378
ag1276
ag1430
ag2028
ag264
ag1780
ag2024
ag1880
ag1136
ag1982
ag192
ag1934
ag1786
ag1652
ag178
ag638
ag598
ag98
ag1492
ag912
ag1338
ag1636
ag898
ag1964
ag1474
ag1486
ag336
ag1476
ag2026
ag1264
ag934
ag456
ag1692
ag80
ag244
ag1464
ag1080
ag1940
ag1928
ag1422
ag1608
ag150
ag1376
ag1408
ag910
ag136
ag1270
ag184
ag496
ag532
ag1572
ag1966
ag746
ag546
ag126
ag392
ag744
ag1990
ag1916
ag1428
ag232
ag1134
ag110
ag1184
ag1166
ag330
ag1012
ag2042
ag1354
ag22
ag1924
ag1600
ag874
ag1574
ag16
ag1956
ag1472
ag242
ag1306
ag1444
ag462
ag670
ag1958
ag592
ag332
ag770
ag938
ag1388
ag1156
ag352
ag990
ag364
ag420
ag1102
ag554
ag594
ag1552
ag1246
ag1538
ag1850
ag1974
ag712
ag10
ag1630
ag1700
ag1312
ag574
ag1310
ag1112
ag334
ag156
ag432
ag1532
ag342
ag1390
ag524
ag344
ag962
ag602
ag1126
ag460
ag1386
ag1200
ag1712
ag902
ag182
ag732
ag1040
ag290
ag1824
ag1580
ag1008
ag662
ag610
ag1720
ag1926
ag266
ag804
ag346
ag604
ag1272
ag674
ag906
ag1640
ag1384
ag1792
ag560
ag426
ag768
ag412
ag1896
ag1592
ag1458
ag950
ag292
ag1708
ag848
ag1906
ag36
ag1094
ag1030
ag1868
ag1968
ag1764
ag1054
ag1416
ag2006
ag1584
ag1590
ag1864
ag1140
ag120
ag1806
ag1316
ag1776
ag916
ag1222
ag928
ag82
ag1800
ag576
ag1494
ag784
ag624
ag476
ag1064
ag32
ag1760
ag1232
asS'Enzo Mingozzi'
p2169
(lp2170
g852
ag1794
ag752
ag1016
ag676
ag1648
ag72
ag1908
ag968
ag218
ag1810
ag1682
ag564
ag1720
ag914
ag148
ag1324
ag1546
ag780
ag1278
ag984
ag230
ag196
ag542
ag1462
ag396
ag84
ag1708
ag1674
ag2026
ag1578
ag460
ag798
ag32
ag1538
ag588
ag812
ag1058
ag998
ag696
ag142
ag1380
ag1826
ag1074
ag1620
ag1920
ag722
ag1346
ag1354
ag202
ag272
ag1340
ag1124
ag632
ag1170
ag1164
ag1780
ag1318
ag1942
ag1196
ag1114
ag856
ag1570
ag1092
ag778
ag286
ag1672
ag748
ag1754
ag332
ag1776
ag1418
ag1062
ag1800
ag1282
ag2002
ag1374
ag1302
ag864
ag284
ag1068
ag1494
ag658
ag492
ag642
ag352
ag1832
ag112
ag308
ag746
ag1544
ag874
ag1698
ag184
ag1210
ag762
ag430
ag1842
ag844
ag616
ag1430
ag436
ag688
ag1764
ag664
ag806
ag1026
ag1444
ag872
ag842
ag122
ag868
ag786
ag190
ag714
ag1716
ag1368
ag1158
ag944
ag1556
ag2036
ag942
ag1194
ag246
ag570
ag116
ag1916
ag398
ag174
ag1230
ag14
ag614
ag1308
ag224
ag728
ag1714
ag1204
ag2032
ag1730
ag862
ag144
ag724
ag1366
ag1352
ag350
ag1020
ag952
ag1586
ag742
ag374
ag1242
ag444
ag1018
ag316
ag1940
ag1510
ag1512
ag1644
ag1724
ag1574
ag138
ag1838
ag2014
ag1772
ag1968
ag590
ag1206
ag1668
ag1516
ag1382
ag1918
ag346
ag602
ag1420
ag830
ag1688
ag1664
ag668
ag124
ag1998
ag1294
ag1128
ag1080
ag1476
ag650
ag1886
ag1542
ag1272
ag1148
ag1870
ag1268
ag1928
ag372
ag134
ag1014
ag1254
ag1214
ag20
ag758
ag1982
asS'Alok Gupta'
p2171
(lp2172
g1696
ag1558
ag1026
ag1324
ag1470
ag162
ag2006
ag1408
ag2002
ag914
ag374
ag1762
ag1782
ag552
ag582
ag844
ag1492
ag1578
ag1494
ag494
ag1586
ag854
ag1974
ag62
ag1874
ag864
ag1862
ag636
ag50
ag704
ag488
ag1302
ag1570
ag1478
ag164
ag1312
ag2036
ag856
ag168
ag954
ag1692
ag1300
ag898
ag1702
ag1438
ag1872
ag1332
ag1752
ag786
ag366
ag626
ag1946
ag234
ag1174
ag1824
ag774
ag1724
ag1278
ag1394
ag1674
ag130
ag680
ag678
ag1510
ag38
ag260
ag1128
ag1452
ag446
ag20
ag1024
ag282
ag1160
ag206
ag222
ag1192
ag574
ag722
ag960
ag212
ag72
ag656
ag1264
ag1396
ag1152
ag892
ag1828
ag650
ag1342
ag1924
ag1822
ag188
ag52
ag146
ag352
ag590
ag1228
ag440
ag1416
ag690
ag1770
ag1274
ag70
ag840
ag348
ag694
ag666
ag346
ag1406
ag1758
ag480
ag1760
ag56
ag862
ag1098
ag1356
ag272
ag1230
ag1350
ag1530
ag1106
ag1410
ag402
ag1722
ag640
ag266
ag214
ag2050
ag1454
ag1588
ag672
ag922
ag948
ag520
ag768
ag1050
ag1484
ag1330
ag736
ag350
ag1272
ag1426
ag58
ag34
ag286
ag246
ag1068
ag1864
ag514
ag1244
ag1550
ag884
ag956
ag968
ag1622
ag1998
ag1964
ag728
ag1800
ag1554
ag1210
ag1766
ag1460
ag1002
ag988
ag1518
ag304
ag1878
ag1182
ag1178
ag344
ag1204
ag1614
ag172
ag906
ag410
ag1574
ag904
ag1618
ag438
ag560
ag1602
ag1280
ag588
ag600
ag1316
ag1104
ag430
ag270
ag1566
ag1184
ag1930
ag1980
ag928
ag526
ag664
ag456
ag64
ag1776
ag1898
asS'Mohammad Reza Meybodi'
p2173
(lp2174
g1822
ag1940
ag386
ag66
ag516
ag698
ag1422
ag394
ag428
ag568
ag164
ag1488
ag740
ag1776
ag1116
ag1176
ag912
ag1924
ag2068
ag1412
ag1160
ag862
ag1754
ag360
ag786
ag518
ag712
ag238
ag36
ag1464
ag1678
ag342
ag1864
ag1192
ag602
ag1342
ag624
ag412
ag978
ag482
ag1304
ag450
ag1876
ag586
ag86
ag4
ag50
ag1346
ag1400
ag358
ag78
ag356
ag1496
ag1640
ag252
ag1012
ag390
ag1878
ag1146
ag42
ag1088
ag860
ag6
ag28
ag298
ag848
ag1604
ag172
ag1716
ag1046
ag1034
ag540
ag628
ag446
ag2034
ag1330
ag1110
ag480
ag284
ag1334
ag1546
ag1098
ag1610
ag426
ag2060
ag900
ag76
ag1538
ag182
ag648
ag930
ag924
ag1024
ag1922
ag418
ag820
ag1628
ag132
ag950
ag74
ag1734
ag1120
ag370
ag1572
ag1606
ag230
ag1484
ag166
ag1392
ag784
ag124
ag660
ag108
ag670
ag504
ag1460
ag1104
ag158
ag750
ag1586
ag1060
ag620
ag112
ag396
ag704
ag1506
ag1820
ag310
ag842
ag80
ag514
ag290
ag1790
ag546
ag1852
ag1960
ag926
ag1920
ag1296
ag1552
ag242
ag1968
ag1114
ag220
ag192
ag1574
ag1806
ag2032
ag214
ag106
ag1580
ag898
ag1568
ag1182
ag350
ag958
ag1720
ag854
ag996
ag1402
ag1986
ag1414
ag1722
ag1564
ag110
ag1052
ag936
ag1594
ag1886
ag258
ag1008
ag506
ag30
ag1842
ag478
ag1800
ag556
ag1118
ag1332
ag202
ag466
ag288
ag64
ag1526
ag1000
ag280
ag1094
ag1184
ag688
ag234
ag940
ag1632
ag1704
ag1468
ag1928
ag1374
ag1602
ag1914
ag388
ag1086
asS'Bruno Tuffin'
p2175
(lp2176
g1768
ag340
ag722
ag534
ag1722
ag1772
ag1762
ag1536
ag122
ag724
ag1260
ag1636
ag474
ag1300
ag1204
ag428
ag1564
ag1740
ag1886
ag1044
ag1024
ag718
ag1912
ag1546
ag590
ag1766
ag162
ag136
ag626
ag1302
ag1104
ag1502
ag904
ag1640
ag436
ag932
ag1310
ag1662
ag1246
ag508
ag1064
ag168
ag1702
ag1958
ag1812
ag712
ag578
ag1426
ag690
ag1284
ag420
ag1210
ag768
ag684
ag1440
ag1878
ag356
ag44
ag372
ag698
ag398
ag754
ag812
ag510
ag246
ag1084
ag1328
ag312
ag944
ag1642
ag1484
ag46
ag102
ag1384
ag412
ag664
ag1434
ag1942
ag1318
ag602
ag170
ag1908
ag666
ag660
ag1866
ag8
ag1962
ag166
ag956
ag252
ag1624
ag1712
ag236
ag1466
ag160
ag624
ag1136
ag468
ag206
ag506
ag1020
ag4
ag632
ag958
ag1418
ag966
ag1888
ag1922
ag628
ag776
ag2020
ag568
ag1356
ag1814
ag1572
ag466
ag1006
ag1786
ag1590
ag1456
ag650
ag856
ag1528
ag348
ag570
ag862
ag1462
ag454
ag1750
ag1116
ag278
ag1684
ag1734
ag1068
ag962
ag876
ag1956
ag778
ag1056
ag1838
ag614
ag670
ag606
ag308
ag1630
ag1708
ag1364
ag318
ag710
ag1444
ag1554
ag14
ag1234
ag794
ag388
ag1268
ag1374
ag1222
ag1960
ag182
ag1704
ag672
ag1206
ag558
ag1458
ag1478
ag1924
ag540
ag764
ag1660
ag1756
ag1864
ag1934
ag1184
ag216
ag1694
ag900
ag774
ag488
ag1986
ag1390
ag1446
ag980
ag1920
ag1496
ag1840
ag2060
ag1824
ag1098
ag108
ag154
ag1108
ag1092
ag1926
ag1516
ag248
ag1406
ag1918
ag1940
ag942
asS'Xiang-Yang Li'
p2177
(lp2178
g504
ag158
ag1872
ag934
ag1186
ag1934
ag652
ag472
ag1340
ag674
ag1268
ag1038
ag142
ag1912
ag344
ag174
ag34
ag1338
ag636
ag1330
ag1786
ag8
ag1140
ag1610
ag1402
ag944
ag1962
ag1572
ag468
ag1514
ag342
ag144
ag638
ag1114
ag568
ag394
ag1028
ag574
ag354
ag1366
ag1660
ag1380
ag1832
ag18
ag770
ag706
ag452
ag696
ag1646
ag1360
ag1682
ag1056
ag596
ag270
ag70
ag326
ag1662
ag676
ag532
ag334
ag1946
ag830
ag1052
ag1784
ag1024
ag308
ag1972
ag322
ag1352
ag650
ag602
ag1854
ag2006
ag1176
ag1226
ag1066
ag1510
ag1724
ag368
ag210
ag384
ag1638
ag170
ag86
ag1452
ag316
ag1012
ag446
ag1614
ag186
ag730
ag842
ag990
ag1670
ag68
ag654
ag1594
ag176
ag178
ag1044
ag514
ag550
ag782
ag1018
ag314
ag454
ag498
ag1198
ag766
ag90
ag1842
ag662
ag2044
ag208
ag1208
ag1392
ag1752
ag1820
ag736
ag1846
ag1768
ag1196
ag1436
ag814
ag1004
ag312
ag52
ag438
ag392
ag444
ag1824
ag1466
ag1634
ag1748
ag1202
ag434
ag1848
ag1802
ag1468
ag754
ag1952
ag30
ag1774
ag920
ag1220
ag1680
ag1434
ag1570
ag1076
ag1422
ag756
ag1134
ag184
ag1886
ag168
ag1708
ag126
ag2026
ag1264
ag566
ag1312
ag592
ag1966
ag774
ag124
ag456
ag1942
ag426
ag390
ag304
ag1440
ag848
ag536
ag802
ag1162
ag1674
ag1806
ag732
ag1672
ag1142
ag362
ag752
ag1490
ag688
ag1504
ag1900
ag906
ag396
ag102
ag236
ag1542
ag1546
ag198
ag582
ag1396
ag1278
ag418
ag1276
ag1762
ag526
asS'Georgios Kambourakis'
p2179
(lp2180
g568
ag952
ag1194
ag374
ag130
ag822
ag636
ag1038
ag1838
ag1834
ag1014
ag562
ag1954
ag1086
ag66
ag418
ag1124
ag1262
ag208
ag798
ag324
ag1722
ag1392
ag1584
ag1388
ag852
ag480
ag1760
ag1844
ag620
ag362
ag78
ag826
ag1316
ag524
ag1236
ag876
ag914
ag1460
ag1754
ag1944
ag770
ag616
ag556
ag598
ag1764
ag1146
ag1386
ag118
ag1930
ag902
ag156
ag8
ag280
ag88
ag640
ag584
ag704
ag1582
ag868
ag1604
ag946
ag1876
ag1380
ag856
ag1644
ag414
ag1522
ag922
ag1860
ag724
ag810
ag1270
ag1040
ag580
ag328
ag642
ag166
ag1510
ag308
ag1294
ag16
ag348
ag1530
ag970
ag1912
ag1158
ag426
ag1532
ag1868
ag316
ag1612
ag988
ag760
ag1156
ag2050
ag306
ag1882
ag1776
ag1228
ag1934
ag1396
ag196
ag400
ag1654
ag1218
ag188
ag1500
ag1126
ag918
ag134
ag446
ag578
ag1880
ag1020
ag786
ag1520
ag1372
ag1660
ag92
ag926
ag554
ag1852
ag10
ag1950
ag50
ag1424
ag1402
ag1000
ag708
ag758
ag1234
ag98
ag1414
ag1282
ag1490
ag474
ag32
ag880
ag1238
ag752
ag1016
ag346
ag928
ag1820
ag1246
ag748
ag824
ag158
ag754
ag1734
ag1772
ag1576
ag1116
ag1266
ag220
ag1528
ag1688
ag1566
ag1034
ag1498
ag1406
ag1352
ag382
ag1730
ag1762
ag2042
ag1504
ag1972
ag802
ag1342
ag1562
ag222
ag116
ag494
ag124
ag1608
ag204
ag406
ag434
ag266
ag686
ag658
ag496
ag56
ag1626
ag1022
ag224
ag342
ag1190
ag226
ag1652
ag1602
ag214
ag340
ag1140
ag1748
ag1606
ag1792
ag1036
asS'Yong Tan'
p2181
(lp2182
g1316
ag1896
ag1766
ag2014
ag172
ag1082
ag2020
ag1484
ag1790
ag232
ag78
ag396
ag510
ag1570
ag1108
ag1716
ag1718
ag418
ag444
ag898
ag1256
ag1106
ag632
ag266
ag452
ag498
ag868
ag340
ag1608
ag1016
ag1852
ag728
ag1078
ag426
ag1028
ag668
ag492
ag648
ag214
ag8
ag1142
ag532
ag1398
ag240
ag620
ag866
ag1942
ag312
ag1610
ag874
ag1518
ag990
ag332
ag1670
ag1374
ag210
ag1486
ag552
ag302
ag1916
ag1064
ag1420
ag534
ag578
ag962
ag528
ag1376
ag1822
ag1826
ag524
ag1724
ag1332
ag282
ag1258
ag1400
ag80
ag630
ag756
ag1634
ag1364
ag358
ag1186
ag1048
ag464
ag322
ag1304
ag1746
ag758
ag186
ag1380
ag1458
ag822
ag1320
ag914
ag1694
ag54
ag362
ag1982
ag334
ag1536
ag300
ag1900
ag1922
ag1080
ag1696
ag1390
ag86
ag304
ag1356
ag950
ag1134
ag1768
ag394
ag608
ag24
ag2036
ag1692
ag1698
ag468
ag102
ag670
ag1490
ag62
ag66
ag1240
ag1000
ag646
ag416
ag1032
ag966
ag414
ag16
ag802
ag1068
ag1872
ag1678
ag366
ag810
ag1116
ag816
ag1328
ag750
ag1690
ag1092
ag604
ag796
ag1576
ag1686
ag280
ag1244
ag1786
ag1544
ag538
ag940
ag656
ag220
ag356
ag678
ag1532
ag1590
ag598
ag164
ag1156
ag1118
ag580
ag1472
ag218
ag1132
ag892
ag1422
ag6
ag352
ag738
ag1174
ag886
ag230
ag1838
ag864
ag1796
ag1286
ag1218
ag1314
ag1744
ag1868
ag714
ag212
ag974
ag944
ag156
ag640
ag1208
ag1986
ag614
ag896
ag92
ag318
ag1778
ag1436
ag1926
ag114
asS'David J. Hand'
p2183
(lp2184
g270
ag1152
ag1072
ag1830
ag1368
ag852
ag408
ag1370
ag1484
ag1384
ag2000
ag920
ag818
ag304
ag186
ag1268
ag1790
ag1932
ag1306
ag1748
ag90
ag1032
ag342
ag1000
ag810
ag1508
ag894
ag624
ag1196
ag556
ag1356
ag1572
ag68
ag1134
ag1636
ag1714
ag504
ag1652
ag74
ag356
ag1058
ag768
ag610
ag88
ag1332
ag688
ag1644
ag956
ag1954
ag520
ag1206
ag1170
ag1184
ag222
ag42
ag1106
ag604
ag998
ag1792
ag444
ag126
ag1092
ag630
ag458
ag1292
ag1020
ag1442
ag1908
ag1262
ag972
ag676
ag762
ag1414
ag2068
ag1532
ag64
ag1108
ag1198
ag824
ag1680
ag452
ag466
ag8
ag18
ag206
ag1892
ag1802
ag1486
ag1438
ag772
ag1162
ag696
ag1398
ag2060
ag1352
ag1194
ag1012
ag1320
ag706
ag112
ag1518
ag114
ag1186
ag306
ag378
ag1042
ag1806
ag1346
ag76
ag1794
ag1568
ag92
ag1494
ag1920
ag698
ag204
ag1274
ag820
ag1706
ag32
ag398
ag1764
ag422
ag1010
ag1122
ag1550
ag132
ag1874
ag1244
ag536
ag948
ag460
ag982
ag1056
ag1468
ag1430
ag1900
ag1528
ag1312
ag716
ag1104
ag414
ag1506
ag770
ag316
ag896
ag1464
ag612
ag86
ag1360
ag1182
ag1514
ag1704
ag530
ag1074
ag1002
ag1938
ag1228
ag590
ag1234
ag330
ag1534
ag80
ag1488
ag84
ag174
ag642
ag1510
ag598
ag426
ag1036
ag44
ag1600
ag916
ag1796
ag670
ag968
ag1330
ag358
ag220
ag1202
ag1688
ag776
ag464
ag1606
ag1428
ag944
ag290
ag1960
ag1690
ag1726
ag416
ag1098
ag1786
ag102
ag516
ag1458
ag432
ag254
ag140
asS'Josep Sol\xc3\xa9-Pareta'
p2185
(lp2186
g458
ag1110
ag490
ag426
ag1600
ag1202
ag1850
ag1890
ag906
ag1020
ag518
ag504
ag1960
ag994
ag1846
ag1544
ag938
ag676
ag1918
ag82
ag932
ag1508
ag610
ag336
ag262
ag1496
ag146
ag36
ag588
ag664
ag276
ag376
ag1106
ag124
ag980
ag452
ag98
ag346
ag166
ag886
ag924
ag68
ag646
ag104
ag1808
ag790
ag1192
ag952
ag472
ag528
ag1556
ag330
ag8
ag234
ag1000
ag542
ag860
ag1468
ag2036
ag778
ag1954
ag590
ag300
ag1784
ag1374
ag2010
ag1160
ag1872
ag106
ag894
ag1864
ag580
ag1112
ag598
ag1610
ag1688
ag1998
ag1222
ag770
ag898
ag1138
ag94
ag1832
ag1318
ag1648
ag1720
ag1726
ag1486
ag324
ag304
ag138
ag1404
ag838
ag1290
ag1488
ag1130
ag890
ag228
ag850
ag2020
ag738
ag1554
ag970
ag1852
ag1024
ag1080
ag926
ag44
ag12
ag1450
ag1040
ag288
ag776
ag478
ag1010
ag144
ag1746
ag1214
ag1822
ag1148
ag968
ag370
ag1286
ag874
ag1868
ag218
ag656
ag1028
ag60
ag64
ag582
ag620
ag1634
ag180
ag72
ag1606
ag58
ag1120
ag448
ag854
ag1690
ag1824
ag140
ag1198
ag1114
ag1584
ag356
ag1272
ag1592
ag260
ag892
ag648
ag1058
ag420
ag114
ag602
ag112
ag954
ag1006
ag1638
ag1150
ag1352
ag340
ag1522
ag712
ag1306
ag644
ag2028
ag1256
ag1578
ag1724
ag214
ag1766
ag1166
ag236
ag1944
ag118
ag880
ag1474
ag1102
ag456
ag532
ag412
ag134
ag1932
ag774
ag1236
ag414
ag1842
ag1322
ag756
ag964
ag1806
ag1228
ag508
ag1366
ag534
ag388
ag768
ag1344
asS'Ke Xu'
p2187
(lp2188
g648
ag1332
ag856
ag10
ag2050
ag1152
ag1190
ag810
ag320
ag334
ag1348
ag80
ag1530
ag1032
ag1364
ag1752
ag1264
ag384
ag1732
ag190
ag100
ag1908
ag76
ag414
ag632
ag1180
ag808
ag224
ag858
ag1412
ag306
ag50
ag1502
ag1790
ag1136
ag300
ag1784
ag1756
ag1674
ag1792
ag1428
ag1588
ag1598
ag1378
ag1714
ag800
ag1166
ag144
ag422
ag620
ag1438
ag1880
ag1358
ag1758
ag1278
ag1380
ag1780
ag834
ag1924
ag1300
ag916
ag472
ag1982
ag538
ag1988
ag444
ag1642
ag668
ag740
ag1312
ag688
ag1198
ag1826
ag996
ag1052
ag1516
ag1452
ag1184
ag1576
ag1838
ag2006
ag1884
ag1666
ag1942
ag910
ag1148
ag88
ag650
ag1866
ag1174
ag1410
ag1130
ag436
ag1480
ag1076
ag1864
ag844
ag704
ag580
ag664
ag540
ag340
ag1036
ag1512
ag22
ag220
ag1772
ag1070
ag1836
ag984
ag1234
ag1726
ag760
ag1818
ag1688
ag1456
ag826
ag216
ag358
ag502
ag1210
ag956
ag154
ag1108
ag696
ag854
ag454
ag110
ag96
ag626
ag1938
ag288
ag528
ag982
ag208
ag176
ag1678
ag462
ag616
ag724
ag252
ag1762
ag1552
ag802
ag1060
ag194
ag82
ag1466
ag974
ag1142
ag530
ag116
ag1804
ag1020
ag1628
ag198
ag1026
ag442
ag1294
ag1282
ag524
ag1546
ag354
ag1894
ag426
ag1682
ag430
ag1962
ag1416
ag48
ag788
ag362
ag1214
ag1374
ag1878
ag452
ag1270
ag1542
ag138
ag162
ag880
ag2014
ag1012
ag1044
ag1744
ag1030
ag1550
ag922
ag202
ag1004
ag1848
ag182
ag932
ag868
ag124
ag1000
ag1870
ag1028
ag534
ag90
asS'Paolo Soda'
p2189
(lp2190
g1786
ag460
ag938
ag1016
ag1084
ag1160
ag1710
ag824
ag650
ag964
ag2042
ag114
ag358
ag648
ag718
ag1166
ag388
ag132
ag20
ag1126
ag654
ag1640
ag1116
ag1556
ag1156
ag924
ag412
ag784
ag1188
ag992
ag1460
ag1746
ag1622
ag1890
ag1074
ag1330
ag1450
ag472
ag1760
ag308
ag418
ag1736
ag440
ag126
ag862
ag838
ag876
ag1552
ag1134
ag1756
ag682
ag1878
ag1038
ag1990
ag750
ag674
ag638
ag1914
ag504
ag1834
ag1822
ag1372
ag592
ag1686
ag1880
ag320
ag690
ag1352
ag1864
ag140
ag912
ag1422
ag1132
ag904
ag830
ag1554
ag790
ag774
ag470
ag804
ag896
ag1206
ag312
ag662
ag1080
ag1392
ag1574
ag1974
ag1376
ag1850
ag1252
ag1124
ag1510
ag2012
ag1404
ag1592
ag1898
ag464
ag616
ag1702
ag30
ag1462
ag1186
ag694
ag1816
ag342
ag1042
ag776
ag1370
ag458
ag556
ag914
ag758
ag952
ag368
ag340
ag1616
ag624
ag1630
ag1178
ag1024
ag746
ag352
ag1082
ag1088
ag324
ag666
ag1626
ag622
ag366
ag510
ag1930
ag86
ag524
ag972
ag1518
ag264
ag272
ag1210
ag1636
ag1250
ag1368
ag948
ag1270
ag1876
ag120
ag1674
ag1018
ag88
ag58
ag1698
ag1748
ag1142
ag1478
ag1308
ag980
ag1666
ag26
ag1014
ag210
ag72
ag442
ag1208
ag486
ag802
ag796
ag1268
ag836
ag1570
ag1110
ag158
ag646
ag1536
ag1590
ag1608
ag146
ag1632
ag1614
ag216
ag872
ag1618
ag548
ag1582
ag1200
ag1306
ag1028
ag1598
ag1130
ag1204
ag268
ag256
ag430
ag392
ag1908
ag494
ag500
ag160
ag956
ag1924
ag1416
asS'Marcelo Dias de Amorim'
p2191
(lp2192
g1708
ag1452
ag1240
ag2010
ag134
ag1152
ag854
ag808
ag260
ag116
ag762
ag222
ag1720
ag1986
ag1216
ag272
ag1888
ag1500
ag1836
ag306
ag1952
ag1616
ag1484
ag100
ag1028
ag186
ag558
ag460
ag8
ag1698
ag218
ag804
ag588
ag1494
ag1392
ag906
ag1590
ag1008
ag358
ag1868
ag140
ag954
ag852
ag212
ag1062
ag374
ag1146
ag634
ag1602
ag650
ag1360
ag1016
ag1784
ag1032
ag1304
ag1512
ag1258
ag924
ag1894
ag1476
ag1942
ag214
ag570
ag1460
ag146
ag1732
ag1722
ag1456
ag1922
ag1504
ag1230
ag1406
ag456
ag1196
ag1620
ag250
ag806
ag1814
ag670
ag138
ag1906
ag1478
ag864
ag1544
ag1800
ag1502
ag708
ag444
ag10
ag530
ag1204
ag1150
ag882
ag504
ag916
ag1824
ag1186
ag1520
ag1730
ag1086
ag1770
ag1374
ag236
ag1578
ag526
ag106
ag1882
ag1680
ag82
ag554
ag182
ag2012
ag1194
ag18
ag1326
ag908
ag996
ag1214
ag1292
ag1050
ag574
ag1052
ag1726
ag1474
ag1926
ag1598
ag124
ag592
ag602
ag1466
ag698
ag118
ag1752
ag1900
ag1324
ag876
ag120
ag288
ag1962
ag324
ag904
ag870
ag2000
ag1408
ag1694
ag862
ag224
ag1832
ag710
ag890
ag276
ag1116
ag1802
ag1100
ag422
ag1774
ag606
ag1712
ag1398
ag1244
ag1202
ag1454
ag1414
ag674
ag196
ag1696
ag1808
ag32
ag926
ag80
ag894
ag648
ag228
ag44
ag1296
ag1516
ag686
ag608
ag520
ag1388
ag1540
ag702
ag430
ag252
ag1924
ag1094
ag1670
ag764
ag1938
ag718
ag1410
ag814
ag1160
ag1234
ag1174
ag604
ag1864
ag694
ag878
ag394
asS'Davide Careglio'
p2193
(lp2194
g386
ag1928
ag1680
ag1564
ag1196
ag744
ag2020
ag2000
ag1958
ag590
ag122
ag1518
ag1854
ag1980
ag1890
ag1618
ag1764
ag892
ag1558
ag1730
ag1844
ag1424
ag626
ag806
ag962
ag162
ag228
ag104
ag1526
ag1832
ag248
ag478
ag474
ag1444
ag1158
ag1294
ag442
ag1978
ag648
ag610
ag1774
ag418
ag1970
ag1570
ag142
ag118
ag816
ag314
ag1930
ag1916
ag312
ag188
ag114
ag1052
ag1096
ag176
ag1992
ag1030
ag2026
ag280
ag628
ag2012
ag1826
ag1176
ag1384
ag402
ag996
ag1404
ag760
ag1746
ag406
ag756
ag814
ag1940
ag80
ag1778
ag1334
ag1260
ag1582
ag1882
ag1204
ag770
ag664
ag502
ag1068
ag126
ag1370
ag1972
ag1632
ag1034
ag982
ag1416
ag1726
ag1274
ag1636
ag120
ag1752
ag342
ag560
ag2060
ag570
ag82
ag2010
ag636
ag456
ag1122
ag1340
ag1860
ag992
ag1178
ag1470
ag1704
ag170
ag76
ag946
ag1838
ag164
ag1546
ag1108
ag384
ag1768
ag688
ag1818
ag538
ag1368
ag696
ag722
ag308
ag1448
ag1236
ag838
ag1642
ag1812
ag216
ag1308
ag936
ag662
ag1282
ag964
ag1788
ag830
ag582
ag1524
ag1634
ag802
ag1588
ag1266
ag1742
ag84
ag1376
ag1852
ag1926
ag914
ag1950
ag1786
ag116
ag736
ag1710
ag488
ag346
ag460
ag1406
ag254
ag1084
ag1200
ag1186
ag808
ag274
ag934
ag558
ag640
ag668
ag1474
ag1208
ag748
ag774
ag62
ag764
ag1164
ag230
ag30
ag872
ag252
ag972
ag1434
ag1078
ag1896
ag1252
ag320
ag34
ag1354
ag1490
ag1792
ag1684
ag630
ag1556
ag1332
ag956
ag302
ag1630
asS'Pin-Han Ho'
p2195
(lp2196
g1222
ag2006
ag1046
ag398
ag436
ag1540
ag542
ag1094
ag1740
ag1652
ag1550
ag952
ag466
ag1590
ag90
ag1526
ag342
ag1778
ag858
ag618
ag1916
ag610
ag1958
ag650
ag1650
ag522
ag330
ag1584
ag516
ag300
ag152
ag1920
ag1872
ag1796
ag1274
ag478
ag1118
ag1638
ag1100
ag192
ag1706
ag692
ag254
ag1484
ag164
ag1128
ag1452
ag532
ag1148
ag1370
ag36
ag534
ag1492
ag986
ag1696
ag914
ag306
ag48
ag1104
ag244
ag1830
ag1276
ag756
ag100
ag256
ag1420
ag1926
ag614
ag1954
ag1244
ag1250
ag1786
ag212
ag910
ag1876
ag1618
ag1558
ag924
ag352
ag514
ag1120
ag268
ag304
ag1286
ag1002
ag1552
ag1824
ag550
ag314
ag700
ag838
ag162
ag502
ag1834
ag1892
ag1252
ag634
ag744
ag1656
ag1978
ag40
ag800
ag1940
ag1372
ag136
ag1072
ag996
ag58
ag1554
ag958
ag1268
ag264
ag1308
ag332
ag430
ag1820
ag1906
ag1180
ag1356
ag1506
ag1970
ag34
ag880
ag664
ag118
ag324
ag1360
ag1254
ag296
ag1374
ag414
ag820
ag902
ag882
ag470
ag494
ag1216
ag1688
ag22
ag1738
ag158
ag1450
ag968
ag1198
ag230
ag322
ag1358
ag1774
ag1756
ag822
ag1982
ag1140
ag464
ag1086
ag1376
ag1494
ag688
ag1262
ag156
ag710
ag1698
ag1902
ag992
ag1410
ag724
ag1722
ag278
ag1058
ag130
ag728
ag766
ag204
ag284
ag792
ag396
ag524
ag870
ag594
ag1734
ag678
ag462
ag1886
ag178
ag778
ag232
ag458
ag26
ag1078
ag334
ag936
ag1880
ag946
ag814
ag604
ag922
ag1444
ag2000
ag860
ag1792
ag1004
asS'Matthias Templ'
p2197
(lp2198
g878
ag960
ag1028
ag416
ag422
ag852
ag550
ag1828
ag906
ag1840
ag794
ag1988
ag1522
ag332
ag772
ag76
ag1940
ag1398
ag1346
ag944
ag78
ag1938
ag1184
ag124
ag954
ag1748
ag1918
ag1222
ag1664
ag1390
ag1710
ag186
ag658
ag244
ag1100
ag476
ag280
ag1968
ag1794
ag822
ag1298
ag648
ag750
ag1808
ag1978
ag456
ag800
ag752
ag632
ag232
ag570
ag1366
ag1680
ag266
ag14
ag1248
ag1602
ag1380
ag988
ag1922
ag824
ag408
ag1128
ag202
ag1820
ag814
ag1702
ag698
ag336
ag562
ag298
ag352
ag736
ag448
ag1024
ag1216
ag1254
ag1610
ag1974
ag640
ag1296
ag908
ag1062
ag1480
ag482
ag1342
ag746
ag662
ag1144
ag88
ag828
ag806
ag556
ag1060
ag1110
ag502
ag108
ag2068
ag348
ag1786
ag986
ag452
ag1814
ag1956
ag1244
ag534
ag872
ag1242
ag94
ag1130
ag360
ag958
ag282
ag1192
ag1568
ag2050
ag1590
ag1684
ag1740
ag1502
ag1532
ag470
ag1142
ag1384
ag890
ag846
ag714
ag42
ag492
ag386
ag1678
ag816
ag168
ag1004
ag536
ag1718
ag1942
ag1376
ag586
ag1990
ag1586
ag1082
ag1554
ag682
ag1906
ag740
ag1086
ag1400
ag1584
ag1846
ag510
ag340
ag1274
ag870
ag526
ag1886
ag592
ag2014
ag1448
ag742
ag842
ag2044
ag1096
ag294
ag1220
ag1606
ag516
ag1134
ag1278
ag418
ag980
ag732
ag868
ag22
ag338
ag766
ag370
ag904
ag164
ag40
ag1326
ag292
ag1414
ag826
ag434
ag622
ag704
ag1588
ag1456
ag1000
ag1120
ag290
ag1880
ag1642
ag144
ag1796
ag598
ag1624
ag504
ag1746
asS'Claudio Bettini'
p2199
(lp2200
g1328
ag1370
ag1256
ag180
ag1520
ag424
ag450
ag948
ag140
ag660
ag774
ag1250
ag1000
ag1324
ag1474
ag346
ag1284
ag114
ag1606
ag1758
ag654
ag778
ag968
ag232
ag620
ag1258
ag520
ag1734
ag268
ag1306
ag1264
ag756
ag954
ag784
ag762
ag1192
ag1292
ag1054
ag1508
ag826
ag964
ag1634
ag370
ag1434
ag1320
ag1300
ag582
ag794
ag1060
ag610
ag1510
ag1188
ag1176
ag850
ag1592
ag2036
ag1742
ag748
ag838
ag1274
ag462
ag922
ag1662
ag246
ag882
ag534
ag1616
ag934
ag668
ag1810
ag1366
ag1086
ag644
ag780
ag444
ag1788
ag226
ag1702
ag1526
ag1340
ag1576
ag550
ag438
ag492
ag1972
ag2042
ag1846
ag248
ag1466
ag1446
ag1072
ag1650
ag544
ag658
ag1424
ag728
ag218
ag876
ag1132
ag1926
ag1236
ag1490
ag454
ag1094
ag1074
ag82
ag1910
ag2060
ag1182
ag446
ag924
ag282
ag1844
ag158
ag32
ag68
ag536
ag1882
ag1382
ag66
ag1262
ag1048
ag556
ag1574
ag946
ag594
ag1642
ag1362
ag1288
ag1148
ag1644
ag1104
ag1498
ag1338
ag1630
ag1812
ag368
ag1118
ag18
ag1278
ag2000
ag798
ag1242
ag1860
ag390
ag1586
ag1212
ag1704
ag614
ag1548
ag1754
ag1070
ag782
ag1668
ag24
ag1534
ag952
ag760
ag1232
ag824
ag1646
ag832
ag472
ag1126
ag200
ag572
ag1710
ag1042
ag1900
ag1608
ag1820
ag110
ag440
ag1824
ag362
ag1672
ag656
ag1638
ag1432
ag510
ag20
ag806
ag802
ag1408
ag600
ag1112
ag1106
ag1082
ag1410
ag1402
ag320
ag28
ag1664
ag1618
ag1180
ag622
ag86
ag1818
ag1530
ag1542
as.