(dp0
S'Lionel C. Briand'
p1
(lp2
sS'Zhang Yi'
p3
(lp4
(S'Wen-Lin Yang'
p5
I2
tp6
a(S'Kun-Lung Wu'
p7
I2
tp8
a(S'Michael Dahlin'
p9
I2
tp10
a(S'Ben Shneiderman'
p11
I2
tp12
a(S'Pierangela Samarati'
p13
I2
tp14
a(S'Arun Iyengar'
p15
I2
tp16
a(S'Mark P. Joy'
p17
I2
tp18
a(S'Philip S. Yu'
p19
I2
tp20
a(S'Sushil Jajodia'
p21
I1
tp22
a(S'Mingjing Li'
p23
I1
tp24
a(S'Lakshmish Ramaswamy'
p25
I1
tp26
a(S'Eik Fun Khor'
p27
I1
tp28
a(S'Jason E. Fritts'
p29
I1
tp30
a(S'Rouhollah Rahmani'
p31
I1
tp32
a(S'Emmanuel Stefanakis'
p33
I1
tp34
a(S'Hui Zhang'
p35
I1
tp36
a(S'Ling Liu'
p37
I1
tp38
a(S'Sylvia Ratnasamy'
p39
I1
tp40
a(S'C. M. Heng'
p41
I1
tp42
a(S'Xingfu Zou'
p43
I1
tp44
a(S'Ji Cai'
p45
I1
tp46
a(S'Jiandan Zheng'
p47
I1
tp48
a(S'Maria Luisa Sapino'
p49
I1
tp50
a(S'Madhukar R. Korupolu'
p51
I1
tp52
a(S'Lin Wang'
p53
I1
tp54
a(S'Yannis Theodoridis'
p55
I1
tp56
a(S'Amol Nayate'
p57
I1
tp58
a(S'Prashant J. Shenoy'
p59
I1
tp60
a(S'Zhiwei Li'
p61
I1
tp62
a(S'Anoop George Ninan'
p63
I1
tp64
a(S'Lei Gao'
p65
I1
tp66
a(S'Krithi Ramamritham'
p67
I1
tp68
a(S'Renu Tewari'
p69
I1
tp70
a(S'Fred Douglis'
p71
I1
tp72
a(S'Edgar N. Sanchez'
p73
I1
tp74
a(S'Sally A. Goldman'
p75
I1
tp76
a(S'Wei-Ying Ma'
p77
I1
tp78
a(S'V. S. Subrahmanian'
p79
I1
tp80
a(S'Tong Heng Lee'
p81
I1
tp82
a(S'Xin Fan'
p83
I1
tp84
a(S'Guanrong Chen'
p85
I1
tp86
a(S'Timos K. Sellis'
p87
I1
tp88
a(S'Xing Xie'
p89
I1
tp90
a(S'Zheng Zhang'
p91
I1
tp92
a(S'Mark Handley'
p93
I1
tp94
a(S'Yu Chen'
p95
I1
tp96
a(S'Scott Shenker'
p97
I1
tp98
a(S'John Krettek'
p99
I1
tp100
a(S'Purushottam Kulkarni'
p101
I1
tp102
a(S'Chun Yuan'
p103
I1
tp104
a(S'Richard M. Karp'
p105
I1
tp106
asS'Mengjie Zhang'
p107
(lp108
(S'Marc Chee'
p109
I1
tp110
a(S'Krystian Ji'
p111
I1
tp112
asS'Daniel Camps-Mur'
p113
(lp114
(S'Christian Bettstetter'
p115
I2
tp116
a(S'Carlos Jesus Bernardos'
p117
I1
tp118
a(S'Albert Banchs'
p119
I1
tp120
a(S'Antonio de la Oliva'
p121
I1
tp122
a(S'Hannes Hartenstein'
p123
I1
tp124
a(S'Telemaco Melia'
p125
I1
tp126
a(S'Ignacio Soto'
p127
I1
tp128
asS'Florentin Ipate'
p129
(lp130
(S'Fernando Sancho-Caparrini'
p131
I3
tp132
a(S'Mario J. P\xc3\xa9rez-Jim\xc3\xa9nez'
p133
I3
tp134
a(S'\xc3\x81lvaro Romero Jim\xc3\xa9nez'
p135
I3
tp136
a(S'Rudolf Freund'
p137
I2
tp138
a(S'Sergey Verlan'
p139
I2
tp140
a(S'Matteo Cavaliere'
p141
I1
tp142
a(S'Ioan I. Ardelean'
p143
I1
tp144
a(S'Petr Sos\xc3\xadk'
p145
I1
tp146
asS'Daniele Riboni'
p147
(lp148
(S'Nigel Davies'
p149
I4
tp150
a(S'Christos Efstratiou'
p151
I4
tp152
a(S'Keith Cheverst'
p153
I4
tp154
a(S'Pierangela Samarati'
p155
I4
tp156
a(S'Sushil Jajodia'
p157
I3
tp158
a(S'Lalitha Suryanarayana'
p159
I2
tp160
a(S'Maria Luisa Sapino'
p161
I2
tp162
a(S'Gianpaolo Cugola'
p163
I2
tp164
a(S'Keith Mitchell'
p165
I2
tp166
a(S'Maria Ebling'
p167
I2
tp168
a(S'Daby M. Sow'
p169
I2
tp170
a(S'John S. Davis II'
p171
I2
tp172
a(S'Hans-Arno Jacobsen'
p173
I2
tp174
a(S'V. S. Subrahmanian'
p175
I2
tp176
a(S'Guruduth Banavar'
p177
I2
tp178
a(S'Johan Hjelm'
p179
I2
tp180
a(S'Hui Lei'
p181
I2
tp182
a(S'Adrian Friday'
p183
I2
tp184
a(S'Antti Takaluoma'
p185
I1
tp186
a(S'Jani M\xc3\xa4ntyj\xc3\xa4rvi'
p187
I1
tp188
a(S'Alexander Brodsky'
p189
I1
tp190
a(S'Paul Dantzig'
p191
I1
tp192
a(S'Csilla Farkas'
p193
I1
tp194
a(S'Daniel M. Dias'
p195
I1
tp196
a(S'Albrecht Schmidt'
p197
I1
tp198
a(S'Jim Challenger'
p199
I1
tp200
a(S'Arun Iyengar'
p201
I1
tp202
asS'H\xc3\xa5vard Rue'
p203
(lp204
(S'Jo\xc3\xa3o Ricardo Sato'
p205
I2
tp206
a(S'J. S. Marron'
p207
I2
tp208
a(S'Edson Amaro Jr.'
p209
I2
tp210
a(S'Cheolwoo Park'
p211
I2
tp212
a(S'Christopher J. Paciorek'
p213
I2
tp214
a(S'Pedro Alberto Morettin'
p215
I2
tp216
a(S'Paula R. Arantes'
p217
I2
tp218
a(S'Alan M. Polansky'
p219
I2
tp220
a(S'Murad S. Taqqu'
p221
I2
tp222
a(S'Stilian Stoev'
p223
I2
tp224
a(S'Sylvia Fr\xc3\xbchwirth-Schnatter'
p225
I1
tp226
a(S'Rudolf Fr\xc3\xbchwirth'
p227
I1
tp228
asS'Luigi Iannone'
p229
(lp230
(S'Clarence Filsfils'
p231
I4
tp232
a(S'Seung-Chul M. Woo'
p233
I4
tp234
a(S'Suresh Singh'
p235
I4
tp236
a(S'John Evans'
p237
I4
tp238
a(S'Jang-Ping Sheu'
p239
I2
tp240
a(S'Jean-Yves Le Boudec'
p241
I2
tp242
a(S'Catherine Rosenberg'
p243
I2
tp244
a(S'Young-Bae Ko'
p245
I2
tp246
a(S'Gene Tsudik'
p247
I2
tp248
a(S'Aline Carneiro Viana'
p249
I2
tp250
a(S'Aravind Iyer'
p251
I2
tp252
a(S'Kumar Viswanath'
p253
I2
tp254
a(S'Jos\xc3\xa9 Ferreira de Rezende'
p255
I2
tp256
a(S'Yuh-Shyan Chen'
p257
I2
tp258
a(S'Katia Obraczka'
p259
I2
tp260
a(S'Sze-Yao Ni'
p261
I2
tp262
a(S'Silvia Giordano'
p263
I2
tp264
a(S'Ljubica Blazevic'
p265
I2
tp266
a(S'Marcelo Dias de Amorim'
p267
I2
tp268
a(S'Nitin H. Vaidya'
p269
I2
tp270
a(S'Yu-Chee Tseng'
p271
I2
tp272
a(S'Brian Daugherty'
p273
I1
tp274
a(S'Jianping Wu'
p275
I1
tp276
a(S'Bruno Quoitin'
p277
I1
tp278
a(S'Cristel Pelsser'
p279
I1
tp280
a(S'Yong Cui'
p281
I1
tp282
a(S'Chris Metz'
p283
I1
tp284
a(S'Christopher Metz'
p285
I1
tp286
a(S'Olivier Bonaventure'
p287
I1
tp288
a(S'Mingwei Xu'
p289
I1
tp290
a(S'Steve Uhlig'
p291
I1
tp292
a(S'Xing Li'
p293
I1
tp294
asS'Sherali Zeadally'
p295
(lp296
(S'Boualem Benatallah'
p297
I9
tp298
a(S'Quan Z. Sheng'
p299
I7
tp300
a(S'Marlon Dumas'
p301
I5
tp302
a(S'Athman Bouguettaya'
p303
I5
tp304
a(S'Mourad Ouzzani'
p305
I5
tp306
a(S'Zakaria Maamar'
p307
I4
tp308
a(S'Brahim Medjahed'
p309
I3
tp310
a(S'Abdelmounaam Rezgui'
p311
I3
tp312
a(S'Farouk Toumani'
p313
I2
tp314
a(S'Fabio Casati'
p315
I2
tp316
a(S'Soraya Kouadri Most\xc3\xa9faoui'
p317
I2
tp318
a(S'Hamdi Yahyaoui'
p319
I2
tp320
a(S'Patricia Florissi'
p321
I1
tp322
a(S'Raghu Ramakrishnan'
p323
I1
tp324
a(S'Wil M. P. van der Aalst'
p325
I1
tp326
a(S'Agnes Lim'
p327
I1
tp328
a(S'Byunggu Yu'
p329
I1
tp330
a(S'Mario A. Lopez'
p331
I1
tp332
a(S'Maria Luisa Sapino'
p333
I1
tp334
a(S'Jonathan Sevy'
p335
I1
tp336
a(S'Bartek Kiepuszewski'
p337
I1
tp338
a(S'Ratko Orlandic'
p339
I1
tp340
a(S'Beng Chin Ooi'
p341
I1
tp342
a(S'Daniel A. Menasc\xc3\xa9'
p343
I1
tp344
a(S'Rania Khalaf'
p345
I1
tp346
a(S'Sanjiva Weerawarana'
p347
I1
tp348
a(S'Nirmal Mukhi'
p349
I1
tp350
a(S'William Nagy'
p351
I1
tp352
a(S'Alistair P. Barros'
p353
I1
tp354
a(S'Francisco Curbera'
p355
I1
tp356
a(S'Yechiam Yemini'
p357
I1
tp358
a(S'Cheng Hian Goh'
p359
I1
tp360
a(S'William C. Regli'
p361
I1
tp362
a(S'Sushil Jajodia'
p363
I1
tp364
a(S'Matthew J. Duftler'
p365
I1
tp366
a(S'V. S. Subrahmanian'
p367
I1
tp368
a(S'Kian-Lee Tan'
p369
I1
tp370
a(S'Danilo Florissi'
p371
I1
tp372
a(S'Saikou Y. Diallo'
p373
I1
tp374
a(S'David T. McWherter'
p375
I1
tp376
a(S'Venkatesh Ganti'
p377
I1
tp378
a(S'Andreas Tolk'
p379
I1
tp380
a(S'Scott T. Leutenegger'
p381
I1
tp382
a(S'Pierangela Samarati'
p383
I1
tp384
a(S'Johannes Gehrke'
p385
I1
tp386
a(S'Arthur H. M. ter Hofstede'
p387
I1
tp388
asS'Daniele Miorandi'
p389
(lp390
(S'Christian Bettstetter'
p391
I5
tp392
a(S'Xavier P\xc3\xa9rez Costa'
p393
I3
tp394
a(S'Hannes Hartenstein'
p395
I3
tp396
a(S'Yijie Han'
p397
I2
tp398
a(S'Guido H. Petit'
p399
I2
tp400
a(S'Yogesh Sankarasubramaniam'
p401
I2
tp402
a(S'Ian F. Akyildiz'
p403
I2
tp404
a(S'Danny De Vleeschauwer'
p405
I2
tp406
a(S'Jan Janssen'
p407
I2
tp408
a(S'Erdal Cayirci'
p409
I2
tp410
a(S'Armand M. Makowski'
p411
I2
tp412
a(S'Richard J. La'
p413
I2
tp414
a(S'Seungjoon Lee'
p415
I2
tp416
a(S'Weilian Su'
p417
I2
tp418
a(S'Maarten B\xc3\xbcchli'
p419
I2
tp420
a(S'G\xc3\xb6khan Mergen'
p421
I1
tp422
a(S'Jorma T. Virtamo'
p423
I1
tp424
a(S'Arup Acharya'
p425
I1
tp426
a(S'Gilles Berger-Sabbatel'
p427
I1
tp428
a(S'Anup Kumar Talukdar'
p429
I1
tp430
a(S'Esa Hyyti\xc3\xa4'
p431
I1
tp432
a(S'Peter L. Reiher'
p433
I1
tp434
a(S'Olov Schel\xc3\xa9n'
p435
I1
tp436
a(S'Saad Haj Bakry'
p437
I1
tp438
a(S'Birsen Sirkeci Mergen'
p439
I1
tp440
a(S'Raffaele Bruno'
p441
I1
tp442
a(S'Nam T. Nguyen'
p443
I1
tp444
a(S'Anna Scaglione'
p445
I1
tp446
a(S'R. Srikant'
p447
I1
tp448
a(S'Prathima Agrawal'
p449
I1
tp450
a(S'Chien-Chao Tseng'
p451
I1
tp452
a(S'Franck Rousseau'
p453
I1
tp454
a(S'B. R. Badrinath'
p455
I1
tp456
a(S'Michel Mandjes'
p457
I1
tp458
a(S'Ren-Shiou Liu'
p459
I1
tp460
a(S'Tsan-Pin Wang'
p461
I1
tp462
a(S'Bo Li'
p463
I1
tp464
a(S'Hongqiang Zhai'
p465
I1
tp466
a(S'Xi-Ren Cao'
p467
I1
tp468
a(S'Leyla Toumi'
p469
I1
tp470
a(S'Lizhong Li'
p471
I1
tp472
a(S'Avri Doria'
p473
I1
tp474
a(S'Marco Conti'
p475
I1
tp476
a(S'Gwo-Chuan Lee'
p477
I1
tp478
a(S'Christine E. Jones'
p479
I1
tp480
a(S'Anders Lindgren'
p481
I1
tp482
a(S'An-I Andy Wang'
p483
I1
tp484
a(S'Nidhi Hegde'
p485
I1
tp486
a(S'Tamer Basar'
p487
I1
tp488
a(S'Younggoo Kwon'
p489
I1
tp490
a(S'Andrzej Duda'
p491
I1
tp492
a(S'Krishna M. Sivalingam'
p493
I1
tp494
a(S'Bin Li'
p495
I1
tp496
a(S'Judith M. Myerson'
p497
I1
tp498
a(S'Yuguang Fang'
p499
I1
tp500
a(S'J. Antonio Garc\xc3\xada-Mac\xc3\xadas'
p501
I1
tp502
a(S'Geoffrey H. Kuenning'
p503
I1
tp504
a(S'Jyh-Cheng Chen'
p505
I1
tp506
a(S'Enrico Gregori'
p507
I1
tp508
a(S'Tansu Alpcan'
p509
I1
tp510
asS'Frank Kargl'
p511
(lp512
(S'Hannes Hartenstein'
p513
I4
tp514
a(S'Christian Bettstetter'
p515
I3
tp516
a(S'Xavier P\xc3\xa9rez Costa'
p517
I3
tp518
a(S'Tony K. Mak'
p519
I1
tp520
a(S'Jan Gerke'
p521
I1
tp522
a(S'Placi Flury'
p523
I1
tp524
a(S'Qing Xu'
p525
I1
tp526
a(S'Daniel Jiang'
p527
I1
tp528
a(S'Philippe Golle'
p529
I1
tp530
a(S'Peter Reichl'
p531
I1
tp532
a(S'Raja Sengupta'
p533
I1
tp534
a(S'Daniel H. Greene'
p535
I1
tp536
a(S'Jessica Staddon'
p537
I1
tp538
a(S'Burkhard Stiller'
p539
I1
tp540
a(S'Jeff Ko'
p541
I1
tp542
a(S'Marc Torrent-Moreno'
p543
I1
tp544
asS'Naixue Xiong'
p545
(lp546
(S'Chris Wells'
p547
I1
tp548
a(S'Vaduvur Bharghavan'
p549
I1
tp550
a(S'Dennis Geels'
p551
I1
tp552
a(S'Ben Y. Zhao'
p553
I1
tp554
a(S'Manfred Hauswirth'
p555
I1
tp556
a(S'Karl Aberer'
p557
I1
tp558
a(S'Magdalena Punceva'
p559
I1
tp560
a(S'Sean C. Rhea'
p561
I1
tp562
a(S'Patrick R. Eaton'
p563
I1
tp564
a(S'Thyagarajan Nandagopal'
p565
I1
tp566
a(S'Roman Schmidt'
p567
I1
tp568
a(S'John Kubiatowicz'
p569
I1
tp570
a(S'Songwu Lu'
p571
I1
tp572
a(S'Hakim Weatherspoon'
p573
I1
tp574
asS'Yurii Rogozhin'
p575
(lp576
sS'Albert Cabellos-Aparicio'
p577
(lp578
(S'Patrick Droz'
p579
I2
tp580
a(S'Robert Haas'
p581
I2
tp582
a(S'Daniel Bauer'
p583
I2
tp584
a(S'Abdulmohsen A. Alheraish'
p585
I1
tp586
a(S'Saad Haj Bakry'
p587
I1
tp588
a(S'Bassam Al-Bassam'
p589
I1
tp590
asS'Edwin M. M. Ortega'
p591
(lp592
(S'Debasis Kundu'
p593
I1
tp594
a(S'Jos\xc3\xa9 G. Dias'
p595
I1
tp596
a(S'Michel Wedel'
p597
I1
tp598
a(S'H. K. T. Ng'
p599
I1
tp600
a(S'N. Balakrishnan'
p601
I1
tp602
a(S'John Geweke'
p603
I1
tp604
asS'Rudolf Freund'
p605
(lp606
(S'Mario J. P\xc3\xa9rez-Jim\xc3\xa9nez'
p607
I3
tp608
a(S'Fernando Sancho-Caparrini'
p609
I2
tp610
a(S'\xc3\x81lvaro Romero Jim\xc3\xa9nez'
p611
I2
tp612
a(S'Mihai Ionescu'
p613
I1
tp614
a(S'Haiming Chen'
p615
I1
tp616
a(S'Tseren-Onolt Ishdorj'
p617
I1
tp618
asS'Imrich Chlamtac'
p619
(lp620
(S'Enrico Gregori'
p621
I5
tp622
a(S'Raffaele Bruno'
p623
I3
tp624
a(S'Tarek N. Saadawi'
p625
I2
tp626
a(S'Thomas Niessen'
p627
I2
tp628
a(S'Bezalel Gavish'
p629
I2
tp630
a(S'Fabio Panzieri'
p631
I2
tp632
a(S'Richard M. Karp'
p633
I2
tp634
a(S'Ian F. Akyildiz'
p635
I2
tp636
a(S'Sylvia Ratnasamy'
p637
I2
tp638
a(S'Scott Shenker'
p639
I2
tp640
a(S'Rudolf Mathar'
p641
I2
tp642
a(S'Mark Handley'
p643
I2
tp644
a(S'Andrea Passarella'
p645
I2
tp646
a(S'Suresh Sridhar'
p647
I2
tp648
a(S'Keith Ito'
p649
I1
tp650
a(S'Utkarsh Srivastava'
p651
I1
tp652
a(S'Henrik Lundgren'
p653
I1
tp654
a(S'Kazuhiro Minami'
p655
I1
tp656
a(S'Emanuel Melachrinoudis'
p657
I1
tp658
a(S'Myung J. Lee'
p659
I1
tp660
a(S'Hari Balakrishnan'
p661
I1
tp662
a(S'Jennifer Widom'
p663
I1
tp664
a(S'Giuseppe Anastasi'
p665
I1
tp666
a(S'Hung Keng Pung'
p667
I1
tp668
a(S'Nathan Eagle'
p669
I1
tp670
a(S'Daniel A. Menasc\xc3\xa9'
p671
I1
tp672
a(S'Yuh-Shyan Chen'
p673
I1
tp674
a(S'Mayur Datar'
p675
I1
tp676
a(S'Erdal Cayirci'
p677
I1
tp678
a(S'Murali Mani'
p679
I1
tp680
a(S'Yong Liu'
p681
I1
tp682
a(S'Andrew T. Campbell'
p683
I1
tp684
a(S'Franca Delmastro'
p685
I1
tp686
a(S'Arvind Arasu'
p687
I1
tp688
a(S'Krishna M. Sivalingam'
p689
I1
tp690
a(S'Judith M. Myerson'
p691
I1
tp692
a(S'Hsien-Ming Tsai'
p693
I1
tp694
a(S'Itaru Nishizawa'
p695
I1
tp696
a(S'P. Krishnan'
p697
I1
tp698
a(S'Mani B. Srivastava'
p699
I1
tp700
a(S'Athanassios Boulis'
p701
I1
tp702
a(S'Santosh K. Shrivastava'
p703
I1
tp704
a(S'Olov Schel\xc3\xa9n'
p705
I1
tp706
a(S'Jason Flinn'
p707
I1
tp708
a(S'Luca Delgrossi'
p709
I1
tp710
a(S'Weilian Su'
p711
I1
tp712
a(S'Antonio Capone'
p713
I1
tp714
a(S'Weilin Wang'
p715
I1
tp716
a(S'Christine E. Jones'
p717
I1
tp718
a(S'Anders Lindgren'
p719
I1
tp720
a(S'Alessio Carosi'
p721
I1
tp722
a(S'Matteo Cesana'
p723
I1
tp724
a(S'Ronny Krashinsky'
p725
I1
tp726
a(S'Vikas Taliwal'
p727
I1
tp728
a(S'Mahmoud Naghshineh'
p729
I1
tp730
a(S'Cristina Martello'
p731
I1
tp732
a(S'David B. Ingham'
p733
I1
tp734
a(S'Jyh-Cheng Chen'
p735
I1
tp736
a(S'Dilys Thomas'
p737
I1
tp738
a(S'Tao Gu'
p739
I1
tp740
a(S'Christian F. Tschudin'
p741
I1
tp742
a(S'Steve Hurley'
p743
I1
tp744
a(S'Francesca Cuomo'
p745
I1
tp746
a(S'Prasant Mohapatra'
p747
I1
tp748
a(S'Alex Pentland'
p749
I1
tp750
a(S'Chao Gui'
p751
I1
tp752
a(S'Qi Chen'
p753
I1
tp754
a(S'Chatschik Bisdikian'
p755
I1
tp756
a(S'Y. C. Tay'
p757
I1
tp758
a(S'Prathima Agrawal'
p759
I1
tp760
a(S'Paul Lettieri'
p761
I1
tp762
a(S'Andrea Baiocchi'
p763
I1
tp764
a(S'Norman H. Cohen'
p765
I1
tp766
a(S'Yung-Chun Lin'
p767
I1
tp768
a(S'Shivnath Babu'
p769
I1
tp770
a(S'Zhi-Hua Zhou'
p771
I1
tp772
a(S'Sze-Yao Ni'
p773
I1
tp774
a(S'Manish Anand'
p775
I1
tp776
a(S'Elke A. Rundensteiner'
p777
I1
tp778
a(S'Rohit Varma'
p779
I1
tp780
a(S'Daqing Zhang'
p781
I1
tp782
a(S'Daniel Jiang'
p783
I1
tp784
a(S'Erik Nordstr\xc3\xb6m'
p785
I1
tp786
a(S'Xuhui Hu'
p787
I1
tp788
a(S'Ai-Chun Pang'
p789
I1
tp790
a(S'Jang-Ping Sheu'
p791
I1
tp792
a(S'Edoardo Amaldi'
p793
I1
tp794
a(S'Kee Chaing Chua'
p795
I1
tp796
a(S'Shugong Xu'
p797
I1
tp798
a(S'Xudong Wang'
p799
I1
tp800
a(S'Yogesh Sankarasubramaniam'
p801
I1
tp802
a(S'Yu-Chee Tseng'
p803
I1
tp804
a(S'Z. Maria Wang'
p805
I1
tp806
a(S'Apratim Purakayastha'
p807
I1
tp808
a(S'Ilario Filippini'
p809
I1
tp810
a(S'David Kotz'
p811
I1
tp812
a(S'Luke Wong'
p813
I1
tp814
a(S'Avri Doria'
p815
I1
tp816
a(S'Chiara Petrioli'
p817
I1
tp818
a(S'Brian Babcock'
p819
I1
tp820
a(S'Hong Su'
p821
I1
tp822
a(S'Rajeev Motwani'
p823
I1
tp824
a(S'Larry Raisanen'
p825
I1
tp826
a(S'Federico Malucelli'
p827
I1
tp828
a(S'Javier Gomez'
p829
I1
tp830
a(S'Saad Haj Bakry'
p831
I1
tp832
a(S'Danny L. Yeh'
p833
I1
tp834
a(S'Nitin H. Vaidya'
p835
I1
tp836
a(S'Gavin Holland'
p837
I1
tp838
a(S'Edmund B. Nightingale'
p839
I1
tp840
a(S'Robin Kravets'
p841
I1
tp842
asS'Mark Johnston'
p843
(lp844
(S'Nathalie Japkowicz'
p845
I1
tp846
a(S'Shaju Stephen'
p847
I1
tp848
asS'Alberto Leporati'
p849
(lp850
(S'Mario J. P\xc3\xa9rez-Jim\xc3\xa9nez'
p851
I4
tp852
a(S'Jun Wang'
p853
I4
tp854
a(S'Fernando Sancho-Caparrini'
p855
I3
tp856
a(S'\xc3\x81lvaro Romero Jim\xc3\xa9nez'
p857
I3
tp858
a(S'Youshen Xia'
p859
I2
tp860
a(S'Hongtao Lu'
p861
I1
tp862
a(S'J\xc3\xb6rg Liebeherr'
p863
I1
tp864
a(S'Bin Zhao'
p865
I1
tp866
a(S'Zongben Xu'
p867
I1
tp868
a(S'Chunguang Li'
p869
I1
tp870
a(S'Kwok-Wo Wong'
p871
I1
tp872
a(S'Zhidong Teng'
p873
I1
tp874
a(S'Haijun Jiang'
p875
I1
tp876
a(S'Shantidev Mohanty'
p877
I1
tp878
a(S'Ian F. Akyildiz'
p879
I1
tp880
a(S'Matteo Cavaliere'
p881
I1
tp882
a(S'Jinde Cao'
p883
I1
tp884
a(S'Hong Qiao'
p885
I1
tp886
a(S'Mehmet C. Vuran'
p887
I1
tp888
a(S'Xingfu Zou'
p889
I1
tp890
a(S'Andrei Paun'
p891
I1
tp892
a(S'Gheorghe Paun'
p893
I1
tp894
a(S'Mihai Ionescu'
p895
I1
tp896
a(S'Sergey Verlan'
p897
I1
tp898
a(S'R\xc3\xa9jean Plamondon'
p899
I1
tp900
a(S'Lin Wang'
p901
I1
tp902
a(S'Haiming Chen'
p903
I1
tp904
a(S'Jun Yang'
p905
I1
tp906
a(S'Jianping Wang'
p907
I1
tp908
a(S'Mehbuba Rehim'
p909
I1
tp910
a(S'Ioan I. Ardelean'
p911
I1
tp912
a(S'Jigen Peng'
p913
I1
tp914
a(S'Zhigang Zeng'
p915
I1
tp916
a(S'Chengnian Long'
p917
I1
tp918
a(S'Won-Yeol Lee'
p919
I1
tp920
a(S'Xinping Guan'
p921
I1
tp922
a(S'Rudolf Freund'
p923
I1
tp924
a(S'Xiaofeng Liao'
p925
I1
tp926
a(S'Chunhua Feng'
p927
I1
tp928
a(S'Stephen D. Patek'
p929
I1
tp930
a(S'Petr Sos\xc3\xadk'
p931
I1
tp932
a(S'Haiyong Wang'
p933
I1
tp934
asS'Gy\xc3\xb6rgy Vaszil'
p935
(lp936
(S'Gheorghe Paun'
p937
I1
tp938
a(S'Mihai Ionescu'
p939
I1
tp940
a(S'Haiming Chen'
p941
I1
tp942
a(S'Mario J. P\xc3\xa9rez-Jim\xc3\xa9nez'
p943
I1
tp944
a(S'Andrei Paun'
p945
I1
tp946
a(S'Tseren-Onolt Ishdorj'
p947
I1
tp948
asS'Ingrid Moerman'
p949
(lp950
(S'Paul F. Syverson'
p951
I1
tp952
a(S'Roger Dingledine'
p953
I1
tp954
a(S'Andrei Serjantov'
p955
I1
tp956
asS'Dimitrios Katsaros'
p957
(lp958
(S'John Dilley'
p959
I3
tp960
a(S'George Kollios'
p961
I3
tp962
a(S'Sangjun Lee'
p963
I3
tp964
a(S'Dimitrios Gunopulos'
p965
I3
tp966
a(S'Harald Prokop'
p967
I3
tp968
a(S'Sukho Lee'
p969
I3
tp970
a(S'Nick Koudas'
p971
I3
tp972
a(S'Dongseop Kwon'
p973
I3
tp974
a(S'Ramesh K. Sitaraman'
p975
I3
tp976
a(S'Bruce M. Maggs'
p977
I3
tp978
a(S'Jay Parikh'
p979
I3
tp980
a(S'William E. Weihl'
p981
I3
tp982
a(S'Kaushik Dutta'
p983
I2
tp984
a(S'Debra E. VanderMeer'
p985
I2
tp986
a(S'Peter Triantafillou'
p987
I2
tp988
a(S'Anindya Datta'
p989
I2
tp990
a(S'Helen M. Thomas'
p991
I2
tp992
a(S'Graham Cormode'
p993
I2
tp994
a(S'Philip S. Yu'
p995
I2
tp996
a(S'M. Frans Kaashoek'
p997
I2
tp998
a(S'Krithi Ramamritham'
p999
I2
tp1000
a(S'Fred Douglis'
p1001
I2
tp1002
a(S'Stefan Berchtold'
p1003
I2
tp1004
a(S'Christos Faloutsos'
p1005
I2
tp1006
a(S'Shyh-Kwei Chen'
p1007
I2
tp1008
a(S'Timos K. Sellis'
p1009
I2
tp1010
a(S'Kun-Lung Wu'
p1011
I2
tp1012
a(S'Marios Hadjieleftheriou'
p1013
I1
tp1014
a(S'Christian Schwingenschl\xc3\xb6gl'
p1015
I1
tp1016
a(S'Guido Proietti'
p1017
I1
tp1018
a(S'Tamer Nadeem'
p1019
I1
tp1020
a(S'Adam Meyerson'
p1021
I1
tp1022
a(S'Yufei Tao'
p1023
I1
tp1024
a(S'Rania Khalaf'
p1025
I1
tp1026
a(S'Sanjiva Weerawarana'
p1027
I1
tp1028
a(S'Liviu Iftode'
p1029
I1
tp1030
a(S'Nikos Mamoulis'
p1031
I1
tp1032
a(S'Susanne E. Hambrusch'
p1033
I1
tp1034
a(S'Hannes Hartenstein'
p1035
I1
tp1036
a(S'Chunyuan Liao'
p1037
I1
tp1038
a(S'Stardas Pakalnis'
p1039
I1
tp1040
a(S'Dan Suciu'
p1041
I1
tp1042
a(S'Ibrahim Korpeoglu'
p1043
I1
tp1044
a(S'Piotr Indyk'
p1045
I1
tp1046
a(S'William Nagy'
p1047
I1
tp1048
a(S'Chung-Min Chen'
p1049
I1
tp1050
a(S'Dmitri V. Kalashnikov'
p1051
I1
tp1052
a(S'Emmanuel Stefanakis'
p1053
I1
tp1054
a(S'Mario A. Lopez'
p1055
I1
tp1056
a(S'Sudipto Guha'
p1057
I1
tp1058
a(S'Yannis Theodoridis'
p1059
I1
tp1060
a(S'S. Muthukrishnan'
p1061
I1
tp1062
a(S'Nina T. Bhatti'
p1063
I1
tp1064
a(S'Ullas Nambiar'
p1065
I1
tp1066
a(S'Thomas Papadakis'
p1067
I1
tp1068
a(S'Dimitris Papadias'
p1069
I1
tp1070
a(S'Nirmal Mukhi'
p1071
I1
tp1072
a(S'Timothy Kosch'
p1073
I1
tp1074
a(S'Christian S. Jensen'
p1075
I1
tp1076
a(S'Scott T. Leutenegger'
p1077
I1
tp1078
a(S'Gultekin \xc3\x96zsoyoglu'
p1079
I1
tp1080
a(S'Costas Georgiadis'
p1081
I1
tp1082
a(S'Ying Guang Li'
p1083
I1
tp1084
a(S'Sunil Prabhakar'
p1085
I1
tp1086
a(S'Z. Meral \xc3\x96zsoyoglu'
p1087
I1
tp1088
a(S'Mingyan Liu'
p1089
I1
tp1090
a(S'Stavros Christodoulakis'
p1091
I1
tp1092
a(S'Anna Bouch'
p1093
I1
tp1094
a(S'Alminas Civilis'
p1095
I1
tp1096
a(S'Francisco Curbera'
p1097
I1
tp1098
a(S'Mong-Li Lee'
p1099
I1
tp1100
a(S'Matthew J. Duftler'
p1101
I1
tp1102
a(S'Rakesh K. Sinha'
p1103
I1
tp1104
a(S'Holger F\xc3\xbc\xc3\x9fler'
p1105
I1
tp1106
a(S'Murat Karakaya'
p1107
I1
tp1108
a(S'Nevzat Hurkan Balkir'
p1109
I1
tp1110
a(S'Nikos Karayannidis'
p1111
I1
tp1112
a(S'Flip Korn'
p1113
I1
tp1114
a(S'Sasan Dashtinezhad'
p1115
I1
tp1116
a(S'Wonik Choi'
p1117
I1
tp1118
a(S'Christian B\xc3\xb6hm'
p1119
I1
tp1120
a(S"Liadan O'Callaghan"
p1121
I1
tp1122
a(S'Alex Delis'
p1123
I1
tp1124
a(S'Christian Lochert'
p1125
I1
tp1126
a(S'Eric A. Brewer'
p1127
I1
tp1128
a(S'Mayur Datar'
p1129
I1
tp1130
a(S'Jun Zhang'
p1131
I1
tp1132
a(S'Vassilis J. Tsotras'
p1133
I1
tp1134
a(S'Zo\xc3\xa9 Lacroix'
p1135
I1
tp1136
a(S'Nina Mishra'
p1137
I1
tp1138
a(S'Bernd-Uwe Pagel'
p1139
I1
tp1140
a(S'Allan Kuchinsky'
p1141
I1
tp1142
a(S'Enrique J. Duarte-Melo'
p1143
I1
tp1144
a(S'Kenneth C. Sevcik'
p1145
I1
tp1146
a(S'Rajeev Motwani'
p1147
I1
tp1148
a(S'St\xc3\xa9phane Bressan'
p1149
I1
tp1150
a(S'Martin Mauve'
p1151
I1
tp1152
asS'Jehoshua Bruck'
p1153
(lp1154
sS'Jian Chen'
p1155
(lp1156
(S'J. Leon Zhao'
p1157
I6
tp1158
a(S'Edward A. Stohr'
p1159
I5
tp1160
a(S'Dieter Fensel'
p1161
I3
tp1162
a(S'Akhil Kumar'
p1163
I3
tp1164
a(S'Michel C. A. Klein'
p1165
I3
tp1166
a(S'Wil M. P. van der Aalst'
p1167
I3
tp1168
a(S'Ian Horrocks'
p1169
I3
tp1170
a(S'Amit Basu'
p1171
I3
tp1172
a(S'Frank van Harmelen'
p1173
I3
tp1174
a(S'Stefan Decker'
p1175
I3
tp1176
a(S'Jeen Broekstra'
p1177
I3
tp1178
a(S'Arthur H. M. ter Hofstede'
p1179
I2
tp1180
a(S'W. W. Fung'
p1181
I1
tp1182
a(S'William K. Cheung'
p1183
I1
tp1184
a(S'Michael Erdmann'
p1185
I1
tp1186
a(S'Boudewijn F. van Dongen'
p1187
I1
tp1188
a(S'Subhash Suri'
p1189
I1
tp1190
a(S'Mark Lycett'
p1191
I1
tp1192
a(S'Alexander Thomasian'
p1193
I1
tp1194
a(S'Anshul Kothari'
p1195
I1
tp1196
a(S'P. Oscar Boykin'
p1197
I1
tp1198
a(S'Ian T. Foster'
p1199
I1
tp1200
a(S'Gio Wiederhold'
p1201
I1
tp1202
a(S'David Bell'
p1203
I1
tp1204
a(S'Xue Chen'
p1205
I1
tp1206
a(S'Divyakant Agrawal'
p1207
I1
tp1208
a(S'Patrick C. K. Hung'
p1209
I1
tp1210
a(S'Darren J. Kerbyson'
p1211
I1
tp1212
a(S'Sudha Ram'
p1213
I1
tp1214
a(S'Phillipa Oaks'
p1215
I1
tp1216
a(S'Joshua C. C. Pun'
p1217
I1
tp1218
a(S'Yiming Hu'
p1219
I1
tp1220
a(S'Dickson K. W. Chiu'
p1221
I1
tp1222
a(S'Matei Ripeanu'
p1223
I1
tp1224
a(S'R. H. Grimwood'
p1225
I1
tp1226
a(S'Vivying S. Y. Cheng'
p1227
I1
tp1228
a(S'Vwani P. Roychowdhury'
p1229
I1
tp1230
a(S'Dimitrios Gunopulos'
p1231
I1
tp1232
a(S'Hyerim Bae'
p1233
I1
tp1234
a(S'Adriana Iamnitchi'
p1235
I1
tp1236
a(S'Aphrodite Tsalgatidou'
p1237
I1
tp1238
a(S'Robert W. Blanning'
p1239
I1
tp1240
a(S'Jie Liu'
p1241
I1
tp1242
a(S'Sandeep Purao'
p1243
I1
tp1244
a(S'Yongsun Choi'
p1245
I1
tp1246
a(S'Jenny X. Li'
p1247
I1
tp1248
a(S'Antonio Merico'
p1249
I1
tp1250
a(S'Raymond K. Wong'
p1251
I1
tp1252
a(S'Efstathios Papaefstathiou'
p1253
I1
tp1254
a(S'Chung-Sheng Li'
p1255
I1
tp1256
a(S'Roberto J. Bayardo Jr.'
p1257
I1
tp1258
a(S'Gary L. Mullen'
p1259
I1
tp1260
a(S'Mathias Weske'
p1261
I1
tp1262
a(S'Abhishek Gupta'
p1263
I1
tp1264
a(S'Przemyslaw Kosowski'
p1265
I1
tp1266
a(S'Eleanna Kafeza'
p1267
I1
tp1268
a(S'Nima Sarshar'
p1269
I1
tp1270
a(S'Sanjay Gosain'
p1271
I1
tp1272
a(S'Taher H. Haveliwala'
p1273
I1
tp1274
a(S'Munindar P. Singh'
p1275
I1
tp1276
a(S'James T. Kwok'
p1277
I1
tp1278
a(S'Thomi Pilioura'
p1279
I1
tp1280
a(S'Kyuseok Shim'
p1281
I1
tp1282
a(S'Karthikeyan Umapathy'
p1283
I1
tp1284
a(S'Guido Wirtz'
p1285
I1
tp1286
a(S'Guido Schimm'
p1287
I1
tp1288
a(S'Bartek Kiepuszewski'
p1289
I1
tp1290
a(S'Seung-Hyun Rhee'
p1291
I1
tp1292
a(S'Yingwu Zhu'
p1293
I1
tp1294
a(S'Nicola Iacovelli'
p1295
I1
tp1296
a(S'Rajeev Rastogi'
p1297
I1
tp1298
a(S'Rakesh Agrawal'
p1299
I1
tp1300
a(S'Graham R. Nudd'
p1301
I1
tp1302
a(S'Henry H. Bi'
p1303
I1
tp1304
a(S'Samuel P. M. Choi'
p1305
I1
tp1306
a(S'Thad Starner'
p1307
I1
tp1308
a(S'Honghao Wang'
p1309
I1
tp1310
a(S'Chen Li'
p1311
I1
tp1312
a(S'Holger Giese'
p1313
I1
tp1314
a(S'Xiaoping Sun'
p1315
I1
tp1316
a(S'Sergio de Cesare'
p1317
I1
tp1318
a(S'Johannes Gehrke'
p1319
I1
tp1320
a(S'Michael N. Huhns'
p1321
I1
tp1322
a(S'Laura Maruster'
p1323
I1
tp1324
a(S'Erlin Yao'
p1325
I1
tp1326
a(S'Daniel Kifer'
p1327
I1
tp1328
a(S'Joachim Herbst'
p1329
I1
tp1330
a(S'A. J. M. M. Weijters'
p1331
I1
tp1332
a(S'Hector Garcia-Molina'
p1333
I1
tp1334
a(S'Alicja Smoktunowicz'
p1335
I1
tp1336
a(S'Therani Madhusudan'
p1337
I1
tp1338
a(S'Sergey Melnik'
p1339
I1
tp1340
a(S'Vittorio Castelli'
p1341
I1
tp1342
a(S'Mung Chiang'
p1343
I1
tp1344
a(S'Martin Schubert'
p1345
I1
tp1346
a(S'S. C. Perry'
p1347
I1
tp1348
a(S'Cristian Bucila'
p1349
I1
tp1350
a(S'Alistair P. Barros'
p1351
I1
tp1352
a(S'Holger Boche'
p1353
I1
tp1354
a(S'Edward Y. Chang'
p1355
I1
tp1356
a(S'Daniel Ashbrook'
p1357
I1
tp1358
a(S'Walker M. White'
p1359
I1
tp1360
a(S'Akhilesh Bajaj'
p1361
I1
tp1362
a(S'Monika Rauch Henzinger'
p1363
I1
tp1364
asS'Dickson K. W. Chiu'
p1365
(lp1366
(S'Wil M. P. van der Aalst'
p1367
I3
tp1368
a(S'Akhil Kumar'
p1369
I2
tp1370
a(S'Ana Simonet'
p1371
I2
tp1372
a(S'Ladjel Bellatreche'
p1373
I2
tp1374
a(S'Themis Panayiotopoulos'
p1375
I1
tp1376
a(S'Shensheng Zhang'
p1377
I1
tp1378
a(S'Jinmin Hu'
p1379
I1
tp1380
a(S'Peter Scheuermann'
p1381
I1
tp1382
a(S'Pabitra Mitra'
p1383
I1
tp1384
a(S'Alminas Civilis'
p1385
I1
tp1386
a(S'Pawan Lingras'
p1387
I1
tp1388
a(S'H. M. W. (Eric) Verbeek'
p1389
I1
tp1390
a(S'V. S. Subrahmanian'
p1391
I1
tp1392
a(S'Nanjangud C. Narendra'
p1393
I1
tp1394
a(S'Huan Liu'
p1395
I1
tp1396
a(S'Roman Slowinski'
p1397
I1
tp1398
a(S'F. Javier Lerch'
p1399
I1
tp1400
a(S'Daniel Vanderpooten'
p1401
I1
tp1402
a(S'Nick Z. Zacharis'
p1403
I1
tp1404
a(S'Peter R. Wurman'
p1405
I1
tp1406
a(S'Sushil Jajodia'
p1407
I1
tp1408
a(S'Amit Basu'
p1409
I1
tp1410
a(S'Hai Zhuge'
p1411
I1
tp1412
a(S'Y. Y. Yao'
p1413
I1
tp1414
a(S'Stardas Pakalnis'
p1415
I1
tp1416
a(S'Nikola Milanovic'
p1417
I1
tp1418
a(S'Mathias Weske'
p1419
I1
tp1420
a(S'Kian-Lee Tan'
p1421
I1
tp1422
a(S'Maria Luisa Sapino'
p1423
I1
tp1424
a(S'Manoranjan Dash'
p1425
I1
tp1426
a(S'Donald E. Harter'
p1427
I1
tp1428
a(S'Christian S. Jensen'
p1429
I1
tp1430
a(S'Miroslaw Malek'
p1431
I1
tp1432
a(S'Pierangela Samarati'
p1433
I1
tp1434
a(S'Sankar K. Pal'
p1435
I1
tp1436
a(S'Jianxun Liu'
p1437
I1
tp1438
asS'Ritu Agarwal'
p1439
(lp1440
(S'Robert W. Zmud'
p1441
I2
tp1442
a(S'Lorin M. Hitt'
p1443
I2
tp1444
a(S'Debabroto Chatterjee'
p1445
I1
tp1446
a(S'Souren Paul'
p1447
I1
tp1448
a(S'Weiyin Hong'
p1449
I1
tp1450
a(S'Robert G. Fichman'
p1451
I1
tp1452
a(S'Dorothy E. Leidner'
p1453
I1
tp1454
a(S'M. Lynne Markus'
p1455
I1
tp1456
a(S'Laurie J. Kirsch'
p1457
I1
tp1458
a(S'Hsinchun Chen'
p1459
I1
tp1460
a(S'Henry C. Lucas Jr.'
p1461
I1
tp1462
a(S'Varun Grover'
p1463
I1
tp1464
a(S'Rajiv Sabherwal'
p1465
I1
tp1466
a(S'J. Alberto Espinosa'
p1467
I1
tp1468
a(S'Jeanne M. Wilson'
p1469
I1
tp1470
a(S'Kevin E. Dow'
p1471
I1
tp1472
a(S'Yu-Ting Caisy Hung'
p1473
I1
tp1474
a(S'Pei-Yu Sharon Chen'
p1475
I1
tp1476
a(S'Amrit Tiwana'
p1477
I1
tp1478
a(S'Jonathan W. Palmer'
p1479
I1
tp1480
a(S'Christy M. K. Cheung'
p1481
I1
tp1482
a(S'Priya Seetharaman'
p1483
I1
tp1484
a(S'Jonathon N. Cummings'
p1485
I1
tp1486
a(S'Kun Shin Im'
p1487
I1
tp1488
a(S'Peter P. Mykytyn Jr.'
p1489
I1
tp1490
a(S'Carl Pacini'
p1491
I1
tp1492
a(S'David J. Pauleen'
p1493
I1
tp1494
a(S'Gary Simon'
p1495
I1
tp1496
a(S'Hayward P. Andres'
p1497
I1
tp1498
a(S'Ing-Long Wu'
p1499
I1
tp1500
a(S'Kar Yan Tam'
p1501
I1
tp1502
a(S'Vivek Choudhury'
p1503
I1
tp1504
a(S'James Y. L. Thong'
p1505
I1
tp1506
a(S'Mitzi M. Montoya-Weiss'
p1507
I1
tp1508
a(S'Ephraim R. McLean'
p1509
I1
tp1510
a(S'Imad Samarah'
p1511
I1
tp1512
a(S'Timothy R. Kayworth'
p1513
I1
tp1514
a(S'Brandi M. Pearce'
p1515
I1
tp1516
a(S'Xiaoge Zhou'
p1517
I1
tp1518
a(S'Christina Donovan'
p1519
I1
tp1520
a(S'Wonseok Oh'
p1521
I1
tp1522
a(S'D. J. Wu'
p1523
I1
tp1524
a(S'Yannis Bakos'
p1525
I1
tp1526
a(S'J. B. Arbaugh'
p1527
I1
tp1528
a(S'Yi-Shun Wang'
p1529
I1
tp1530
a(S'Scott A. Moore'
p1531
I1
tp1532
a(S'Bruce W. Weber'
p1533
I1
tp1534
a(S'Nicholas C. Romano Jr.'
p1535
I1
tp1536
a(S'Matthew K. O. Lee'
p1537
I1
tp1538
a(S'Judy E. Scott'
p1539
I1
tp1540
a(S'Zhaohui Chen'
p1541
I1
tp1542
a(S'Raquel Benbunan-Fich'
p1543
I1
tp1544
a(S'Jay Nunamaker Jr.'
p1545
I1
tp1546
a(S'Anne P. Massey'
p1547
I1
tp1548
asS'Michel Gendreau'
p1549
(lp1550
(S'Zvi Drezner'
p1551
I2
tp1552
asS'Hsing Kenneth Cheng'
p1553
(lp1554
(S'Gary J. Koehler'
p1555
I1
tp1556
a(S'George L. Nemhauser'
p1557
I1
tp1558
a(S'Salvatore T. March'
p1559
I1
tp1560
a(S'Sudha Ram'
p1561
I1
tp1562
a(S'Sven de Vries'
p1563
I1
tp1564
a(S'Martin W. P. Savelsbergh'
p1565
I1
tp1566
a(S'Rakesh V. Vohra'
p1567
I1
tp1568
a(S'Joni L. Jones'
p1569
I1
tp1570
a(S'Alan R. Hevner'
p1571
I1
tp1572
a(S'Ellis L. Johnson'
p1573
I1
tp1574
asS'Piet Van Mieghem'
p1575
(lp1576
(S'Deepak Ganesan'
p1577
I3
tp1578
a(S'Deborah Estrin'
p1579
I3
tp1580
a(S'Ramesh Govindan'
p1581
I3
tp1582
a(S'Scott Shenker'
p1583
I3
tp1584
a(S'Eitan Altman'
p1585
I1
tp1586
a(S'Chadi Barakat'
p1587
I1
tp1588
a(S'David B. Johnson'
p1589
I1
tp1590
a(S'Yih-Chun Hu'
p1591
I1
tp1592
a(S'Yu-Chee Tseng'
p1593
I1
tp1594
a(S'Chi-Fu Huang'
p1595
I1
tp1596
a(S'Adrian Perrig'
p1597
I1
tp1598
asS'Murat Yuksel'
p1599
(lp1600
(S'Clarence Filsfils'
p1601
I4
tp1602
a(S'John Evans'
p1603
I4
tp1604
a(S'Raouf Boutaba'
p1605
I2
tp1606
a(S'Douglas S. Reeves'
p1607
I2
tp1608
a(S'Costas Courcoubetis'
p1609
I2
tp1610
a(S'Uday Savagaonkar'
p1611
I2
tp1612
a(S'Edwin K. P. Chong'
p1613
I2
tp1614
a(S'David Hausheer'
p1615
I2
tp1616
a(S'Tianshu Li'
p1617
I2
tp1618
a(S'Sergios Soursos'
p1619
I2
tp1620
a(S'George C. Polyzos'
p1621
I2
tp1622
a(S'Youssef Iraqi'
p1623
I2
tp1624
a(S'Peter Reichl'
p1625
I2
tp1626
a(S'Robert Givan'
p1627
I2
tp1628
a(S'Burkhard Stiller'
p1629
I2
tp1630
a(S'Errin W. Fulp'
p1631
I2
tp1632
a(S'Chung-Min Chen'
p1633
I1
tp1634
a(S'Sylvia Ratnasamy'
p1635
I1
tp1636
a(S'Yu-lung Lo'
p1637
I1
tp1638
a(S'Kien A. Hua'
p1639
I1
tp1640
a(S'Scott Shenker'
p1641
I1
tp1642
a(S'Rakesh K. Sinha'
p1643
I1
tp1644
a(S'Mark Handley'
p1645
I1
tp1646
a(S'Honesty C. Young'
p1647
I1
tp1648
a(S'Richard M. Karp'
p1649
I1
tp1650
asS'Hsinchun Chen'
p1651
(lp1652
(S'Douglas R. Vogel'
p1653
I2
tp1654
a(S'Carol E. Pollard'
p1655
I2
tp1656
a(S'Ronald E. Rice'
p1657
I2
tp1658
a(S'Paul A. Pavlou'
p1659
I2
tp1660
a(S'Edward A. Stohr'
p1661
I2
tp1662
a(S'J. Leon Zhao'
p1663
I2
tp1664
a(S'Wil M. P. van der Aalst'
p1665
I2
tp1666
a(S'John Mingers'
p1667
I2
tp1668
a(S'Dorothy E. Leidner'
p1669
I2
tp1670
a(S'Maryam Alavi'
p1671
I2
tp1672
a(S'Akhil Kumar'
p1673
I2
tp1674
a(S'Yi-Shun Wang'
p1675
I2
tp1676
a(S'David Gefen'
p1677
I2
tp1678
a(S'Stephen C. Hayne'
p1679
I2
tp1680
a(S'Starr Roxanne Hiltz'
p1681
I2
tp1682
a(S'Ji-Won Moon'
p1683
I1
tp1684
a(S'David A. Harrison'
p1685
I1
tp1686
a(S'Chun-Sheng Yu'
p1687
I1
tp1688
a(S'Cynthia K. Riemenschneider'
p1689
I1
tp1690
a(S'Elena Dasseni'
p1691
I1
tp1692
a(S'Peter P. Mykytyn Jr.'
p1693
I1
tp1694
a(S'Man Kit Chang'
p1695
I1
tp1696
a(S'Young-Gul Kim'
p1697
I1
tp1698
a(S'Michael R. Baumann'
p1699
I1
tp1700
a(S'Viswanath Venkatesh'
p1701
I1
tp1702
a(S'Gert-Jan de Vreede'
p1703
I1
tp1704
a(S'Louis C. K. Ma'
p1705
I1
tp1706
a(S'Nancy Walters Coppola'
p1707
I1
tp1708
a(S'Chao-Ton Su'
p1709
I1
tp1710
a(S'Ritu Agarwal'
p1711
I1
tp1712
a(S'George M. Marakas'
p1713
I1
tp1714
a(S'Ralph M. Stair'
p1715
I1
tp1716
a(S'Muneaki Ohshima'
p1717
I1
tp1718
a(S'Henry C. Lucas Jr.'
p1719
I1
tp1720
a(S'Sung S. Kim'
p1721
I1
tp1722
a(S'Ahmed K. Elmagarmid'
p1723
I1
tp1724
a(S'Boudewijn F. van Dongen'
p1725
I1
tp1726
a(S'Waiman Cheung'
p1727
I1
tp1728
a(S'Valerie K. Spitler'
p1729
I1
tp1730
a(S'Bill C. Hardgrave'
p1731
I1
tp1732
a(S'David C. Wilkins'
p1733
I1
tp1734
a(S'Daniel Vanderpooten'
p1735
I1
tp1736
a(S'Jyh-Hwa Hsu'
p1737
I1
tp1738
a(S'Yiyu Yao'
p1739
I1
tp1740
a(S'Sankar K. Pal'
p1741
I1
tp1742
a(S'Rajendra P. Srivastava'
p1743
I1
tp1744
a(S'Aapo Hyv\xc3\xa4rinen'
p1745
I1
tp1746
a(S'Patrick L. Wadlington'
p1747
I1
tp1748
a(S'Janet A. Sniezek'
p1749
I1
tp1750
a(S'V. Sambamurthy'
p1751
I1
tp1752
a(S'Naresh K. Malhotra'
p1753
I1
tp1754
a(S'Jung-Yu Lai'
p1755
I1
tp1756
a(S'Vassilios S. Verykios'
p1757
I1
tp1758
a(S'Erkki Oja'
p1759
I1
tp1760
a(S'Noam Tractinsky'
p1761
I1
tp1762
a(S'Pierre Collerette'
p1763
I1
tp1764
a(S'Pabitra Mitra'
p1765
I1
tp1766
a(S'Harri Oinas-Kukkonen'
p1767
I1
tp1768
a(S'John Ingham'
p1769
I1
tp1770
a(S'Eric L. Santanen'
p1771
I1
tp1772
a(S'Jaana Porra'
p1773
I1
tp1774
a(S'Melissa Cole'
p1775
I1
tp1776
a(S'Theodore J. Mock'
p1777
I1
tp1778
a(S'Ning Zhong'
p1779
I1
tp1780
a(S'Richard D. Johnson'
p1781
I1
tp1782
a(S'Daniel W. Manchala'
p1783
I1
tp1784
a(S'Byung-Hoon Park'
p1785
I1
tp1786
a(S'Michael Vitale'
p1787
I1
tp1788
a(S'Christian Wagner'
p1789
I1
tp1790
a(S'Guido Schimm'
p1791
I1
tp1792
a(S'Laura Maruster'
p1793
I1
tp1794
a(S'Y\xc3\xbccel Saygin'
p1795
I1
tp1796
a(S'Joachim Herbst'
p1797
I1
tp1798
a(S'A. J. M. M. Weijters'
p1799
I1
tp1800
a(S'Robert O. Briggs'
p1801
I1
tp1802
a(S'Roman Slowinski'
p1803
I1
tp1804
a(S'June Lu'
p1805
I1
tp1806
a(S'Chorng-Shyong Ong'
p1807
I1
tp1808
a(S'Sirkka L. Jarvenpaa'
p1809
I1
tp1810
a(S"Robert M. O'Keefe"
p1811
I1
tp1812
a(S'Elisa Bertino'
p1813
I1
tp1814
a(S'Paul Legris'
p1815
I1
tp1816
a(S'Haytham Siala'
p1817
I1
tp1818
a(S'Naomi Rotter'
p1819
I1
tp1820
a(S'Jerry Fjermestad'
p1821
I1
tp1822
a(S'James Agarwal'
p1823
I1
tp1824
a(S'Amit Basu'
p1825
I1
tp1826
a(S'Kent A. Walstrom'
p1827
I1
tp1828
a(S'Chang Liu'
p1829
I1
tp1830
a(S'Ron Chi-Wai Kwok'
p1831
I1
tp1832
asS'Gang Li'
p1833
(lp1834
(S'Evaggelia Pitoura'
p1835
I4
tp1836
a(S'George Samaras'
p1837
I4
tp1838
a(S'Nikos A. Lorentzos'
p1839
I3
tp1840
a(S'Michael H. B\xc3\xb6hlen'
p1841
I3
tp1842
a(S'Michalis Vazirgiannis'
p1843
I3
tp1844
a(S'Markus Schneider'
p1845
I3
tp1846
a(S'Christian S. Jensen'
p1847
I3
tp1848
a(S'Martin Erwig'
p1849
I3
tp1850
a(S'Ralf Hartmut G\xc3\xbcting'
p1851
I3
tp1852
a(S'Goce Trajcevski'
p1853
I2
tp1854
a(S'Peter Scheuermann'
p1855
I2
tp1856
a(S'Aware Networks'
p1857
I1
tp1858
a(S'Sam Chamberlain'
p1859
I1
tp1860
a(S'Klaus Hinrichs'
p1861
I1
tp1862
a(S'Ouri Wolfson'
p1863
I1
tp1864
a(S'Dimitris Papadias'
p1865
I1
tp1866
a(S'Yufei Tao'
p1867
I1
tp1868
a(S'Andrea Heusser'
p1869
I1
tp1870
a(S'Ariel Pashtan'
p1871
I1
tp1872
asS'Fei Wang'
p1873
(lp1874
(S'Cheng Yang'
p1875
I4
tp1876
a(S'Shinji Fujiwara'
p1877
I4
tp1878
a(S'Philip S. Yu'
p1879
I4
tp1880
a(S'Jeffrey D. Ullman'
p1881
I4
tp1882
a(S'Aristides Gionis'
p1883
I4
tp1884
a(S'Piotr Indyk'
p1885
I4
tp1886
a(S'Mayur Datar'
p1887
I4
tp1888
a(S'Rajeev Motwani'
p1889
I4
tp1890
a(S'Edith Cohen'
p1891
I4
tp1892
a(S'Pierangela Samarati'
p1893
I3
tp1894
a(S'HongJiang Zhang'
p1895
I2
tp1896
a(S'Arindam Banerjee'
p1897
I2
tp1898
a(S'Martin Erwig'
p1899
I2
tp1900
a(S'Nikos A. Lorentzos'
p1901
I2
tp1902
a(S'Jingrui He'
p1903
I2
tp1904
a(S'Benjamin C. M. Fung'
p1905
I2
tp1906
a(S'Emmanuel Stefanakis'
p1907
I2
tp1908
a(S'Markus Schneider'
p1909
I2
tp1910
a(S'Michael H. B\xc3\xb6hlen'
p1911
I2
tp1912
a(S'Ke Wang'
p1913
I2
tp1914
a(S'Joydeep Ghosh'
p1915
I2
tp1916
a(S'Josep Domingo-Ferrer'
p1917
I2
tp1918
a(S'Hillol Kargupta'
p1919
I2
tp1920
a(S'Yannis Theodoridis'
p1921
I2
tp1922
a(S'Dimitris Papadias'
p1923
I2
tp1924
a(S'Ralf Hartmut G\xc3\xbcting'
p1925
I2
tp1926
a(S'Christian S. Jensen'
p1927
I2
tp1928
a(S'Michalis Vazirgiannis'
p1929
I2
tp1930
a(S'Josep Maria Mateo-Sanz'
p1931
I2
tp1932
a(S'Timos K. Sellis'
p1933
I2
tp1934
a(S'Hanghang Tong'
p1935
I2
tp1936
a(S'Mingjing Li'
p1937
I2
tp1938
a(S'Ming-Syan Chen'
p1939
I2
tp1940
a(S'Jessica Ryan'
p1941
I2
tp1942
a(S'Kun-Lung Wu'
p1943
I2
tp1944
a(S'Kun Liu'
p1945
I2
tp1946
a(S'Mi-Yen Yeh'
p1947
I1
tp1948
a(S'Chong-Ho Choi'
p1949
I1
tp1950
a(S'Guido Proietti'
p1951
I1
tp1952
a(S'Hyuk Lim'
p1953
I1
tp1954
a(S'Gam D. Nguyen'
p1955
I1
tp1956
a(S'Jim Challenger'
p1957
I1
tp1958
a(S'Yufei Tao'
p1959
I1
tp1960
a(S'Wen-Chih Peng'
p1961
I1
tp1962
a(S'Michel Ouellette'
p1963
I1
tp1964
a(S'Nikos Mamoulis'
p1965
I1
tp1966
a(S'Hwanjo Yu'
p1967
I1
tp1968
a(S'Hae Don Chon'
p1969
I1
tp1970
a(S'Myoung-Ho Kim'
p1971
I1
tp1972
a(S'Hyun Kyoo Park'
p1973
I1
tp1974
a(S'Divyakant Agrawal'
p1975
I1
tp1976
a(S'Shlomo Moran'
p1977
I1
tp1978
a(S'Hannu Toivonen'
p1979
I1
tp1980
a(S'Kuo-Liang Chung'
p1981
I1
tp1982
a(S'Xindong Wu'
p1983
I1
tp1984
a(S'Dimitrios Gunopulos'
p1985
I1
tp1986
a(S'Jiawei Han'
p1987
I1
tp1988
a(S'Jen-Wei Huang'
p1989
I1
tp1990
a(S'Christos Faloutsos'
p1991
I1
tp1992
a(S'Yao-Hong Tsai'
p1993
I1
tp1994
a(S'Eun-Chan Park'
p1995
I1
tp1996
a(S'Amr El Abbadi'
p1997
I1
tp1998
a(S'Wan-Yu Chen'
p1999
I1
tp2000
a(S'Wil M. P. van der Aalst'
p2001
I1
tp2002
a(S'James Aweya'
p2003
I1
tp2004
a(S'Bugra Gedik'
p2005
I1
tp2006
a(S'Zhi-Hua Zhou'
p2007
I1
tp2008
a(S'Heikki Mannila'
p2009
I1
tp2010
a(S'Anthony Ephremides'
p2011
I1
tp2012
a(S'Kevin Chen-Chuan Chang'
p2013
I1
tp2014
a(S'Ming Li'
p2015
I1
tp2016
a(S'Arun Iyengar'
p2017
I1
tp2018
a(S'Jin Hyun Son'
p2019
I1
tp2020
a(S'Kyung-Joon Park'
p2021
I1
tp2022
a(S'Sergio D. Servetto'
p2023
I1
tp2024
a(S'Delfin Y. Montuno'
p2025
I1
tp2026
a(S'Shyh-Kwei Chen'
p2027
I1
tp2028
a(S'Laura Maruster'
p2029
I1
tp2030
a(S'Christian B\xc3\xb6hm'
p2031
I1
tp2032
a(S'Paul Dantzig'
p2033
I1
tp2034
a(S'Bi-Ru Dai'
p2035
I1
tp2036
a(S'Ling Liu'
p2037
I1
tp2038
a(S'Sanjeev Saluja'
p2039
I1
tp2040
a(S'Roni Khardon'
p2041
I1
tp2042
a(S'Shichao Zhang'
p2043
I1
tp2044
a(S'Ton Weijters'
p2045
I1
tp2046
a(S'Ronny Lempel'
p2047
I1
tp2048
a(S'Daniel M. Dias'
p2049
I1
tp2050
a(S'Ram Sewak Sharm'
p2051
I1
tp2052
a(S'Jeffrey E. Wieselthier'
p2053
I1
tp2054
asS'Patrick Bas'
p2055
(lp2056
(S'Andreas Westfeld'
p2057
I8
tp2058
a(S'Hany Farid'
p2059
I3
tp2060
a(S'Siwei Lyu'
p2061
I3
tp2062
a(S'Thomas Voegtlin'
p2063
I1
tp2064
a(S'Aapo Hyv\xc3\xa4rinen'
p2065
I1
tp2066
a(S'Mehmet Kivan\xc3\xa7 Mih\xc3\xa7ak'
p2067
I1
tp2068
a(S'Andr\xc3\xa9 Adelsbach'
p2069
I1
tp2070
a(S'Ramarathnam Venkatesan'
p2071
I1
tp2072
a(S'Mustafa Kesal'
p2073
I1
tp2074
a(S'Erkki Oja'
p2075
I1
tp2076
a(S'Ahmad-Reza Sadeghi'
p2077
I1
tp2078
asS'Stefanos Gritzalis'
p2079
(lp2080
(S'Christophe Diot'
p2081
I2
tp2082
a(S'Manuel M. Oliveira'
p2083
I2
tp2084
a(S'Jon Crowcroft'
p2085
I2
tp2086
a(S'Andreas Lachenmann'
p2087
I1
tp2088
a(S'Ying Guang Li'
p2089
I1
tp2090
a(S'Olivier Festor'
p2091
I1
tp2092
a(S'Radu State'
p2093
I1
tp2094
a(S'Humberto J. Abdelnur'
p2095
I1
tp2096
a(S'Matthias Gauger'
p2097
I1
tp2098
a(S'Zhichen Xu'
p2099
I1
tp2100
a(S'Artur Andrzejak'
p2101
I1
tp2102
a(S'Yaling Yang'
p2103
I1
tp2104
a(S'Domenico Talia'
p2105
I1
tp2106
a(S'Kurt Rothermel'
p2107
I1
tp2108
a(S'Olga Saukh'
p2109
I1
tp2110
a(S'Daniel Minder'
p2111
I1
tp2112
a(S'Dimitris Alexopoulos'
p2113
I1
tp2114
a(S'Li Xiao'
p2115
I1
tp2116
a(S'James Aweya'
p2117
I1
tp2118
a(S'Ullas Nambiar'
p2119
I1
tp2120
a(S'Michel Ouellette'
p2121
I1
tp2122
a(S'Klara Nahrstedt'
p2123
I1
tp2124
a(S'James W. Hong'
p2125
I1
tp2126
a(S'Zo\xc3\xa9 Lacroix'
p2127
I1
tp2128
a(S'Vincent Cridlig'
p2129
I1
tp2130
a(S'Elias Proc\xc3\xb3pio Duarte Jr.'
p2131
I1
tp2132
a(S'Hong-Taek Ju'
p2133
I1
tp2134
a(S'Mong-Li Lee'
p2135
I1
tp2136
a(S'Jun Wang'
p2137
I1
tp2138
a(S'Paolo Trunfio'
p2139
I1
tp2140
a(S'John Soldatos'
p2141
I1
tp2142
a(S'St\xc3\xa9phane Bressan'
p2143
I1
tp2144
a(S'Delfin Y. Montuno'
p2145
I1
tp2146
a(S'Di\xc3\xb3genes Cogo Furlan'
p2147
I1
tp2148
a(S'Pedro Jos\xc3\xa9 Marr\xc3\xb3n'
p2149
I1
tp2150
a(S'Martin A. Musicante'
p2151
I1
tp2152
a(S'Jeong-Hyuk Yoon'
p2153
I1
tp2154
asS'David C. Yen'
p2155
(lp2156
(S'Arun Rai'
p2157
I2
tp2158
a(S'Waleed A. Muhanna'
p2159
I2
tp2160
a(S'James J. Jiang'
p2161
I2
tp2162
a(S'Gary Klein'
p2163
I2
tp2164
a(S'Hindi Al-Hindi'
p2165
I2
tp2166
a(S'Ephraim R. McLean'
p2167
I1
tp2168
a(S'Gordon E. McCray'
p2169
I1
tp2170
a(S'Moonkyu Lee'
p2171
I1
tp2172
a(S'Stuart J. Barnes'
p2173
I1
tp2174
a(S'Chao-Min Chiu'
p2175
I1
tp2176
a(S'Hsin-Hui Lin'
p2177
I1
tp2178
a(S'Varun Grover'
p2179
I1
tp2180
a(S'Theresa I. Jefferson'
p2181
I1
tp2182
a(S'Thomas J. Nagy'
p2183
I1
tp2184
a(S'Khawaja Asjad Saeed'
p2185
I1
tp2186
a(S'Pao-Long Chang'
p2187
I1
tp2188
a(S'Sherry D. Ryan'
p2189
I1
tp2190
a(S'Duncan Shaw'
p2191
I1
tp2192
a(S'Yih-Ping Cheng'
p2193
I1
tp2194
a(S'Richard T. Vidgen'
p2195
I1
tp2196
a(S'Tzu-Chuan Chou'
p2197
I1
tp2198
a(S'Tom L. Roberts'
p2199
I1
tp2200
a(S'Russell L. Purvis'
p2201
I1
tp2202
a(S'John S. Edwards'
p2203
I1
tp2204
a(S'Jinwoo Kim'
p2205
I1
tp2206
a(S'Kwanghee Han'
p2207
I1
tp2208
a(S'Chien-Tzu Tsai'
p2209
I1
tp2210
a(S'William H. DeLone'
p2211
I1
tp2212
a(S'Niki Panteli'
p2213
I1
tp2214
a(S'Jungwon Lee'
p2215
I1
tp2216
a(S'Yujong Hwang'
p2217
I1
tp2218
a(S'Yi-Shun Wang'
p2219
I1
tp2220
a(S'Raymond M. Henry'
p2221
I1
tp2222
a(S'Victor R. Prybutok'
p2223
I1
tp2224
asS'Pedro Garc\xc3\xada L\xc3\xb3pez'
p2225
(lp2226
(S'Edward Ball'
p2227
I1
tp2228
a(S'David W. Chadwick'
p2229
I1
tp2230
a(S'Philip Seltsikas'
p2231
I1
tp2232
a(S'Alexander Otenko'
p2233
I1
tp2234
a(S'Huinan Xu'
p2235
I1
tp2236
asS'Gauss M. Cordeiro'
p2237
(lp2238
(S'Gilberto A. Paula'
p2239
I10
tp2240
a(S'Feng-Chang Xie'
p2241
I6
tp2242
a(S'Bo-Cheng Wei'
p2243
I6
tp2244
a(S'Heleno Bolfarine'
p2245
I5
tp2246
a(S'Michelli Barros'
p2247
I5
tp2248
a(S'Manuel Galea'
p2249
I5
tp2250
a(S'V\xc3\xadctor Leiva'
p2251
I5
tp2252
a(S'Debasis Kundu'
p2253
I3
tp2254
a(S'H. K. T. Ng'
p2255
I3
tp2256
a(S'N. Balakrishnan'
p2257
I3
tp2258
a(S'Klaus L. P. Vasconcellos'
p2259
I1
tp2260
a(S'Francisco Cribari-Neto'
p2261
I1
tp2262
a(S'Artur J. Lemonte'
p2263
I1
tp2264
asS'Fabio Martignon'
p2265
(lp2266
(S'Christian Bettstetter'
p2267
I3
tp2268
a(S'Jang-Ping Sheu'
p2269
I2
tp2270
a(S'Guido H. Petit'
p2271
I2
tp2272
a(S'Yu-Chee Tseng'
p2273
I2
tp2274
a(S'Danny De Vleeschauwer'
p2275
I2
tp2276
a(S'Tzi-cker Chiueh'
p2277
I2
tp2278
a(S'Jan Janssen'
p2279
I2
tp2280
a(S'Yuh-Shyan Chen'
p2281
I2
tp2282
a(S'Rudolf Mathar'
p2283
I2
tp2284
a(S'Sze-Yao Ni'
p2285
I2
tp2286
a(S'Thomas Niessen'
p2287
I2
tp2288
a(S'Eitan Altman'
p2289
I2
tp2290
a(S'Kartik Gopalan'
p2291
I2
tp2292
a(S'Maarten B\xc3\xbcchli'
p2293
I2
tp2294
a(S'Ashish Raniwala'
p2295
I2
tp2296
a(S'Roy Want'
p2297
I1
tp2298
a(S'Xi-Ren Cao'
p2299
I1
tp2300
a(S'Nidhi Hegde'
p2301
I1
tp2302
a(S'Kee Chaing Chua'
p2303
I1
tp2304
a(S'Yijie Han'
p2305
I1
tp2306
a(S'Olov Schel\xc3\xa9n'
p2307
I1
tp2308
a(S'Xudong Wang'
p2309
I1
tp2310
a(S'Mario Gerla'
p2311
I1
tp2312
a(S'Stephen B. Weinstein'
p2313
I1
tp2314
a(S'Nan Tu'
p2315
I1
tp2316
a(S'Junbiao Zhang'
p2317
I1
tp2318
a(S'M. Y. Sanadidi'
p2319
I1
tp2320
a(S'Luigi Iannone'
p2321
I1
tp2322
a(S'Giovanni Schembra'
p2323
I1
tp2324
a(S'Y. C. Tay'
p2325
I1
tp2326
a(S'R. Srikant'
p2327
I1
tp2328
a(S'Francesco Licandro'
p2329
I1
tp2330
a(S'Armand M. Makowski'
p2331
I1
tp2332
a(S'Ren Wang'
p2333
I1
tp2334
a(S'Michel Mandjes'
p2335
I1
tp2336
a(S'Weilin Wang'
p2337
I1
tp2338
a(S'Bo Li'
p2339
I1
tp2340
a(S'Xavier P\xc3\xa9rez Costa'
p2341
I1
tp2342
a(S'Lizhong Li'
p2343
I1
tp2344
a(S'Avri Doria'
p2345
I1
tp2346
a(S'Fang Zhu'
p2347
I1
tp2348
a(S'Jun Li'
p2349
I1
tp2350
a(S'Hannes Hartenstein'
p2351
I1
tp2352
a(S'Richard J. La'
p2353
I1
tp2354
a(S'Tamer Basar'
p2355
I1
tp2356
a(S'Claudio Casetti'
p2357
I1
tp2358
a(S'Anders Lindgren'
p2359
I1
tp2360
a(S'Saverio Mascolo'
p2361
I1
tp2362
a(S'Tansu Alpcan'
p2363
I1
tp2364
a(S'Janise McNair'
p2365
I1
tp2366
a(S'Seungjoon Lee'
p2367
I1
tp2368
a(S'Konstantin Kabassanov'
p2369
I1
tp2370
a(S'Serge Fdida'
p2371
I1
tp2372
a(S'Ian F. Akyildiz'
p2373
I1
tp2374
a(S'Bin Li'
p2375
I1
tp2376
asS'Luciano Lenzini'
p2377
(lp2378
(S'Enrico Gregori'
p2379
I6
tp2380
a(S'Marco Conti'
p2381
I6
tp2382
a(S'Tarek N. Saadawi'
p2383
I3
tp2384
a(S'Jyh-Cheng Chen'
p2385
I3
tp2386
a(S'Krishna M. Sivalingam'
p2387
I3
tp2388
a(S'Raffaele Bruno'
p2389
I3
tp2390
a(S'Christine E. Jones'
p2391
I3
tp2392
a(S'Milica Stojanovic'
p2393
I3
tp2394
a(S'Prathima Agrawal'
p2395
I3
tp2396
a(S'Shugong Xu'
p2397
I3
tp2398
a(S'Ali H. Sayed'
p2399
I2
tp2400
a(S'Henrik Lundgren'
p2401
I2
tp2402
a(S'Danny De Vleeschauwer'
p2403
I2
tp2404
a(S'Erdal Cayirci'
p2405
I2
tp2406
a(S'Hannes Hartenstein'
p2407
I2
tp2408
a(S'Geoff A. W. West'
p2409
I2
tp2410
a(S'Christian Bettstetter'
p2411
I2
tp2412
a(S'P. Krishnan'
p2413
I2
tp2414
a(S'Weilian Su'
p2415
I2
tp2416
a(S'Guido H. Petit'
p2417
I2
tp2418
a(S'Jason Flinn'
p2419
I2
tp2420
a(S'Jan Janssen'
p2421
I2
tp2422
a(S'Albert F. Harris III'
p2423
I2
tp2424
a(S'Ronny Krashinsky'
p2425
I2
tp2426
a(S'Fabio Panzieri'
p2427
I2
tp2428
a(S'Hari Balakrishnan'
p2429
I2
tp2430
a(S'Christian F. Tschudin'
p2431
I2
tp2432
a(S'Ian F. Akyildiz'
p2433
I2
tp2434
a(S'Svetha Venkatesh'
p2435
I2
tp2436
a(S'Manish Anand'
p2437
I2
tp2438
a(S'Eitan Altman'
p2439
I2
tp2440
a(S'Maarten B\xc3\xbcchli'
p2441
I2
tp2442
a(S'Erik Nordstr\xc3\xb6m'
p2443
I2
tp2444
a(S'Yogesh Sankarasubramaniam'
p2445
I2
tp2446
a(S'Yu-Chee Tseng'
p2447
I2
tp2448
a(S'Andrea Passarella'
p2449
I2
tp2450
a(S'Xavier P\xc3\xa9rez Costa'
p2451
I2
tp2452
a(S'Sylvia M. Dominguez'
p2453
I2
tp2454
a(S'Nitin H. Vaidya'
p2455
I2
tp2456
a(S'Gavin Holland'
p2457
I2
tp2458
a(S'Trish Keaton'
p2459
I2
tp2460
a(S'Edmund B. Nightingale'
p2461
I2
tp2462
a(S'Robin Kravets'
p2463
I2
tp2464
a(S'Oluf Faroe'
p2465
I1
tp2466
a(S'Nidhi Hegde'
p2467
I1
tp2468
a(S'Sebastian L\xc3\xbchr'
p2469
I1
tp2470
a(S'Matthai Philipose'
p2471
I1
tp2472
a(S'Kenneth P. Fishkin'
p2473
I1
tp2474
a(S'Leandros Tassiulas'
p2475
I1
tp2476
a(S'Songwu Lu'
p2477
I1
tp2478
a(S'Alexander Kesselman'
p2479
I1
tp2480
a(S'Giacomino Veltri'
p2481
I1
tp2482
a(S'Raino Vastam\xc3\xa4ki'
p2483
I1
tp2484
a(S'Tiina Heikkinen'
p2485
I1
tp2486
a(S'Zvi Lotker'
p2487
I1
tp2488
a(S'Andrea Lodi'
p2489
I1
tp2490
a(S'Daniel A. Menasc\xc3\xa9'
p2491
I1
tp2492
a(S'Yuh-Shyan Chen'
p2493
I1
tp2494
a(S'Fabian Kuhn'
p2495
I1
tp2496
a(S'Stefan Funke'
p2497
I1
tp2498
a(S'Prasant Mohapatra'
p2499
I1
tp2500
a(S'Simon Moncrieff'
p2501
I1
tp2502
a(S'Jennifer Ann Rode'
p2503
I1
tp2504
a(S'Henry A. Kautz'
p2505
I1
tp2506
a(S'Amiya Bhattacharya'
p2507
I1
tp2508
a(S'Tansu Alpcan'
p2509
I1
tp2510
a(S'Peng-Jun Wan'
p2511
I1
tp2512
a(S'Santosh K. Shrivastava'
p2513
I1
tp2514
a(S'Olov Schel\xc3\xa9n'
p2515
I1
tp2516
a(S'Michael Segal'
p2517
I1
tp2518
a(S'Mark Handley'
p2519
I1
tp2520
a(S'Anders Lindgren'
p2521
I1
tp2522
a(S'Richard J. La'
p2523
I1
tp2524
a(S'Tamer Basar'
p2525
I1
tp2526
a(S'Fan Ye'
p2527
I1
tp2528
a(S'Diane J. Cook'
p2529
I1
tp2530
a(S'David B. Ingham'
p2531
I1
tp2532
a(S'Miodrag Potkonjak'
p2533
I1
tp2534
a(S'Seungjoon Lee'
p2535
I1
tp2536
a(S'Timothy X. Brown'
p2537
I1
tp2538
a(S'Paolo Casari'
p2539
I1
tp2540
a(S'Lawrence B. Holder'
p2541
I1
tp2542
a(S'Richard M. Karp'
p2543
I1
tp2544
a(S'Jan M. Rabaey'
p2545
I1
tp2546
a(S'Filippo Focacci'
p2547
I1
tp2548
a(S'Jana van Greunen'
p2549
I1
tp2550
a(S'Dirk H\xc3\xa4hnel'
p2551
I1
tp2552
a(S'Jang-Ping Sheu'
p2553
I1
tp2554
a(S'Kurtis B. Kredo II'
p2555
I1
tp2556
a(S'Sylvia Ratnasamy'
p2557
I1
tp2558
a(S'Dieter Fox'
p2559
I1
tp2560
a(S'Y. C. Tay'
p2561
I1
tp2562
a(S'Michel Mandjes'
p2563
I1
tp2564
a(S'Scott Shenker'
p2565
I1
tp2566
a(S'Lizhong Li'
p2567
I1
tp2568
a(S'Sze-Yao Ni'
p2569
I1
tp2570
a(S'Mike Perkowitz'
p2571
I1
tp2572
a(S'Toshio Sakata'
p2573
I1
tp2574
a(S'Michela Milano'
p2575
I1
tp2576
a(S'Cecilia Leinonen'
p2577
I1
tp2578
a(S'Borja Peleato'
p2579
I1
tp2580
a(S'Bin Li'
p2581
I1
tp2582
a(S'Martin Zachariasen'
p2583
I1
tp2584
a(S'Chi-Jiun Su'
p2585
I1
tp2586
a(S'Gary Zhong'
p2587
I1
tp2588
a(S'Farinaz Koushanfar'
p2589
I1
tp2590
a(S'Kee Chaing Chua'
p2591
I1
tp2592
a(S'Yijie Han'
p2593
I1
tp2594
a(S'G. Michael Youngblood'
p2595
I1
tp2596
a(S'Ruth Kikin-Gil'
p2597
I1
tp2598
a(S'R. Srikant'
p2599
I1
tp2600
a(S'Shweta Bhandare'
p2601
I1
tp2602
a(S'Xiangyang Li'
p2603
I1
tp2604
a(S'Bo Li'
p2605
I1
tp2606
a(S'Xi-Ren Cao'
p2607
I1
tp2608
a(S'Avri Doria'
p2609
I1
tp2610
a(S'Sajal K. Das'
p2611
I1
tp2612
a(S'David Pisinger'
p2613
I1
tp2614
a(S'Sheetalkumar Doshi'
p2615
I1
tp2616
a(S'Lixia Zhang'
p2617
I1
tp2618
a(S'Chi-Fu Huang'
p2619
I1
tp2620
a(S'Irmeli Sinkkonen'
p2621
I1
tp2622
a(S'Seapahn Megerian'
p2623
I1
tp2624
a(S'Kian-Lee Tan'
p2625
I1
tp2626
a(S'Gang Qu'
p2627
I1
tp2628
a(S'Armand M. Makowski'
p2629
I1
tp2630
a(S'Jeffrey Xu Yu'
p2631
I1
tp2632
a(S'Stewart Greenhill'
p2633
I1
tp2634
a(S'Donald J. Patterson'
p2635
I1
tp2636
asS'Vicent Pla'
p2637
(lp2638
(S'Hannes Hartenstein'
p2639
I1
tp2640
a(S'Esa Hyyti\xc3\xa4'
p2641
I1
tp2642
a(S'J. W. Roberts'
p2643
I1
tp2644
a(S'Christian Bettstetter'
p2645
I1
tp2646
a(S'Xavier P\xc3\xa9rez Costa'
p2647
I1
tp2648
asS'Azuraliza Abu Bakar'
p2649
(lp2650
sS'Jie Chen'
p2651
(lp2652
(S'Shantidev Mohanty'
p2653
I2
tp2654
a(S'Ian F. Akyildiz'
p2655
I2
tp2656
a(S'Mehmet C. Vuran'
p2657
I2
tp2658
a(S'Won-Yeol Lee'
p2659
I2
tp2660
a(S'Henry Brighton'
p2661
I1
tp2662
a(S'Andrea Basso'
p2663
I1
tp2664
a(S'Jennifer Rexford'
p2665
I1
tp2666
a(S'Pabitra Mitra'
p2667
I1
tp2668
a(S'Gary Zhong'
p2669
I1
tp2670
a(S'Songwu Lu'
p2671
I1
tp2672
a(S'Christy M. K. Cheung'
p2673
I1
tp2674
a(S'Raquel Benbunan-Fich'
p2675
I1
tp2676
a(S'Ing-Long Wu'
p2677
I1
tp2678
a(S'Lixia Zhang'
p2679
I1
tp2680
a(S'Deborah Estrin'
p2681
I1
tp2682
a(S'Ramesh Govindan'
p2683
I1
tp2684
a(S'Chris Mellish'
p2685
I1
tp2686
a(S'Fan Ye'
p2687
I1
tp2688
a(S'J. B. Arbaugh'
p2689
I1
tp2690
a(S'Stephane Gruber'
p2691
I1
tp2692
a(S'Deepak Ganesan'
p2693
I1
tp2694
a(S'Geoffrey J. McLachlan'
p2695
I1
tp2696
a(S'Yi-Shun Wang'
p2697
I1
tp2698
a(S'Matthew K. O. Lee'
p2699
I1
tp2700
a(S'Scott Shenker'
p2701
I1
tp2702
a(S'Shu-Kay Ng'
p2703
I1
tp2704
a(S'Zhaohui Chen'
p2705
I1
tp2706
a(S'Sankar K. Pal'
p2707
I1
tp2708
asS'Winston Khoon Guan Seah'
p2709
(lp2710
(S'Nigel Davies'
p2711
I1
tp2712
a(S'Chen-Khong Tham'
p2713
I1
tp2714
a(S'Yuming Jiang'
p2715
I1
tp2716
a(S'Joe Finney'
p2717
I1
tp2718
a(S'James P. G. Sterbenz'
p2719
I1
tp2720
a(S'Wesley M. Eddy'
p2721
I1
tp2722
a(S'Keith Cheverst'
p2723
I1
tp2724
a(S'Maomao Wu'
p2725
I1
tp2726
a(S'Rajesh Krishnan'
p2727
I1
tp2728
a(S'Mark Allman'
p2729
I1
tp2730
a(S'Craig Partridge'
p2731
I1
tp2732
a(S'Stefan Schmid'
p2733
I1
tp2734
a(S'Adrian Friday'
p2735
I1
tp2736
asS'Lisong Xu'
p2737
(lp2738
(S'C. Siva Ram Murthy'
p2739
I2
tp2740
a(S'Alicia Nicki Washington'
p2741
I1
tp2742
a(S'Olov Schel\xc3\xa9n'
p2743
I1
tp2744
a(S'N. Srinivas'
p2745
I1
tp2746
a(S'Anders Lindgren'
p2747
I1
tp2748
a(S'Lars-Olof Burchard'
p2749
I1
tp2750
a(S'Harsha V. Madhyastha'
p2751
I1
tp2752
a(S'Avri Doria'
p2753
I1
tp2754
asS'Tao Gu'
p2755
(lp2756
(S'Ali H. Sayed'
p2757
I2
tp2758
a(S'Geoff A. W. West'
p2759
I2
tp2760
a(S'Ian F. Akyildiz'
p2761
I2
tp2762
a(S'Yu-Chee Tseng'
p2763
I2
tp2764
a(S'Weilian Su'
p2765
I2
tp2766
a(S'Svetha Venkatesh'
p2767
I2
tp2768
a(S'Erdal Cayirci'
p2769
I2
tp2770
a(S'Sylvia M. Dominguez'
p2771
I2
tp2772
a(S'Yogesh Sankarasubramaniam'
p2773
I2
tp2774
a(S'Trish Keaton'
p2775
I2
tp2776
a(S'Seapahn Megerian'
p2777
I1
tp2778
a(S'Michael Beigl'
p2779
I1
tp2780
a(S'Jang-Ping Sheu'
p2781
I1
tp2782
a(S'SankaRavipriya Hettiarachchi'
p2783
I1
tp2784
a(S'Matthai Philipose'
p2785
I1
tp2786
a(S'Albrecht Schmidt'
p2787
I1
tp2788
a(S'Dirk H\xc3\xa4hnel'
p2789
I1
tp2790
a(S'Jan M. Rabaey'
p2791
I1
tp2792
a(S'G. Michael Youngblood'
p2793
I1
tp2794
a(S'Kenneth P. Fishkin'
p2795
I1
tp2796
a(S'Matthias Hemmje'
p2797
I1
tp2798
a(S'Leandros Tassiulas'
p2799
I1
tp2800
a(S'Sylvia Ratnasamy'
p2801
I1
tp2802
a(S'Jin Song Dong'
p2803
I1
tp2804
a(S'Alexander Kesselman'
p2805
I1
tp2806
a(S'Ruth Kikin-Gil'
p2807
I1
tp2808
a(S'Chi-Jiun Su'
p2809
I1
tp2810
a(S'Raino Vastam\xc3\xa4ki'
p2811
I1
tp2812
a(S'Chung-Yau Chin'
p2813
I1
tp2814
a(S'Lawrence B. Holder'
p2815
I1
tp2816
a(S'Simon Moncrieff'
p2817
I1
tp2818
a(S'Zvi Lotker'
p2819
I1
tp2820
a(S'Jennifer Ann Rode'
p2821
I1
tp2822
a(S'Sebastian L\xc3\xbchr'
p2823
I1
tp2824
a(S'Scott Shenker'
p2825
I1
tp2826
a(S'Yuh-Shyan Chen'
p2827
I1
tp2828
a(S'Giacomino Veltri'
p2829
I1
tp2830
a(S'Fabian Kuhn'
p2831
I1
tp2832
a(S'Lieming Huang'
p2833
I1
tp2834
a(S'Erich J. Neuhold'
p2835
I1
tp2836
a(S'Michael Segal'
p2837
I1
tp2838
a(S'Sajal K. Das'
p2839
I1
tp2840
a(S'Gerd Kortuem'
p2841
I1
tp2842
a(S'Sze-Yao Ni'
p2843
I1
tp2844
a(S'Mike Perkowitz'
p2845
I1
tp2846
a(S'Toshio Sakata'
p2847
I1
tp2848
a(S'Xiaohang Wang'
p2849
I1
tp2850
a(S'Stefan Funke'
p2851
I1
tp2852
a(S'Chi-Fu Huang'
p2853
I1
tp2854
a(S'Irmeli Sinkkonen'
p2855
I1
tp2856
a(S'Dieter Fox'
p2857
I1
tp2858
a(S'Jana van Greunen'
p2859
I1
tp2860
a(S'Tiina Heikkinen'
p2861
I1
tp2862
a(S'Hans Gellersen'
p2863
I1
tp2864
a(S'Cecilia Leinonen'
p2865
I1
tp2866
a(S'Kian-Lee Tan'
p2867
I1
tp2868
a(S'Henry A. Kautz'
p2869
I1
tp2870
a(S'Donald J. Patterson'
p2871
I1
tp2872
a(S'Diane J. Cook'
p2873
I1
tp2874
a(S'Amiya Bhattacharya'
p2875
I1
tp2876
a(S'Miodrag Potkonjak'
p2877
I1
tp2878
a(S'Gang Qu'
p2879
I1
tp2880
a(S'Mark Handley'
p2881
I1
tp2882
a(S'Jeffrey Xu Yu'
p2883
I1
tp2884
a(S'Farinaz Koushanfar'
p2885
I1
tp2886
a(S'Stewart Greenhill'
p2887
I1
tp2888
a(S'Richard M. Karp'
p2889
I1
tp2890
a(S'Monika Rauch Henzinger'
p2891
I1
tp2892
asS'Serge Fdida'
p2893
(lp2894
(S'Catherine Rosenberg'
p2895
I2
tp2896
a(S'Aravind Iyer'
p2897
I2
tp2898
a(S'Bruno Schulze'
p2899
I1
tp2900
a(S'Avri Doria'
p2901
I1
tp2902
a(S'Weilian Su'
p2903
I1
tp2904
a(S'Elias Proc\xc3\xb3pio Duarte Jr.'
p2905
I1
tp2906
a(S'Erdal Cayirci'
p2907
I1
tp2908
a(S'Olov Schel\xc3\xa9n'
p2909
I1
tp2910
a(S'Edmundo Roberto Mauro Madeira'
p2911
I1
tp2912
a(S'Anders Lindgren'
p2913
I1
tp2914
a(S'Yogesh Sankarasubramaniam'
p2915
I1
tp2916
a(S'Ian F. Akyildiz'
p2917
I1
tp2918
a(S'Luciano Paschoal Gaspary'
p2919
I1
tp2920
a(S'Jos\xc3\xa9 Neuman de Souza'
p2921
I1
tp2922
a(S'Mark A. Shayman'
p2923
I1
tp2924
a(S'Anuj Rawat'
p2925
I1
tp2926
a(S'Lisandro Zambenedetti Granville'
p2927
I1
tp2928
asS'Quan Z. Sheng'
p2929
(lp2930
(S'Athman Bouguettaya'
p2931
I8
tp2932
a(S'Mourad Ouzzani'
p2933
I8
tp2934
a(S'Fabio Casati'
p2935
I7
tp2936
a(S'Farouk Toumani'
p2937
I6
tp2938
a(S'Brahim Medjahed'
p2939
I4
tp2940
a(S'Abdelmounaam Rezgui'
p2941
I4
tp2942
a(S'Amit P. Sheth'
p2943
I2
tp2944
a(S'Michael H. B\xc3\xb6hlen'
p2945
I2
tp2946
a(S'Miroslaw Malek'
p2947
I2
tp2948
a(S'Hamdi Yahyaoui'
p2949
I2
tp2950
a(S'Nikola Milanovic'
p2951
I2
tp2952
a(S'Christian S. Jensen'
p2953
I2
tp2954
a(S'Wil M. P. van der Aalst'
p2955
I2
tp2956
a(S'Soraya Kouadri Most\xc3\xa9faoui'
p2957
I2
tp2958
a(S'Andrew H. Gold'
p2959
I1
tp2960
a(S'Halvard Skogsrud'
p2961
I1
tp2962
a(S'Sanjiva Weerawarana'
p2963
I1
tp2964
a(S'Yabing Jiang'
p2965
I1
tp2966
a(S'Manfred Reichert'
p2967
I1
tp2968
a(S'Stefanie Rinderle'
p2969
I1
tp2970
a(S'Martin Erwig'
p2971
I1
tp2972
a(S'Dongwon Lee'
p2973
I1
tp2974
a(S'Daniel A. Menasc\xc3\xa9'
p2975
I1
tp2976
a(S'Rania Khalaf'
p2977
I1
tp2978
a(S'Nikos A. Lorentzos'
p2979
I1
tp2980
a(S'Adam Hess'
p2981
I1
tp2982
a(S'Badri Nath'
p2983
I1
tp2984
a(S'Irma Becerra-Fernandez'
p2985
I1
tp2986
a(S'Vipul Kashyap'
p2987
I1
tp2988
a(S'Peter Dadam'
p2989
I1
tp2990
a(S'Dolf Gr\xc3\xbcnbauer'
p2991
I1
tp2992
a(S'Sudha Ram'
p2993
I1
tp2994
a(S'Ivan Png'
p2995
I1
tp2996
a(S'William Nagy'
p2997
I1
tp2998
a(S'Markus Schneider'
p2999
I1
tp3000
a(S'Arthur H. M. ter Hofstede'
p3001
I1
tp3002
a(S'San-Yih Hwang'
p3003
I1
tp3004
a(S'Lihui Lin'
p3005
I1
tp3006
a(S'Bryan Smith'
p3007
I1
tp3008
a(S'Il-Horn Hann'
p3009
I1
tp3010
a(S'Nirmal Mukhi'
p3011
I1
tp3012
a(S'Millist W. Vincent'
p3013
I1
tp3014
a(S'Mathias Weske'
p3015
I1
tp3016
a(S'Ralf Hartmut G\xc3\xbcting'
p3017
I1
tp3018
a(S'Saikou Y. Diallo'
p3019
I1
tp3020
a(S'Chia-Hui Chang'
p3021
I1
tp3022
a(S'Mark Bergen'
p3023
I1
tp3024
a(S'Michalis Vazirgiannis'
p3025
I1
tp3026
a(S'Richard T. Snodgrass'
p3027
I1
tp3028
a(S'Raghu Ramakrishnan'
p3029
I1
tp3030
a(S'Rajiv Sabherwal'
p3031
I1
tp3032
a(S'Yeh-ning Chen'
p3033
I1
tp3034
a(S'Jon Lathem'
p3035
I1
tp3036
a(S'Ivan P. L. Png'
p3037
I1
tp3038
a(S'Nalin Kulatilaka'
p3039
I1
tp3040
a(S'Bartek Kiepuszewski'
p3041
I1
tp3042
a(S'Francisco Curbera'
p3043
I1
tp3044
a(S'Lawrence A. West Jr.'
p3045
I1
tp3046
a(S'Matthew J. Duftler'
p3047
I1
tp3048
a(S'Radia J. Perlman'
p3049
I1
tp3050
a(S'Karthik Gomadam'
p3051
I1
tp3052
a(S'Lina Yu'
p3053
I1
tp3054
a(S'Ya-Fan Chen'
p3055
I1
tp3056
a(S'Venkatesh Ganti'
p3057
I1
tp3058
a(S'Moheb R. Girgis'
p3059
I1
tp3060
a(S'Johannes Gehrke'
p3061
I1
tp3062
a(S'Ting Yu'
p3063
I1
tp3064
a(S'Roy Want'
p3065
I1
tp3066
a(S'Mark Levene'
p3067
I1
tp3068
a(S'Charlie Kaufman'
p3069
I1
tp3070
a(S'Arvind Malhotra'
p3071
I1
tp3072
a(S'Khaled F. Shaalan'
p3073
I1
tp3074
a(S'Jinsoo Park'
p3075
I1
tp3076
a(S'Kent E. Seamons'
p3077
I1
tp3078
a(S'Kai Lung Hui'
p3079
I1
tp3080
a(S'Franklin Reynolds'
p3081
I1
tp3082
a(S'Marianne Winslett'
p3083
I1
tp3084
a(S'Giovanni Maria Sacco'
p3085
I1
tp3086
a(S'Jared Jacobson'
p3087
I1
tp3088
a(S'Marshall L. Freimer'
p3089
I1
tp3090
a(S'Arantza Illarramendi'
p3091
I1
tp3092
a(S'Albert H. Segars'
p3093
I1
tp3094
a(S'Ryan Jarvis'
p3095
I1
tp3096
a(S'Robert J. Kauffman'
p3097
I1
tp3098
a(S'Alistair P. Barros'
p3099
I1
tp3100
a(S'Sang-Yong Tom Lee'
p3101
I1
tp3102
a(S'Eduardo Mena'
p3103
I1
tp3104
a(S'Eric K. Clemons'
p3105
I1
tp3106
a(S'Rajiv M. Dewan'
p3107
I1
tp3108
a(S'Ravi Aron'
p3109
I1
tp3110
a(S'Andreas Tolk'
p3111
I1
tp3112
a(S'Mohammed Kayed'
p3113
I1
tp3114
asS'Yunhao Liu'
p3115
(lp3116
(S'Ivan Stojmenovic'
p3117
I2
tp3118
a(S'Xiang-Yang Li'
p3119
I2
tp3120
a(S'Gruia Calinescu'
p3121
I2
tp3122
a(S'Ophir Frieder'
p3123
I2
tp3124
a(S'Peng-Jun Wan'
p3125
I2
tp3126
a(S'Domenico Talia'
p3127
I1
tp3128
a(S'Shyam Kapadia'
p3129
I1
tp3130
a(S'J\xc3\xb6rg Liebeherr'
p3131
I1
tp3132
a(S'\xc3\x9cmit \xc3\x96zg\xc3\xbcner'
p3133
I1
tp3134
a(S'Xiaoyang Sean Wang'
p3135
I1
tp3136
a(S'Changzhou Wang'
p3137
I1
tp3138
a(S'Timothy Talty'
p3139
I1
tp3140
a(S'Jijun Yin'
p3141
I1
tp3142
a(S'Tim Leinm\xc3\xbcller'
p3143
I1
tp3144
a(S'Lap Kong Law'
p3145
I1
tp3146
a(S'Paolo Trunfio'
p3147
I1
tp3148
a(S'Stephen Habermas'
p3149
I1
tp3150
a(S'Christian Maih\xc3\xb6fer'
p3151
I1
tp3152
a(S'Stephen D. Patek'
p3153
I1
tp3154
a(S'Michael Hunter'
p3155
I1
tp3156
a(S'Raja Sengupta'
p3157
I1
tp3158
a(S'Jeff Ko'
p3159
I1
tp3160
a(S'Daniel S. Weller'
p3161
I1
tp3162
a(S'Gavin Yeung'
p3163
I1
tp3164
a(S'Jianping Wang'
p3165
I1
tp3166
a(S'Rangasami L. Kashyap'
p3167
I1
tp3168
a(S'Amit Kumar Saha'
p3169
I1
tp3170
a(S'Bo Ryu'
p3171
I1
tp3172
a(S'Jun-ichi Akahani'
p3173
I1
tp3174
a(S'Qing Xu'
p3175
I1
tp3176
a(S'David R. Choffnes'
p3177
I1
tp3178
a(S'Randall Guensler'
p3179
I1
tp3180
a(S'Shahram Ghandeharizadeh'
p3181
I1
tp3182
a(S'Yunyao Qu'
p3183
I1
tp3184
a(S'Michalis Faloutsos'
p3185
I1
tp3186
a(S'Rahul Mangharam'
p3187
I1
tp3188
a(S'F\xc3\xbcsun \xc3\x96zg\xc3\xbcner'
p3189
I1
tp3190
a(S'Ranga Makanaboyina'
p3191
I1
tp3192
a(S'Adithya C. H.'
p3193
I1
tp3194
a(S'Tony K. Mak'
p3195
I1
tp3196
a(S'Eylem Ekici'
p3197
I1
tp3198
a(S'Elmar Schoch'
p3199
I1
tp3200
a(S'Hao Wu'
p3201
I1
tp3202
a(S'Yutaka Yanagisawa'
p3203
I1
tp3204
a(S'Richard M. Fujimoto'
p3205
I1
tp3206
a(S'Bhaskar Krishnamachari'
p3207
I1
tp3208
a(S'Hariharan Krishnan'
p3209
I1
tp3210
a(S'Zhichen Xu'
p3211
I1
tp3212
a(S'Julio Solano-Gonz\xc3\xa1lez'
p3213
I1
tp3214
a(S'Prosenjit Bose'
p3215
I1
tp3216
a(S'Fabi\xc3\xa1n E. Bustamante'
p3217
I1
tp3218
a(S'David B. Johnson'
p3219
I1
tp3220
a(S'Jayendra S. Parikh'
p3221
I1
tp3222
a(S'Sandeep K. S. Gupta'
p3223
I1
tp3224
a(S'Manish Kochhal'
p3225
I1
tp3226
a(S'Pat Morin'
p3227
I1
tp3228
a(S'Ravi M. Yadumurthy'
p3229
I1
tp3230
a(S'Like Gao'
p3231
I1
tp3232
a(S'Tetsuji Satoh'
p3233
I1
tp3234
a(S'Jorge Urrutia'
p3235
I1
tp3236
a(S'Artur Andrzejak'
p3237
I1
tp3238
a(S'Mohan Sadashivaiah'
p3239
I1
tp3240
a(S'Daniel D. Stancil'
p3241
I1
tp3242
a(S'Srikanth V. Krishnamurthy'
p3243
I1
tp3244
a(S'G\xc3\xb6khan Korkmaz'
p3245
I1
tp3246
a(S'Tamer A. ElBatt'
p3247
I1
tp3248
a(S'Shu-Ching Chen'
p3249
I1
tp3250
a(S'Loren Schwiebert'
p3251
I1
tp3252
a(S'Haiyong Wang'
p3253
I1
tp3254
a(S'Ragunathan Rajkumar'
p3255
I1
tp3256
a(S'Mahtab Seddigh'
p3257
I1
tp3258
asS'Romit Roy Choudhury'
p3259
(lp3260
(S'Tzi-cker Chiueh'
p3261
I2
tp3262
a(S'Kartik Gopalan'
p3263
I2
tp3264
a(S'Robin Kravets'
p3265
I2
tp3266
a(S'Ashish Raniwala'
p3267
I2
tp3268
a(S'Jang-Ping Sheu'
p3269
I1
tp3270
a(S'Chatschik Bisdikian'
p3271
I1
tp3272
a(S'Cigdem Sengul'
p3273
I1
tp3274
a(S'Saumitra M. Das'
p3275
I1
tp3276
a(S'Mingyan Liu'
p3277
I1
tp3278
a(S'Yu-Chee Tseng'
p3279
I1
tp3280
a(S'Young-Bae Ko'
p3281
I1
tp3282
a(S'Y. Charlie Hu'
p3283
I1
tp3284
a(S'Jules Jaffe'
p3285
I1
tp3286
a(S'Shweta Bhandare'
p3287
I1
tp3288
a(S'Frank Siegemund'
p3289
I1
tp3290
a(S'Stamatis Stefanakos'
p3291
I1
tp3292
a(S'Luiz Filipe M. Vieira'
p3293
I1
tp3294
a(S'Chi-Hsun Liu'
p3295
I1
tp3296
a(S'Leonardo Badia'
p3297
I1
tp3298
a(S'Curt Schurgers'
p3299
I1
tp3300
a(S'Michael Rohs'
p3301
I1
tp3302
a(S'Sheetalkumar Doshi'
p3303
I1
tp3304
a(S'Chiara Petrioli'
p3305
I1
tp3306
a(S'Andrew T. Campbell'
p3307
I1
tp3308
a(S'Enrique J. Duarte-Melo'
p3309
I1
tp3310
a(S'Michele Mastrogiovanni'
p3311
I1
tp3312
a(S'Mario Gerla'
p3313
I1
tp3314
a(S'Shih-Lin Wu'
p3315
I1
tp3316
a(S'Mahmoud Naghshineh'
p3317
I1
tp3318
a(S'Milica Stojanovic'
p3319
I1
tp3320
a(S'P. Krishnan'
p3321
I1
tp3322
a(S'Javier Gomez'
p3323
I1
tp3324
a(S'Himabindu Pucha'
p3325
I1
tp3326
a(S'Timothy X. Brown'
p3327
I1
tp3328
a(S'Melike Erol'
p3329
I1
tp3330
a(S'Michele Zorzi'
p3331
I1
tp3332
a(S'Pradeep Kyasanur'
p3333
I1
tp3334
asS'Antonio F. G\xc3\xb3mez-Skarmeta'
p3335
(lp3336
sS'Man-Lai Tang'
p3337
(lp3338
(S'Sik-Yum Lee'
p3339
I2
tp3340
a(S'Xin-Yuan Song'
p3341
I1
tp3342
a(S'Raghu Ramakrishnan'
p3343
I1
tp3344
a(S'Hong-Tu Zhu'
p3345
I1
tp3346
a(S'Venkatesh Ganti'
p3347
I1
tp3348
a(S'Bin Lu'
p3349
I1
tp3350
a(S'Johannes Gehrke'
p3351
I1
tp3352
asS'Min Chen'
p3353
(lp3354
(S'Yi-Bing Lin'
p3355
I4
tp3356
a(S'Leyla Toumi'
p3357
I2
tp3358
a(S'Dirk Staehle'
p3359
I2
tp3360
a(S'B. R. Badrinath'
p3361
I2
tp3362
a(S'Herman Chung-Hwa Rao'
p3363
I2
tp3364
a(S'J. Antonio Garc\xc3\xada-Mac\xc3\xadas'
p3365
I2
tp3366
a(S'Anup Kumar Talukdar'
p3367
I2
tp3368
a(S'Kenji Leibnitz'
p3369
I2
tp3370
a(S'Heung Wong'
p3371
I2
tp3372
a(S'Ai-Chun Pang'
p3373
I2
tp3374
a(S'Arup Acharya'
p3375
I2
tp3376
a(S'Gilles Berger-Sabbatel'
p3377
I2
tp3378
a(S'Riquan Zhang'
p3379
I2
tp3380
a(S'Chien-Chao Tseng'
p3381
I2
tp3382
a(S'Franck Rousseau'
p3383
I2
tp3384
a(S'Gwo-Chuan Lee'
p3385
I2
tp3386
a(S'Konstantin Tsipotis'
p3387
I2
tp3388
a(S'Ren-Shiou Liu'
p3389
I2
tp3390
a(S'Wai-Cheung Ip'
p3391
I2
tp3392
a(S'Andrzej Duda'
p3393
I2
tp3394
a(S'Tsan-Pin Wang'
p3395
I2
tp3396
a(S'Lap Kong Law'
p3397
I1
tp3398
a(S'Utkarsh Srivastava'
p3399
I1
tp3400
a(S'Kazuhiro Minami'
p3401
I1
tp3402
a(S'Roman Schmidt'
p3403
I1
tp3404
a(S'Jennifer Widom'
p3405
I1
tp3406
a(S'Raimo Kantola'
p3407
I1
tp3408
a(S'Hung Keng Pung'
p3409
I1
tp3410
a(S'Boo-Young Chung'
p3411
I1
tp3412
a(S'Thomas F. La Porta'
p3413
I1
tp3414
a(S'Michalis Faloutsos'
p3415
I1
tp3416
a(S'Chris Wells'
p3417
I1
tp3418
a(S'Whai-En Chen'
p3419
I1
tp3420
a(S'Mayur Datar'
p3421
I1
tp3422
a(S'Karl Aberer'
p3423
I1
tp3424
a(S'Murali Mani'
p3425
I1
tp3426
a(S'Guohong Cao'
p3427
I1
tp3428
a(S'Venkata Duvvuri'
p3429
I1
tp3430
a(S'Renu Tewari'
p3431
I1
tp3432
a(S'Stardas Pakalnis'
p3433
I1
tp3434
a(S'Arvind Arasu'
p3435
I1
tp3436
a(S'Amiya Bhattacharya'
p3437
I1
tp3438
a(S'Yuguang Fang'
p3439
I1
tp3440
a(S'Itaru Nishizawa'
p3441
I1
tp3442
a(S'Yueh-Hsin Sung'
p3443
I1
tp3444
a(S'Maria Luisa Sapino'
p3445
I1
tp3446
a(S'Claude Castelluccia'
p3447
I1
tp3448
a(S'Prashant J. Shenoy'
p3449
I1
tp3450
a(S'Y. C. Tay'
p3451
I1
tp3452
a(S'Jos\xc3\xa9 Costa-Requena'
p3453
I1
tp3454
a(S'Dilys Thomas'
p3455
I1
tp3456
a(S'Tao Gu'
p3457
I1
tp3458
a(S'Gordon L. St\xc3\xbcber'
p3459
I1
tp3460
a(S'Christian S. Jensen'
p3461
I1
tp3462
a(S'Richard M. Karp'
p3463
I1
tp3464
a(S'Hakim Weatherspoon'
p3465
I1
tp3466
a(S'Manfred Hauswirth'
p3467
I1
tp3468
a(S'Sean C. Rhea'
p3469
I1
tp3470
a(S'Ian F. Akyildiz'
p3471
I1
tp3472
a(S'George Samaras'
p3473
I1
tp3474
a(S'Sylvia Ratnasamy'
p3475
I1
tp3476
a(S'Alminas Civilis'
p3477
I1
tp3478
a(S'Keith Ito'
p3479
I1
tp3480
a(S'Christopher Metz'
p3481
I1
tp3482
a(S'Norman H. Cohen'
p3483
I1
tp3484
a(S'Vassilios Tsaoussidis'
p3485
I1
tp3486
a(S'Scott Shenker'
p3487
I1
tp3488
a(S'Shivnath Babu'
p3489
I1
tp3490
a(S'Zhi-Hua Zhou'
p3491
I1
tp3492
a(S'Sushil Jajodia'
p3493
I1
tp3494
a(S'Sneha Kumar Kasera'
p3495
I1
tp3496
a(S'Patrick R. Eaton'
p3497
I1
tp3498
a(S'Adrian Lahanas'
p3499
I1
tp3500
a(S'Elke A. Rundensteiner'
p3501
I1
tp3502
a(S'Rohit Varma'
p3503
I1
tp3504
a(S'Ming Li'
p3505
I1
tp3506
a(S'Daqing Zhang'
p3507
I1
tp3508
a(S'Ben Y. Zhao'
p3509
I1
tp3510
a(S'Dennis Geels'
p3511
I1
tp3512
a(S'Evaggelia Pitoura'
p3513
I1
tp3514
a(S'Brian Babcock'
p3515
I1
tp3516
a(S'Mark Handley'
p3517
I1
tp3518
a(S'Ramachandran Ramjee'
p3519
I1
tp3520
a(S'John Kubiatowicz'
p3521
I1
tp3522
a(S'Kee Chaing Chua'
p3523
I1
tp3524
a(S'Magdalena Punceva'
p3525
I1
tp3526
a(S'Apratim Purakayastha'
p3527
I1
tp3528
a(S'Erran L. Li'
p3529
I1
tp3530
a(S'David Kotz'
p3531
I1
tp3532
a(S'Luke Wong'
p3533
I1
tp3534
a(S'Sajal K. Das'
p3535
I1
tp3536
a(S'V. S. Subrahmanian'
p3537
I1
tp3538
a(S'Rajeev Motwani'
p3539
I1
tp3540
a(S'Wenye Wang'
p3541
I1
tp3542
a(S'Danny L. Yeh'
p3543
I1
tp3544
a(S'Pierangela Samarati'
p3545
I1
tp3546
a(S'Srikanth V. Krishnamurthy'
p3547
I1
tp3548
a(S'Nicklas Beijar'
p3549
I1
tp3550
a(S'Hong Su'
p3551
I1
tp3552
asS'Ibrahim Korpeoglu'
p3553
(lp3554
(S'Y\xc3\xbccel Saygin'
p3555
I1
tp3556
a(S'Yannis Manolopoulos'
p3557
I1
tp3558
a(S'Nevzat Hurkan Balkir'
p3559
I1
tp3560
a(S'Amiya Bhattacharya'
p3561
I1
tp3562
a(S'Sajal K. Das'
p3563
I1
tp3564
a(S'Gultekin \xc3\x96zsoyoglu'
p3565
I1
tp3566
a(S'Z. Meral \xc3\x96zsoyoglu'
p3567
I1
tp3568
a(S'Chenxi Zhu'
p3569
I1
tp3570
a(S'Graham Cormode'
p3571
I1
tp3572
a(S'Alexandros Nanopoulos'
p3573
I1
tp3574
a(S'M. Scott Corson'
p3575
I1
tp3576
a(S'Dimitrios Katsaros'
p3577
I1
tp3578
asS'Raghupathy Sivakumar'
p3579
(lp3580
(S'Anish Arora'
p3581
I1
tp3582
a(S'William A. Arbaugh'
p3583
I1
tp3584
a(S'Nick L. Petroni Jr.'
p3585
I1
tp3586
a(S'Deepak Ganesan'
p3587
I1
tp3588
a(S'Shugong Xu'
p3589
I1
tp3590
a(S'Mike Fisk'
p3591
I1
tp3592
a(S'Tarek N. Saadawi'
p3593
I1
tp3594
a(S'Emre Ertin'
p3595
I1
tp3596
a(S'William Leal'
p3597
I1
tp3598
a(S'Deborah Estrin'
p3599
I1
tp3600
a(S'Rajiv Ramnath'
p3601
I1
tp3602
a(S'Arunesh Mishra'
p3603
I1
tp3604
a(S'Mikhail Nesterenko'
p3605
I1
tp3606
a(S'Timothy Fraser'
p3607
I1
tp3608
a(S'Joshua Neil'
p3609
I1
tp3610
a(S'Christos Papadopoulos'
p3611
I1
tp3612
a(S'Ramesh Govindan'
p3613
I1
tp3614
a(S'Scott Shenker'
p3615
I1
tp3616
a(S'Gina Fisk'
p3617
I1
tp3618
asS'Martin J. Wainwright'
p3619
(lp3620
(S'Helen Pinto'
p3621
I1
tp3622
a(S'Xindong Wu'
p3623
I1
tp3624
a(S'Carmem S. Hara'
p3625
I1
tp3626
a(S'Gianluigi Greco'
p3627
I1
tp3628
a(S'Jef Wijsen'
p3629
I1
tp3630
a(S'Qiming Chen'
p3631
I1
tp3632
a(S'Jixue Liu'
p3633
I1
tp3634
a(S'Ester Zumpano'
p3635
I1
tp3636
a(S'Jianyong Wang'
p3637
I1
tp3638
a(S'Shichao Zhang'
p3639
I1
tp3640
a(S'Wei Wang'
p3641
I1
tp3642
a(S'Chengfei Liu'
p3643
I1
tp3644
a(S'Meichun Hsu'
p3645
I1
tp3646
a(S'Joong Hyuk Chang'
p3647
I1
tp3648
a(S'Lucian Popa'
p3649
I1
tp3650
a(S'Behzad Mortazavi-Asl'
p3651
I1
tp3652
a(S'Sergio Greco'
p3653
I1
tp3654
a(S'Jian Pei'
p3655
I1
tp3656
a(S'Leonid Libkin'
p3657
I1
tp3658
a(S'Ronald Fagin'
p3659
I1
tp3660
a(S'Susan B. Davidson'
p3661
I1
tp3662
a(S'Marcelo Arenas'
p3663
I1
tp3664
a(S'Wang Chiew Tan'
p3665
I1
tp3666
a(S'Millist W. Vincent'
p3667
I1
tp3668
a(S'Andreas Westfeld'
p3669
I1
tp3670
a(S'Hye-Chung Kum'
p3671
I1
tp3672
a(S'Umeshwar Dayal'
p3673
I1
tp3674
a(S'Phokion G. Kolaitis'
p3675
I1
tp3676
a(S'Peter Buneman'
p3677
I1
tp3678
a(S'Jiawei Han'
p3679
I1
tp3680
a(S'Wenfei Fan'
p3681
I1
tp3682
asS'Hossam S. Hassanein'
p3683
(lp3684
(S'Paolo Bellavista'
p3685
I2
tp3686
a(S'Jacobus E. van der Merwe'
p3687
I2
tp3688
a(S'Cesare Stefanelli'
p3689
I2
tp3690
a(S'David H. Shur'
p3691
I2
tp3692
a(S'Charles D. Cranor'
p3693
I2
tp3694
a(S'Charles R. Kalmanek'
p3695
I2
tp3696
a(S'Sandeep Sibal'
p3697
I2
tp3698
a(S'Matthew Green'
p3699
I2
tp3700
a(S'Antonio Corradi'
p3701
I2
tp3702
a(S'Cormac J. Sreenan'
p3703
I2
tp3704
a(S'Vineet Mittal'
p3705
I1
tp3706
a(S'Timothy W. Finin'
p3707
I1
tp3708
a(S'Elizabeth M. Belding-Royer'
p3709
I1
tp3710
a(S'Cheng-Zhong Xu'
p3711
I1
tp3712
a(S'Sung-Ju Lee'
p3713
I1
tp3714
a(S'George Pallis'
p3715
I1
tp3716
a(S'Raffaele Bruno'
p3717
I1
tp3718
a(S'Mikhail Nesterenko'
p3719
I1
tp3720
a(S'Murat Demirbas'
p3721
I1
tp3722
a(S'Michael Fry'
p3723
I1
tp3724
a(S'Umamaheswaran Arumugam'
p3725
I1
tp3726
a(S'Vinod Kulathumani'
p3727
I1
tp3728
a(S'Paul Grace'
p3729
I1
tp3730
a(S'Hui Cao'
p3731
I1
tp3732
a(S'Hongwei Zhang'
p3733
I1
tp3734
a(S'Glen MacLarty'
p3735
I1
tp3736
a(S'Vinayak Naik'
p3737
I1
tp3738
a(S'Marco Conti'
p3739
I1
tp3740
a(S'Young-ri Choi'
p3741
I1
tp3742
a(S'Prabal Dutta'
p3743
I1
tp3744
a(S'Sergey Melnik'
p3745
I1
tp3746
a(S'Shweta Bhandare'
p3747
I1
tp3748
a(S'Sandip Bapat'
p3749
I1
tp3750
a(S'Xiaobo Zhou'
p3751
I1
tp3752
a(S'Cecilia Mascolo'
p3753
I1
tp3754
a(S'Anupam Joshi'
p3755
I1
tp3756
a(S'Harry Chen'
p3757
I1
tp3758
a(S'Prasenjit Mitra'
p3759
I1
tp3760
a(S'Sheetalkumar Doshi'
p3761
I1
tp3762
a(S'Gordon S. Blair'
p3763
I1
tp3764
a(S'Atanu Ghosh'
p3765
I1
tp3766
a(S'Mark Miyashita'
p3767
I1
tp3768
a(S'Wolfgang Emmerich'
p3769
I1
tp3770
a(S'Anish Arora'
p3771
I1
tp3772
a(S'Stefan Decker'
p3773
I1
tp3774
a(S'Licia Capra'
p3775
I1
tp3776
a(S'Mohamed G. Gouda'
p3777
I1
tp3778
a(S'Jianbin Wei'
p3779
I1
tp3780
a(S'Ted Herman'
p3781
I1
tp3782
a(S'Sandeep S. Kulkarni'
p3783
I1
tp3784
a(S'Timothy X. Brown'
p3785
I1
tp3786
a(S'Golden G. Richard III'
p3787
I1
tp3788
a(S'Athena Vakali'
p3789
I1
tp3790
a(S'Enrico Gregori'
p3791
I1
tp3792
a(S'Rebecca Montanari'
p3793
I1
tp3794
a(S'Adnan Vora'
p3795
I1
tp3796
a(S'Charles E. Perkins'
p3797
I1
tp3798
asS'Masashi Sugiyama'
p3799
(lp3800
(S'Michael C. Fu'
p3801
I1
tp3802
asS'James Won-Ki Hong'
p3803
(lp3804
(S'Pradeep Ray'
p3805
I4
tp3806
a(S'P. Zuluaga'
p3807
I4
tp3808
a(S'Guangrong Chen'
p3809
I4
tp3810
a(S'Vijay Varadharajan'
p3811
I4
tp3812
a(S'Young-Chul Shim'
p3813
I3
tp3814
a(S'Il-Soo Ahn'
p3815
I3
tp3816
a(S'Kenichi Mase'
p3817
I3
tp3818
a(S'Nobuo Fujii'
p3819
I3
tp3820
a(S'James W. Hong'
p3821
I2
tp3822
a(S'Mi-Young Choi'
p3823
I2
tp3824
a(S'Kian-Lee Tan'
p3825
I2
tp3826
a(S'Jan Gerke'
p3827
I1
tp3828
a(S'Alessandro Maglianella'
p3829
I1
tp3830
a(S'Peter Reichl'
p3831
I1
tp3832
a(S'Carolyn McGregor'
p3833
I1
tp3834
a(S'Whai-En Chen'
p3835
I1
tp3836
a(S'Agnes Lim'
p3837
I1
tp3838
a(S'Byunggu Yu'
p3839
I1
tp3840
a(S'Raimo Kantola'
p3841
I1
tp3842
a(S'Prathima Agrawal'
p3843
I1
tp3844
a(S'Stanislav Milanovic'
p3845
I1
tp3846
a(S'Michael Stacey'
p3847
I1
tp3848
a(S'Christopher Metz'
p3849
I1
tp3850
a(S'Beng Chin Ooi'
p3851
I1
tp3852
a(S'Elias Proc\xc3\xb3pio Duarte Jr.'
p3853
I1
tp3854
a(S'Ratko Orlandic'
p3855
I1
tp3856
a(S'Cheng Hian Goh'
p3857
I1
tp3858
a(S'Christine E. Jones'
p3859
I1
tp3860
a(S'Joan Serrat'
p3861
I1
tp3862
a(S'Jos\xc3\xa9 Costa-Requena'
p3863
I1
tp3864
a(S'Shen-Tat Goh'
p3865
I1
tp3866
a(S'Yi-Bing Lin'
p3867
I1
tp3868
a(S'Placi Flury'
p3869
I1
tp3870
a(S'J\xc3\xbcrgen Sch\xc3\xb6nw\xc3\xa4lder'
p3871
I1
tp3872
a(S'Krishna M. Sivalingam'
p3873
I1
tp3874
a(S'Edmundo Roberto Mauro Madeira'
p3875
I1
tp3876
a(S'Burkhard Stiller'
p3877
I1
tp3878
a(S'Jyh-Cheng Chen'
p3879
I1
tp3880
a(S'Nicklas Beijar'
p3881
I1
tp3882
a(S'Yueh-Hsin Sung'
p3883
I1
tp3884
asS'Bu-Sung Lee'
p3885
(lp3886
(S'Christian Hoymann'
p3887
I1
tp3888
a(S'Nancy Jesuale'
p3889
I1
tp3890
a(S'Jingling Xue'
p3891
I1
tp3892
a(S'Hari Balakrishnan'
p3893
I1
tp3894
a(S'Peiyi Tang'
p3895
I1
tp3896
a(S'Xudong Wang'
p3897
I1
tp3898
a(S'Ian F. Akyildiz'
p3899
I1
tp3900
a(S'Weilin Wang'
p3901
I1
tp3902
a(S'Ronny Krashinsky'
p3903
I1
tp3904
asS'Feng Wang'
p3905
(lp3906
(S'Gruia Calinescu'
p3907
I2
tp3908
a(S'Fernando A. Kuipers'
p3909
I1
tp3910
a(S'John A. Stine'
p3911
I1
tp3912
a(S'Jan M. Rabaey'
p3913
I1
tp3914
a(S'Piet Van Mieghem'
p3915
I1
tp3916
a(S'Jingling Xue'
p3917
I1
tp3918
a(S'Justin Zobel'
p3919
I1
tp3920
a(S'Peiyi Tang'
p3921
I1
tp3922
a(S'George Pavlou'
p3923
I1
tp3924
a(S'N. Tchervenski'
p3925
I1
tp3926
a(S'Gustavo de Veciana'
p3927
I1
tp3928
a(S'Ning Wang'
p3929
I1
tp3930
a(S'Alexander Zelikovsky'
p3931
I1
tp3932
a(S'Ophir Frieder'
p3933
I1
tp3934
a(S'Sushil K. Prasad'
p3935
I1
tp3936
a(S'Hans De Neve'
p3937
I1
tp3938
a(S'Ion I. Mandoiu'
p3939
I1
tp3940
a(S'Timothy C. Hoad'
p3941
I1
tp3942
a(S'Jana van Greunen'
p3943
I1
tp3944
a(S'Xiang-Yang Li'
p3945
I1
tp3946
a(S'Ernst Althaus'
p3947
I1
tp3948
asS'Ram D. Gopal'
p3949
(lp3950
(S'Frederick J. Riggins'
p3951
I3
tp3952
a(S'Michael Vitale'
p3953
I3
tp3954
a(S'Noam Tractinsky'
p3955
I3
tp3956
a(S'Sirkka L. Jarvenpaa'
p3957
I3
tp3958
a(S'Sangjae Lee'
p3959
I2
tp3960
a(S'Bumsuk Jung'
p3961
I2
tp3962
a(S'Han Zhang'
p3963
I2
tp3964
a(S'Robert J. Kauffman'
p3965
I2
tp3966
a(S'Ingoo Han'
p3967
I2
tp3968
a(S'Sulin Ba'
p3969
I2
tp3970
a(S'Chi-Sheng Shih'
p3971
I1
tp3972
a(S'Anol Bhattacherjee'
p3973
I1
tp3974
a(S'Weiyin Hong'
p3975
I1
tp3976
a(S'J\xc3\xb6rg Sander'
p3977
I1
tp3978
a(S'Yaw-Huei Chen'
p3979
I1
tp3980
a(S'Bernhard Braunm\xc3\xbcller'
p3981
I1
tp3982
a(S'Lorin M. Hitt'
p3983
I1
tp3984
a(S'Karl Reiner Lang'
p3985
I1
tp3986
a(S'Vidyanand Choudhary'
p3987
I1
tp3988
a(S'John P. Curtin'
p3989
I1
tp3990
a(S'Hemant K. Bhargava'
p3991
I1
tp3992
a(S'Guodong (Gordon) Gao'
p3993
I1
tp3994
a(S'Hans-Peter Kriegel'
p3995
I1
tp3996
a(S'Kar Yan Tam'
p3997
I1
tp3998
a(S'James Y. L. Thong'
p3999
I1
tp4000
a(S'Izak Benbasat'
p4001
I1
tp4002
a(S'Zhenhui Jiang'
p4003
I1
tp4004
a(S'Chiang Lee'
p4005
I1
tp4006
a(S'Eric K. Clemons'
p4007
I1
tp4008
a(S'Yoris A. Au'
p4009
I1
tp4010
a(S'Martin Ester'
p4011
I1
tp4012
a(S'Salvatore Ruggieri'
p4013
I1
tp4014
a(S'Roumen Vragov'
p4015
I1
tp4016
asS'Vijay S. Mookerjee'
p4017
(lp4018
(S'Vassilios S. Verykios'
p4019
I6
tp4020
a(S'Ahmed K. Elmagarmid'
p4021
I6
tp4022
a(S'Elena Dasseni'
p4023
I6
tp4024
a(S'Elisa Bertino'
p4025
I6
tp4026
a(S'Y\xc3\xbccel Saygin'
p4027
I4
tp4028
a(S'Rathindra Sarathy'
p4029
I3
tp4030
a(S'Krishnamurty Muralidhar'
p4031
I3
tp4032
a(S'Miki Nakagawa'
p4033
I2
tp4034
a(S'Debabrata Dey'
p4035
I2
tp4036
a(S'Wil M. P. van der Aalst'
p4037
I2
tp4038
a(S'Srinivasan Raghunathan'
p4039
I2
tp4040
a(S'Lili Sun'
p4041
I2
tp4042
a(S'Birendra Mishra'
p4043
I2
tp4044
a(S'Robert J. Kauffman'
p4045
I2
tp4046
a(S'Kunsoo Han'
p4047
I2
tp4048
a(S'Rajendra P. Srivastava'
p4049
I2
tp4050
a(S'Theodore J. Mock'
p4051
I2
tp4052
a(S'John A. Campbell'
p4053
I2
tp4054
a(S'Mathias Weske'
p4055
I2
tp4056
a(S'Barrie R. Nault'
p4057
I2
tp4058
a(S'Bamshad Mobasher'
p4059
I2
tp4060
a(S'Huseyin Cavusoglu'
p4061
I2
tp4062
a(S'John Yen'
p4063
I1
tp4064
a(S'Amit P. Sheth'
p4065
I1
tp4066
a(S'Veda C. Storey'
p4067
I1
tp4068
a(S'Dolf Gr\xc3\xbcnbauer'
p4069
I1
tp4070
a(S'Schahram Dustdar'
p4071
I1
tp4072
a(S'Jennifer Widom'
p4073
I1
tp4074
a(S'H. M. W. (Eric) Verbeek'
p4075
I1
tp4076
a(S'Greg Linden'
p4077
I1
tp4078
a(S'Bettina Berendt'
p4079
I1
tp4080
a(S'Jos\xc3\xa9 Luiz Fiadeiro'
p4081
I1
tp4082
a(S'Vidyanand Choudhary'
p4083
I1
tp4084
a(S'Jeremy York'
p4085
I1
tp4086
a(S'Honghua Dai'
p4087
I1
tp4088
a(S'Wei T. Yue'
p4089
I1
tp4090
a(S'Hemant K. Bhargava'
p4091
I1
tp4092
a(S'Shazia W. Sadiq'
p4093
I1
tp4094
a(S'Dongmin Kim'
p4095
I1
tp4096
a(S'Dwi H. Widyantoro'
p4097
I1
tp4098
a(S'Ekkart Kindler'
p4099
I1
tp4100
a(S'Robert C. Goldstein'
p4101
I1
tp4102
a(S'Brent Smith'
p4103
I1
tp4104
a(S'Atish P. Sinha'
p4105
I1
tp4106
a(S'Esther Gal-Or'
p4107
I1
tp4108
a(S'Izak Benbasat'
p4109
I1
tp4110
a(S'Maria E. Orlowska'
p4111
I1
tp4112
a(S'Eric K. Clemons'
p4113
I1
tp4114
a(S'Lorin M. Hitt'
p4115
I1
tp4116
a(S'Metin \xc3\x87akanyildirim'
p4117
I1
tp4118
a(S'Karl Reiner Lang'
p4119
I1
tp4120
a(S'Anindya Ghose'
p4121
I1
tp4122
a(S'Tao Luo'
p4123
I1
tp4124
a(S'Myra Spiliopoulou'
p4125
I1
tp4126
a(S'Jerrold H. May'
p4127
I1
tp4128
a(S'Roumen Vragov'
p4129
I1
tp4130
a(S'Harald Ullrich'
p4131
I1
tp4132
a(S'Frederick J. Riggins'
p4133
I1
tp4134
a(S'Elena Baralis'
p4135
I1
tp4136
asS'Bin Liu'
p4137
(lp4138
(S'Andreas Westfeld'
p4139
I5
tp4140
a(S'Jianliang Xu'
p4141
I5
tp4142
a(S'Dimitris Papadias'
p4143
I4
tp4144
a(S'Xueyan Tang'
p4145
I4
tp4146
a(S'Guohong Cao'
p4147
I3
tp4148
a(S'Anisoara Nica'
p4149
I3
tp4150
a(S'Thomas Seidl'
p4151
I3
tp4152
a(S'Stefan Berchtold'
p4153
I3
tp4154
a(S'Amy J. Lee'
p4155
I3
tp4156
a(S'Hans-Peter Kriegel'
p4157
I3
tp4158
a(S'Daniel A. Keim'
p4159
I3
tp4160
a(S'Arbee L. P. Chen'
p4161
I2
tp4162
a(S'Yufei Tao'
p4163
I2
tp4164
a(S'Nikos Mamoulis'
p4165
I2
tp4166
a(S'Qinglong Hu'
p4167
I2
tp4168
a(S'Guanling Lee'
p4169
I2
tp4170
a(S'Zhe Wang'
p4171
I2
tp4172
a(S'Xiaolin Wu'
p4173
I2
tp4174
a(S'Sorina Dumitrescu'
p4175
I2
tp4176
a(S'Ming-Syan Chen'
p4177
I2
tp4178
a(S'Michael Friendly'
p4179
I2
tp4180
a(S'Andreas Koeller'
p4181
I2
tp4182
a(S'Wang Chiew Tan'
p4183
I2
tp4184
a(S'Michael J. Franklin'
p4185
I2
tp4186
a(S'Andrew Tomkins'
p4187
I1
tp4188
a(S'Simone Santini'
p4189
I1
tp4190
a(S'Hao Zhang'
p4191
I1
tp4192
a(S'Prabhakar Raghavan'
p4193
I1
tp4194
a(S'Jiun-Long Huang'
p4195
I1
tp4196
a(S'Joel H. Saltz'
p4197
I1
tp4198
a(S'Yana Kadiyska'
p4199
I1
tp4200
a(S'Pedro M. Valero-Mora'
p4201
I1
tp4202
a(S'Fran\xc3\xa7oise Sailhan'
p4203
I1
tp4204
a(S'Kyriakos Mouratidis'
p4205
I1
tp4206
a(S'Murali Mani'
p4207
I1
tp4208
a(S'Chris Clifton'
p4209
I1
tp4210
a(S'Mohammed Javeed Zaki'
p4211
I1
tp4212
a(S'Dan Suciu'
p4213
I1
tp4214
a(S'Deepinder P. Sidhu'
p4215
I1
tp4216
a(S'Kun-Lung Wu'
p4217
I1
tp4218
a(S'Laks V. S. Lakshmanan'
p4219
I1
tp4220
a(S'Philip S. Yu'
p4221
I1
tp4222
a(S'Farzin Maghoul'
p4223
I1
tp4224
a(S'Carmem S. Hara'
p4225
I1
tp4226
a(S'Li Yin'
p4227
I1
tp4228
a(S'Raymie Stata'
p4229
I1
tp4230
a(S'Alexander L. Wijesinha'
p4231
I1
tp4232
a(S'Subbu N. Subramanian'
p4233
I1
tp4234
a(S'Spiridon Bakiras'
p4235
I1
tp4236
a(S'Silvana Castano'
p4237
I1
tp4238
a(S'Stefano Paraboschi'
p4239
I1
tp4240
a(S'Shou-Chih Lo'
p4241
I1
tp4242
a(S'Fang Liu'
p4243
I1
tp4244
a(S'Chih-Hao Hsu'
p4245
I1
tp4246
a(S'Clement T. Yu'
p4247
I1
tp4248
a(S'Fereidoon Sadri'
p4249
I1
tp4250
a(S'Mehmet Altinel'
p4251
I1
tp4252
a(S'Christos Faloutsos'
p4253
I1
tp4254
a(S'Wenfei Fan'
p4255
I1
tp4256
a(S'Paul Castro'
p4257
I1
tp4258
a(S'Sebastian van Delden'
p4259
I1
tp4260
a(S'Forrest W. Young'
p4261
I1
tp4262
a(S'Weiyi Meng'
p4263
I1
tp4264
a(S'Vijay Kumar'
p4265
I1
tp4266
a(S'Fernando Gomez'
p4267
I1
tp4268
a(S'Janet L. Wiener'
p4269
I1
tp4270
a(S'Ernest Kwan'
p4271
I1
tp4272
a(S'Takahiro Hara'
p4273
I1
tp4274
a(S'George Cybenko'
p4275
I1
tp4276
a(S'Sabrina De Capitani di Vimercati'
p4277
I1
tp4278
a(S'K. Y. Michael Wong'
p4279
I1
tp4280
a(S'Amarnath Gupta'
p4281
I1
tp4282
a(S'Si Wu'
p4283
I1
tp4284
a(S'Susan B. Davidson'
p4285
I1
tp4286
a(S'Wen-Syan Li'
p4287
I1
tp4288
a(S'Brian E. Brewington'
p4289
I1
tp4290
a(S'Meng-Shin Yeh'
p4291
I1
tp4292
a(S'Matthew Denny'
p4293
I1
tp4294
a(S'Srikanta P. Kumar'
p4295
I1
tp4296
a(S'Mary F. Fernandez'
p4297
I1
tp4298
a(S'Elena Ferrari'
p4299
I1
tp4300
a(S'Apratim Purakayastha'
p4301
I1
tp4302
a(S'Qun Ren'
p4303
I1
tp4304
a(S'Sridhar Rajagopalan'
p4305
I1
tp4306
a(S'Margaret H. Dunham'
p4307
I1
tp4308
a(S'Andrei Z. Broder'
p4309
I1
tp4310
a(S'Peter M. Fischer'
p4311
I1
tp4312
a(S'Bo Li'
p4313
I1
tp4314
a(S'Val\xc3\xa9rie Issarny'
p4315
I1
tp4316
a(S'Elisa Bertino'
p4317
I1
tp4318
a(S'Peter Buneman'
p4319
I1
tp4320
a(S'Ravi Kumar'
p4321
I1
tp4322
a(S'Bongki Moon'
p4323
I1
tp4324
a(S'Atsuyuki Morishima'
p4325
I1
tp4326
a(S'Pierangela Samarati'
p4327
I1
tp4328
a(S'Ernesto Damiani'
p4329
I1
tp4330
a(S'Yanlei Diao'
p4331
I1
tp4332
a(S'Hong Su'
p4333
I1
tp4334
asS'Gerhard Tr\xc3\xb6ster'
p4335
(lp4336
(S'Enrico Gregori'
p4337
I6
tp4338
a(S'Marco Conti'
p4339
I6
tp4340
a(S'Richard M. Karp'
p4341
I4
tp4342
a(S'Sylvia Ratnasamy'
p4343
I4
tp4344
a(S'Scott Shenker'
p4345
I4
tp4346
a(S'Mark Handley'
p4347
I4
tp4348
a(S'Yu-Chee Tseng'
p4349
I4
tp4350
a(S'Andrea Passarella'
p4351
I4
tp4352
a(S'Yuh-Shyan Chen'
p4353
I3
tp4354
a(S'Raffaele Bruno'
p4355
I3
tp4356
a(S'Hari Balakrishnan'
p4357
I3
tp4358
a(S'Prasant Mohapatra'
p4359
I3
tp4360
a(S'Chao Gui'
p4361
I3
tp4362
a(S'Sze-Yao Ni'
p4363
I3
tp4364
a(S'Jang-Ping Sheu'
p4365
I3
tp4366
a(S'Ali H. Sayed'
p4367
I2
tp4368
a(S'Henrik Lundgren'
p4369
I2
tp4370
a(S'Jie Zhang'
p4371
I2
tp4372
a(S'Matthai Philipose'
p4373
I2
tp4374
a(S'Kenneth P. Fishkin'
p4375
I2
tp4376
a(S'Giuseppe Anastasi'
p4377
I2
tp4378
a(S'Franco Zambonelli'
p4379
I2
tp4380
a(S'Nathan Eagle'
p4381
I2
tp4382
a(S'Trish Keaton'
p4383
I2
tp4384
a(S'Ian T. Foster'
p4385
I2
tp4386
a(S'Jyh-Cheng Chen'
p4387
I2
tp4388
a(S'Erdal Cayirci'
p4389
I2
tp4390
a(S'Franca Delmastro'
p4391
I2
tp4392
a(S'Paolo Corsini'
p4393
I2
tp4394
a(S'Paolo Bellavista'
p4395
I2
tp4396
a(S'Geoff A. W. West'
p4397
I2
tp4398
a(S'Antonio Corradi'
p4399
I2
tp4400
a(S'Henry A. Kautz'
p4401
I2
tp4402
a(S'P. Krishnan'
p4403
I2
tp4404
a(S'Weilian Su'
p4405
I2
tp4406
a(S'Max M\xc3\xbchlh\xc3\xa4user'
p4407
I2
tp4408
a(S'Krishna M. Sivalingam'
p4409
I2
tp4410
a(S'Mani B. Srivastava'
p4411
I2
tp4412
a(S'Matei Ripeanu'
p4413
I2
tp4414
a(S'Panu Korpip\xc3\xa4\xc3\xa4'
p4415
I2
tp4416
a(S'Jason Flinn'
p4417
I2
tp4418
a(S'Jussi Kangasharju'
p4419
I2
tp4420
a(S'Luca Foschini'
p4421
I2
tp4422
a(S'Adriana Iamnitchi'
p4423
I2
tp4424
a(S'Tapio Sepp\xc3\xa4nen'
p4425
I2
tp4426
a(S'Christine E. Jones'
p4427
I2
tp4428
a(S'Anders Lindgren'
p4429
I2
tp4430
a(S'Kun Yang'
p4431
I2
tp4432
a(S'Alex Pentland'
p4433
I2
tp4434
a(S'Ronny Krashinsky'
p4435
I2
tp4436
a(S'Erwin Aitenbichler'
p4437
I2
tp4438
a(S'Fabio Panzieri'
p4439
I2
tp4440
a(S'Christian F. Tschudin'
p4441
I2
tp4442
a(S'Johannes Peltola'
p4443
I2
tp4444
a(S'Shumao Ou'
p4445
I2
tp4446
a(S'Olov Schel\xc3\xa9n'
p4447
I2
tp4448
a(S'Dirk H\xc3\xa4hnel'
p4449
I2
tp4450
a(S'Ian F. Akyildiz'
p4451
I2
tp4452
a(S'Prathima Agrawal'
p4453
I2
tp4454
a(S'Svetha Venkatesh'
p4455
I2
tp4456
a(S'Manish Anand'
p4457
I2
tp4458
a(S'Mike Perkowitz'
p4459
I2
tp4460
a(S'Roy Shea'
p4461
I2
tp4462
a(S'Paolo Masci'
p4463
I2
tp4464
a(S'Miika Koskinen'
p4465
I2
tp4466
a(S'Erik Nordstr\xc3\xb6m'
p4467
I2
tp4468
a(S'Athanassios Boulis'
p4469
I2
tp4470
a(S'Yogesh Sankarasubramaniam'
p4471
I2
tp4472
a(S'David Kotz'
p4473
I2
tp4474
a(S'Marco Avvenuti'
p4475
I2
tp4476
a(S'Avri Doria'
p4477
I2
tp4478
a(S'Alessio Vecchio'
p4479
I2
tp4480
a(S'Satu-Marja M\xc3\xa4kel\xc3\xa4'
p4481
I2
tp4482
a(S'Dieter Fox'
p4483
I2
tp4484
a(S'Chih-Chieh Han'
p4485
I2
tp4486
a(S'Sylvia M. Dominguez'
p4487
I2
tp4488
a(S'Robin Kravets'
p4489
I2
tp4490
a(S'Edmund B. Nightingale'
p4491
I2
tp4492
a(S'Donald J. Patterson'
p4493
I2
tp4494
a(S'Aleksey Tentler'
p4495
I1
tp4496
a(S'Andrew Tomkins'
p4497
I1
tp4498
a(S'Stefan Funke'
p4499
I1
tp4500
a(S'Sebastian L\xc3\xbchr'
p4501
I1
tp4502
a(S'William J. Kaiser'
p4503
I1
tp4504
a(S'Mihoko Kunita'
p4505
I1
tp4506
a(S'Leandros Tassiulas'
p4507
I1
tp4508
a(S'Prabhakar Raghavan'
p4509
I1
tp4510
a(S'Masashi Toda'
p4511
I1
tp4512
a(S'Giacomino Veltri'
p4513
I1
tp4514
a(S'Luca Chittaro'
p4515
I1
tp4516
a(S'Jan M. Rabaey'
p4517
I1
tp4518
a(S'Anthony Almudevar'
p4519
I1
tp4520
a(S'Toru Shinmura'
p4521
I1
tp4522
a(S'Ivan Stojmenovic'
p4523
I1
tp4524
a(S'Simon Moncrieff'
p4525
I1
tp4526
a(S'Zvi Lotker'
p4527
I1
tp4528
a(S'Daniel A. Menasc\xc3\xa9'
p4529
I1
tp4530
a(S'Nelson S. Rosa'
p4531
I1
tp4532
a(S'Fabian Kuhn'
p4533
I1
tp4534
a(S'Kay R\xc3\xb6mer'
p4535
I1
tp4536
a(S'Jana van Greunen'
p4537
I1
tp4538
a(S'Tiina Heikkinen'
p4539
I1
tp4540
a(S'Jennifer Ann Rode'
p4541
I1
tp4542
a(S'Amiya Bhattacharya'
p4543
I1
tp4544
a(S'Ioanna Roussaki'
p4545
I1
tp4546
a(S'Carsten Pils'
p4547
I1
tp4548
a(S'Robert Morris'
p4549
I1
tp4550
a(S'Prosenjit Bose'
p4551
I1
tp4552
a(S'Paul Dourish'
p4553
I1
tp4554
a(S'Seapahn Megerian'
p4555
I1
tp4556
a(S'Santosh K. Shrivastava'
p4557
I1
tp4558
a(S'Abhishek P. Patil'
p4559
I1
tp4560
a(S'Markus C. Huebscher'
p4561
I1
tp4562
a(S'Albrecht Schmidt'
p4563
I1
tp4564
a(S'Alex A. T. Bui'
p4565
I1
tp4566
a(S'Michael Segal'
p4567
I1
tp4568
a(S'Raymie Stata'
p4569
I1
tp4570
a(S'Carlos Andr\xc3\xa9 Guimar\xc3\xa3es Ferraz'
p4571
I1
tp4572
a(S'Chi-Jiun Su'
p4573
I1
tp4574
a(S'Kobby Essien'
p4575
I1
tp4576
a(S'Yiu Cho Lau'
p4577
I1
tp4578
a(S'Sajal K. Das'
p4579
I1
tp4580
a(S'Alexander Kesselman'
p4581
I1
tp4582
a(S'Friedemann Mattern'
p4583
I1
tp4584
a(S'Farinaz Koushanfar'
p4585
I1
tp4586
a(S'Glauco Vasconcelos'
p4587
I1
tp4588
a(S'Maria Strimpakou'
p4589
I1
tp4590
a(S'Fabio Buttussi'
p4591
I1
tp4592
a(S'Diane J. Cook'
p4593
I1
tp4594
a(S'David B. Ingham'
p4595
I1
tp4596
a(S'Miodrag Potkonjak'
p4597
I1
tp4598
a(S'Tao Gu'
p4599
I1
tp4600
a(S'Lawrence B. Holder'
p4601
I1
tp4602
a(S'Hung Keng Pung'
p4603
I1
tp4604
a(S'Robert Tolksdorf'
p4605
I1
tp4606
a(S'Tristan Henderson'
p4607
I1
tp4608
a(S'Yunhao Liu'
p4609
I1
tp4610
a(S'Tarek N. Saadawi'
p4611
I1
tp4612
a(S'Chi-Fu Huang'
p4613
I1
tp4614
a(S'Raino Vastam\xc3\xa4ki'
p4615
I1
tp4616
a(S'Lionel M. Ni'
p4617
I1
tp4618
a(S'Janet L. Wiener'
p4619
I1
tp4620
a(S'Kunio Iwata'
p4621
I1
tp4622
a(S'Farzin Maghoul'
p4623
I1
tp4624
a(S'Junichi Akita'
p4625
I1
tp4626
a(S'Jonathan D. Binney'
p4627
I1
tp4628
a(S'Hans-Werner Gellersen'
p4629
I1
tp4630
a(S'Shigeru Sakurazawa'
p4631
I1
tp4632
a(S'Gavin Holland'
p4633
I1
tp4634
a(S'Toshio Sakata'
p4635
I1
tp4636
a(S'Cecilia Leinonen'
p4637
I1
tp4638
a(S'Daqing Zhang'
p4639
I1
tp4640
a(S'Theano Moussouri'
p4641
I1
tp4642
a(S'Jorge Urrutia'
p4643
I1
tp4644
a(S'Roy Want'
p4645
I1
tp4646
a(S'Michael Beigl'
p4647
I1
tp4648
a(S'Shugong Xu'
p4649
I1
tp4650
a(S'Lawrence K. Au'
p4651
I1
tp4652
a(S'Kyle Jamieson'
p4653
I1
tp4654
a(S'Maxim A. Batalin'
p4655
I1
tp4656
a(S'Julie A. McCann'
p4657
I1
tp4658
a(S'G. Michael Youngblood'
p4659
I1
tp4660
a(S'Nitin H. Vaidya'
p4661
I1
tp4662
a(S'Eduardo Souto'
p4663
I1
tp4664
a(S'George Roussos'
p4665
I1
tp4666
a(S'Ruth Kikin-Gil'
p4667
I1
tp4668
a(S'Pat Morin'
p4669
I1
tp4670
a(S'Sridhar Rajagopalan'
p4671
I1
tp4672
a(S'Benjie Chen'
p4673
I1
tp4674
a(S'Anind K. Dey'
p4675
I1
tp4676
a(S'Letizia Leonardi'
p4677
I1
tp4678
a(S'Mardoqueu Vieira'
p4679
I1
tp4680
a(S'Andrei Z. Broder'
p4681
I1
tp4682
a(S'Keisuke Yanagihara'
p4683
I1
tp4684
a(S'Germano Guimar\xc3\xa3es'
p4685
I1
tp4686
a(S'Giacomo Cabri'
p4687
I1
tp4688
a(S'Adrian Leibovici'
p4689
I1
tp4690
a(S'Oliver Kasten'
p4691
I1
tp4692
a(S'Winston H. Wu'
p4693
I1
tp4694
a(S'Irmeli Sinkkonen'
p4695
I1
tp4696
a(S'Ravi Kumar'
p4697
I1
tp4698
a(S'Kian-Lee Tan'
p4699
I1
tp4700
a(S'Gang Qu'
p4701
I1
tp4702
a(S'Jeffrey Xu Yu'
p4703
I1
tp4704
a(S'Marco Mamei'
p4705
I1
tp4706
a(S'Marie Pierre Gleizes'
p4707
I1
tp4708
a(S'Stewart Greenhill'
p4709
I1
tp4710
asS'Yang Xiang'
p4711
(lp4712
(S'J. J. Garcia-Luna-Aceves'
p4713
I2
tp4714
a(S'Asimakis Tzamaloukas'
p4715
I2
tp4716
a(S'Fernando A. Kuipers'
p4717
I1
tp4718
a(S'Piet Van Mieghem'
p4719
I1
tp4720
a(S'Laura Maruster'
p4721
I1
tp4722
a(S'Mohand-Said Hacid'
p4723
I1
tp4724
a(S'George Karypis'
p4725
I1
tp4726
a(S'Wil M. P. van der Aalst'
p4727
I1
tp4728
a(S'Young-Min Kang'
p4729
I1
tp4730
a(S'Benny Sudakov'
p4731
I1
tp4732
a(S'Cyril Decleir'
p4733
I1
tp4734
a(S'Vipin Kumar'
p4735
I1
tp4736
a(S'Michael Krivelevich'
p4737
I1
tp4738
a(S'Dimitrios Gunopulos'
p4739
I1
tp4740
a(S'Roni Khardon'
p4741
I1
tp4742
a(S'Sanjeev Saluja'
p4743
I1
tp4744
a(S'Luca Deri'
p4745
I1
tp4746
a(S'George Pavlou'
p4747
I1
tp4748
a(S'Ning Wang'
p4749
I1
tp4750
a(S'Ton Weijters'
p4751
I1
tp4752
a(S'Nikolaos Anerousis'
p4753
I1
tp4754
a(S'James W. Hong'
p4755
I1
tp4756
a(S'Heikki Mannila'
p4757
I1
tp4758
a(S'Venkata Duvvuri'
p4759
I1
tp4760
a(S'Van H. Vu'
p4761
I1
tp4762
a(S'Renu Tewari'
p4763
I1
tp4764
a(S'Hans De Neve'
p4765
I1
tp4766
a(S'Jacques Kouloumdjian'
p4767
I1
tp4768
a(S'Uri Zwick'
p4769
I1
tp4770
a(S'Hanoch Levy'
p4771
I1
tp4772
a(S'Eui-Hong Han'
p4773
I1
tp4774
a(S'Sung-Uk Park'
p4775
I1
tp4776
a(S'Jean-Philippe Martin-Flatin'
p4777
I1
tp4778
a(S'Hannu Toivonen'
p4779
I1
tp4780
a(S'Zohar Naor'
p4781
I1
tp4782
a(S'Ram Sewak Sharm'
p4783
I1
tp4784
a(S'Prashant J. Shenoy'
p4785
I1
tp4786
a(S'Jong-Tae Park'
p4787
I1
tp4788
asS'Li Xu'
p4789
(lp4790
(S'Charles J. Petrie'
p4791
I2
tp4792
a(S'Edson L. Horta'
p4793
I1
tp4794
a(S'Leonid Libkin'
p4795
I1
tp4796
a(S'Ephraim R. McLean'
p4797
I1
tp4798
a(S'William H. DeLone'
p4799
I1
tp4800
a(S'Chengfei Liu'
p4801
I1
tp4802
a(S'Gediminas Adomavicius'
p4803
I1
tp4804
a(S'Rob McCool'
p4805
I1
tp4806
a(S'Martin Hepp'
p4807
I1
tp4808
a(S'Alexander Tuzhilin'
p4809
I1
tp4810
a(S'Jixue Liu'
p4811
I1
tp4812
a(S'Marcelo Arenas'
p4813
I1
tp4814
a(S'John W. Lockwood'
p4815
I1
tp4816
a(S'Millist W. Vincent'
p4817
I1
tp4818
a(S'David E. Taylor'
p4819
I1
tp4820
a(S'Jonathan S. Turner'
p4821
I1
tp4822
a(S'Wai Yin Mok'
p4823
I1
tp4824
a(S'Ernesto Montaldo'
p4825
I1
tp4826
a(S'Antonio Boccalatte'
p4827
I1
tp4828
a(S'Roberto Sacile'
p4829
I1
tp4830
asS'Srihari Nelakuditi'
p4831
(lp4832
(S'Fan Ye'
p4833
I1
tp4834
a(S'Phil Buckle'
p4835
I1
tp4836
a(S'Deepak Ganesan'
p4837
I1
tp4838
a(S'E. H. Mamdani'
p4839
I1
tp4840
a(S'Songwu Lu'
p4841
I1
tp4842
a(S'Lixia Zhang'
p4843
I1
tp4844
a(S'Gary Zhong'
p4845
I1
tp4846
a(S'Stefan Poslad'
p4847
I1
tp4848
a(S'John Bigham'
p4849
I1
tp4850
a(S'Deborah Estrin'
p4851
I1
tp4852
a(S'Lang Tong'
p4853
I1
tp4854
a(S'Qing Zhao'
p4855
I1
tp4856
a(S'Alex L. Hayzelden'
p4857
I1
tp4858
a(S'Ramesh Govindan'
p4859
I1
tp4860
a(S'Scott Shenker'
p4861
I1
tp4862
asS'Gary J. Koehler'
p4863
(lp4864
(S'Michael Vitale'
p4865
I2
tp4866
a(S'Noam Tractinsky'
p4867
I2
tp4868
a(S'Vidyanand Choudhary'
p4869
I2
tp4870
a(S'Hemant K. Bhargava'
p4871
I2
tp4872
a(S'Sirkka L. Jarvenpaa'
p4873
I2
tp4874
a(S'Frederick J. Riggins'
p4875
I2
tp4876
a(S'Weiyin Hong'
p4877
I1
tp4878
a(S'Ralph M. Stair'
p4879
I1
tp4880
a(S'Sulin Ba'
p4881
I1
tp4882
a(S'Svetha Venkatesh'
p4883
I1
tp4884
a(S'Karl Reiner Lang'
p4885
I1
tp4886
a(S'Han Zhang'
p4887
I1
tp4888
a(S'Robert J. Kauffman'
p4889
I1
tp4890
a(S'Kar Yan Tam'
p4891
I1
tp4892
a(S'Guodong (Gordon) Gao'
p4893
I1
tp4894
a(S'Nor Jaidi Tuah'
p4895
I1
tp4896
a(S'Andrew B. Whinston'
p4897
I1
tp4898
a(S'James Y. L. Thong'
p4899
I1
tp4900
a(S'Izak Benbasat'
p4901
I1
tp4902
a(S'Zhenhui Jiang'
p4903
I1
tp4904
a(S'Eric K. Clemons'
p4905
I1
tp4906
a(S'Yoris A. Au'
p4907
I1
tp4908
a(S'Ritu Agarwal'
p4909
I1
tp4910
a(S'Anol Bhattacherjee'
p4911
I1
tp4912
a(S'Lorin M. Hitt'
p4913
I1
tp4914
a(S'Roumen Vragov'
p4915
I1
tp4916
a(S'V. Sambamurthy'
p4917
I1
tp4918
a(S'Mohan Kumar'
p4919
I1
tp4920
asS'Ming Li'
p4921
(lp4922
(S'Wang Chiew Tan'
p4923
I4
tp4924
a(S'Anisoara Nica'
p4925
I3
tp4926
a(S'Yuguang Fang'
p4927
I3
tp4928
a(S'Kobby Essien'
p4929
I3
tp4930
a(S'Amy J. Lee'
p4931
I3
tp4932
a(S'Hao Zhang'
p4933
I2
tp4934
a(S'Yana Kadiyska'
p4935
I2
tp4936
a(S'Younggoo Kwon'
p4937
I2
tp4938
a(S'Venkata Duvvuri'
p4939
I2
tp4940
a(S'Renu Tewari'
p4941
I2
tp4942
a(S'Dan Suciu'
p4943
I2
tp4944
a(S'Diane Tang'
p4945
I2
tp4946
a(S'Carmem S. Hara'
p4947
I2
tp4948
a(S'Prashant J. Shenoy'
p4949
I2
tp4950
a(S'Wenfei Fan'
p4951
I2
tp4952
a(S'Mary Baker'
p4953
I2
tp4954
a(S'Bin Liu'
p4955
I2
tp4956
a(S'Hongqiang Zhai'
p4957
I2
tp4958
a(S'Susan B. Davidson'
p4959
I2
tp4960
a(S'Songting Chen'
p4961
I2
tp4962
a(S'Mehmet Altinel'
p4963
I2
tp4964
a(S'Mary F. Fernandez'
p4965
I2
tp4966
a(S'Peter M. Fischer'
p4967
I2
tp4968
a(S'Peter Buneman'
p4969
I2
tp4970
a(S'Michael Friendly'
p4971
I2
tp4972
a(S'Atsuyuki Morishima'
p4973
I2
tp4974
a(S'Michael J. Franklin'
p4975
I2
tp4976
a(S'Yanlei Diao'
p4977
I2
tp4978
a(S'Vincent Lenders'
p4979
I1
tp4980
a(S'Guohong Cao'
p4981
I1
tp4982
a(S'Helen Pinto'
p4983
I1
tp4984
a(S'Hari Balakrishnan'
p4985
I1
tp4986
a(S'Meichun Hsu'
p4987
I1
tp4988
a(S'Joong Hyuk Chang'
p4989
I1
tp4990
a(S'Giovanni Neglia'
p4991
I1
tp4992
a(S'Madhav V. Marathe'
p4993
I1
tp4994
a(S'Martin May'
p4995
I1
tp4996
a(S'Stephan Eidenbenz'
p4997
I1
tp4998
a(S'Barbara Zengler'
p4999
I1
tp5000
a(S'Erdal Cayirci'
p5001
I1
tp5002
a(S'Lukas Kroc'
p5003
I1
tp5004
a(S'Joanna Kulik'
p5005
I1
tp5006
a(S'Ramesh Govindan'
p5007
I1
tp5008
a(S'Chris Clifton'
p5009
I1
tp5010
a(S'Mohammed Javeed Zaki'
p5011
I1
tp5012
a(S'Deepak Ganesan'
p5013
I1
tp5014
a(S'Krishna M. Sivalingam'
p5015
I1
tp5016
a(S'Kai Ming Ting'
p5017
I1
tp5018
a(S'Weilian Su'
p5019
I1
tp5020
a(S'Phokion G. Kolaitis'
p5021
I1
tp5022
a(S'Jef Wijsen'
p5023
I1
tp5024
a(S'Behzad Mortazavi-Asl'
p5025
I1
tp5026
a(S'Ian F. Akyildiz'
p5027
I1
tp5028
a(S'Enrico Gregori'
p5029
I1
tp5030
a(S'Shaju Stephen'
p5031
I1
tp5032
a(S'Piet Van Mieghem'
p5033
I1
tp5034
a(S'Xindong Wu'
p5035
I1
tp5036
a(S'Christopher L. Barrett'
p5037
I1
tp5038
a(S'Gianluigi Greco'
p5039
I1
tp5040
a(S'Raffaele Bruno'
p5041
I1
tp5042
a(S'Subbu N. Subramanian'
p5043
I1
tp5044
a(S'Gregor Gaertner'
p5045
I1
tp5046
a(S'Anton Stiglic'
p5047
I1
tp5048
a(S'Jiawei Han'
p5049
I1
tp5050
a(S'Leonid Libkin'
p5051
I1
tp5052
a(S'Laks V. S. Lakshmanan'
p5053
I1
tp5054
a(S'Ronald Fagin'
p5055
I1
tp5056
a(S'Christine E. Jones'
p5057
I1
tp5058
a(S'Liang Guo'
p5059
I1
tp5060
a(S'Denise Anthony'
p5061
I1
tp5062
a(S'Millist W. Vincent'
p5063
I1
tp5064
a(S'Fereidoon Sadri'
p5065
I1
tp5066
a(S'Marvin McNett'
p5067
I1
tp5068
a(S'Jyh-Cheng Chen'
p5069
I1
tp5070
a(S'Umeshwar Dayal'
p5071
I1
tp5072
a(S'Pedro M. Valero-Mora'
p5073
I1
tp5074
a(S'Tristan Henderson'
p5075
I1
tp5076
a(S'Fernando A. Kuipers'
p5077
I1
tp5078
a(S'Forrest W. Young'
p5079
I1
tp5080
a(S'Ulf M\xc3\xb6ller'
p5081
I1
tp5082
a(S'Padraig Cunningham'
p5083
I1
tp5084
a(S'Ester Zumpano'
p5085
I1
tp5086
a(S'Ernest Kwan'
p5087
I1
tp5088
a(S'Donald F. Towsley'
p5089
I1
tp5090
a(S'Clemens Wacha'
p5091
I1
tp5092
a(S'Y. C. Tay'
p5093
I1
tp5094
a(S'Qiming Chen'
p5095
I1
tp5096
a(S'Prathima Agrawal'
p5097
I1
tp5098
a(S'Chengfei Liu'
p5099
I1
tp5100
a(S'Gunnar Karlsson'
p5101
I1
tp5102
a(S'Saji Jacob'
p5103
I1
tp5104
a(S'Jian Pei'
p5105
I1
tp5106
a(S'Aaron F. Bobick'
p5107
I1
tp5108
a(S'Yi-Bing Lin'
p5109
I1
tp5110
a(S'Wen-Syan Li'
p5111
I1
tp5112
a(S'Mirco Musolesi'
p5113
I1
tp5114
a(S'Adam Back'
p5115
I1
tp5116
a(S'Jennifer L. Welch'
p5117
I1
tp5118
a(S'Vinny Cahill'
p5119
I1
tp5120
a(S'Hye-Chung Kum'
p5121
I1
tp5122
a(S'Sergio D. Servetto'
p5123
I1
tp5124
a(S'Scott Shenker'
p5125
I1
tp5126
a(S'James P. Smith'
p5127
I1
tp5128
a(S'Xiaolan Zhang'
p5129
I1
tp5130
a(S'Kee Chaing Chua'
p5131
I1
tp5132
a(S'Jixue Liu'
p5133
I1
tp5134
a(S'Yogesh Sankarasubramaniam'
p5135
I1
tp5136
a(S'Wen-Guey Tzeng'
p5137
I1
tp5138
a(S'Claudio S. Pinhanez'
p5139
I1
tp5140
a(S'Jianyong Wang'
p5141
I1
tp5142
a(S'Nathalie Japkowicz'
p5143
I1
tp5144
a(S'Wei Wang'
p5145
I1
tp5146
a(S'Jennifer E. Walter'
p5147
I1
tp5148
a(S'Wendi Rabiner Heinzelman'
p5149
I1
tp5150
a(S'Lucian Popa'
p5151
I1
tp5152
a(S'Cecilia Mascolo'
p5153
I1
tp5154
a(S'Marco Conti'
p5155
I1
tp5156
a(S'Ibrahim Matta'
p5157
I1
tp5158
a(S'Sergio Greco'
p5159
I1
tp5160
a(S'Geoffrey M. Voelker'
p5161
I1
tp5162
a(S'Deborah Estrin'
p5163
I1
tp5164
a(S'Hans De Neve'
p5165
I1
tp5166
a(S'Andreas Koeller'
p5167
I1
tp5168
a(S'John Carney'
p5169
I1
tp5170
a(S'James F. Kurose'
p5171
I1
tp5172
a(S'Nitin H. Vaidya'
p5173
I1
tp5174
a(S'Shichao Zhang'
p5175
I1
tp5176
a(S'Marcelo Arenas'
p5177
I1
tp5178
a(S'Mario Jeckle'
p5179
I1
tp5180
asS'Daqing Zhang'
p5181
(lp5182
(S'Nigel Davies'
p5183
I2
tp5184
a(S'Michael Beigl'
p5185
I2
tp5186
a(S'Sanjiva Weerawarana'
p5187
I2
tp5188
a(S'Christos Efstratiou'
p5189
I2
tp5190
a(S'Albrecht Schmidt'
p5191
I2
tp5192
a(S'Rania Khalaf'
p5193
I2
tp5194
a(S'Francisco Curbera'
p5195
I2
tp5196
a(S'Hans-Werner Gellersen'
p5197
I2
tp5198
a(S'Keith Cheverst'
p5199
I2
tp5200
a(S'Nirmal Mukhi'
p5201
I2
tp5202
a(S'Matthew J. Duftler'
p5203
I2
tp5204
a(S'William Nagy'
p5205
I2
tp5206
a(S'Zhongmei Zhou'
p5207
I1
tp5208
a(S'Lalitha Suryanarayana'
p5209
I1
tp5210
a(S'Zhaohui Wu'
p5211
I1
tp5212
a(S'Xuezhong Zhou'
p5213
I1
tp5214
a(S'Keith Mitchell'
p5215
I1
tp5216
a(S'Maria Ebling'
p5217
I1
tp5218
a(S'Adrian Friday'
p5219
I1
tp5220
a(S'Daby M. Sow'
p5221
I1
tp5222
a(S'Yi Feng'
p5223
I1
tp5224
a(S'Guruduth Banavar'
p5225
I1
tp5226
a(S'Johan Hjelm'
p5227
I1
tp5228
a(S'John S. Davis II'
p5229
I1
tp5230
a(S'Weiyu Fan'
p5231
I1
tp5232
a(S'Hui Lei'
p5233
I1
tp5234
asS'Tore Dyb\xc3\xa5'
p5235
(lp5236
(S'Heeseok Lee'
p5237
I1
tp5238
a(S'M. Lynne Markus'
p5239
I1
tp5240
a(S'Paul Klint'
p5241
I1
tp5242
a(S'Michael J. Earl'
p5243
I1
tp5244
a(S'Chris Verhoef'
p5245
I1
tp5246
a(S'Byounggu Choi'
p5247
I1
tp5248
a(S'James Miller'
p5249
I1
tp5250
asS'Ignas G. Niemegeers'
p5251
(lp5252
sS'Vincenzo Manca'
p5253
(lp5254
(S'Gheorghe Paun'
p5255
I1
tp5256
a(S'Shankara Narayanan Krishna'
p5257
I1
tp5258
asS'Vicen\xc3\xa7 Torra'
p5259
(lp5260
(S'Pierangela Samarati'
p5261
I5
tp5262
a(S'William E. Yancey'
p5263
I2
tp5264
a(S'Michael Laszlo'
p5265
I2
tp5266
a(S'Jihye Kim'
p5267
I2
tp5268
a(S'Robert H. Creecy'
p5269
I2
tp5270
a(S'Stanislaw Jarecki'
p5271
I2
tp5272
a(S'Claude Castelluccia'
p5273
I2
tp5274
a(S'Gene Tsudik'
p5275
I2
tp5276
a(S'Ramesh A. Dandekar'
p5277
I2
tp5278
a(S'Sumitra Mukherjee'
p5279
I2
tp5280
a(S'William E. Winkler'
p5281
I2
tp5282
a(S'Lin Cai'
p5283
I1
tp5284
a(S'Y\xc3\xbccel Saygin'
p5285
I1
tp5286
a(S'Vassilios S. Verykios'
p5287
I1
tp5288
a(S'Ahmed K. Elmagarmid'
p5289
I1
tp5290
a(S'Mike Burmester'
p5291
I1
tp5292
a(S'Tri Van Le'
p5293
I1
tp5294
a(S'Elena Dasseni'
p5295
I1
tp5296
a(S'Elisa Bertino'
p5297
I1
tp5298
a(S'Xuemin Shen'
p5299
I1
tp5300
a(S'Jianping Pan'
p5301
I1
tp5302
a(S'Alec Yasinsac'
p5303
I1
tp5304
a(S'Jon W. Mark'
p5305
I1
tp5306
asS'Masayuki Murata'
p5307
(lp5308
sS'Frans Coenen'
p5309
(lp5310
sS'Eduardo Fern\xc3\xa1ndez-Medina'
p5311
(lp5312
(S'Pierangela Samarati'
p5313
I8
tp5314
a(S'Sushil Jajodia'
p5315
I6
tp5316
a(S'V. S. Subrahmanian'
p5317
I4
tp5318
a(S'Maria Luisa Sapino'
p5319
I4
tp5320
a(S'Alexander Brodsky'
p5321
I2
tp5322
a(S'Csilla Farkas'
p5323
I2
tp5324
a(S'Geert Poels'
p5325
I2
tp5326
a(S'Yair Wand'
p5327
I2
tp5328
a(S'Ron Weber'
p5329
I2
tp5330
a(S'Inwon Kang'
p5331
I1
tp5332
a(S'Islay Davies'
p5333
I1
tp5334
a(S'Peter Green'
p5335
I1
tp5336
a(S'Yogesh Sankarasubramaniam'
p5337
I1
tp5338
a(S'Ian F. Akyildiz'
p5339
I1
tp5340
a(S'Marc Sim'
p5341
I1
tp5342
a(S'Fran\xc3\xa7ois Bodart'
p5343
I1
tp5344
a(S'Marcela Genero'
p5345
I1
tp5346
a(S'K\xc3\xa1thia Mar\xc3\xa7al de Oliveira'
p5347
I1
tp5348
a(S'Erdal Cayirci'
p5349
I1
tp5350
a(S'Arvind Patel'
p5351
I1
tp5352
a(S'Kun Chang Lee'
p5353
I1
tp5354
a(S'Amrit Tiwana'
p5355
I1
tp5356
a(S'H. James Nelson'
p5357
I1
tp5358
a(S'M\xc3\xa1rcio Greyck Batista Dias'
p5359
I1
tp5360
a(S'Nicolas Anquetil'
p5361
I1
tp5362
a(S'Daniel L. Moody'
p5363
I1
tp5364
a(S'Balasubramaniam Ramesh'
p5365
I1
tp5366
a(S'Kleiber D. de Sousa'
p5367
I1
tp5368
a(S'Stan Gallo'
p5369
I1
tp5370
a(S'Andrew Gemino'
p5371
I1
tp5372
a(S'Ann Maes'
p5373
I1
tp5374
a(S'Michael Rosemann'
p5375
I1
tp5376
a(S'Il-Yeol Song'
p5377
I1
tp5378
a(S'Weilian Su'
p5379
I1
tp5380
a(S'Sangjae Lee'
p5381
I1
tp5382
a(S'Marta Indulska'
p5383
I1
tp5384
a(S'Sergio Luj\xc3\xa1n-Mora'
p5385
I1
tp5386
asS'Yu-Chee Tseng'
p5387
(lp5388
(S'Dik Lun Lee'
p5389
I5
tp5390
a(S'Jianliang Xu'
p5391
I4
tp5392
a(S'Qinglong Hu'
p5393
I3
tp5394
a(S'Guohong Cao'
p5395
I2
tp5396
a(S'Yogesh Sankarasubramaniam'
p5397
I2
tp5398
a(S'Vijay Kumar'
p5399
I2
tp5400
a(S'Qun Ren'
p5401
I2
tp5402
a(S'Margaret H. Dunham'
p5403
I2
tp5404
a(S'Erdal Cayirci'
p5405
I2
tp5406
a(S'Xueyan Tang'
p5407
I2
tp5408
a(S'Ian F. Akyildiz'
p5409
I2
tp5410
a(S'Weilian Su'
p5411
I2
tp5412
a(S'Hari Balakrishnan'
p5413
I1
tp5414
a(S'Ming-Syan Chen'
p5415
I1
tp5416
a(S'Kwong Yuen Lai'
p5417
I1
tp5418
a(S'Zahir Tari'
p5419
I1
tp5420
a(S'Aura Ganz'
p5421
I1
tp5422
a(S'M. Frans Kaashoek'
p5423
I1
tp5424
a(S'Daniel A. Keim'
p5425
I1
tp5426
a(S'Loren Schwiebert'
p5427
I1
tp5428
a(S'Dimitrios Katsaros'
p5429
I1
tp5430
a(S'Yannis Manolopoulos'
p5431
I1
tp5432
a(S'Anan Phonphoem'
p5433
I1
tp5434
a(S'Arup Acharya'
p5435
I1
tp5436
a(S'Constantine Coutras'
p5437
I1
tp5438
a(S'Pat Morin'
p5439
I1
tp5440
a(S'Leonardo Badia'
p5441
I1
tp5442
a(S'Zvi Ganz'
p5443
I1
tp5444
a(S'Spiridon Bakiras'
p5445
I1
tp5446
a(S'Stefan Berchtold'
p5447
I1
tp5448
a(S'Kyle Jamieson'
p5449
I1
tp5450
a(S'Benjie Chen'
p5451
I1
tp5452
a(S'Ivan Stojmenovic'
p5453
I1
tp5454
a(S'Chien-Chung Shen'
p5455
I1
tp5456
a(S'B. R. Badrinath'
p5457
I1
tp5458
a(S'Stamatis Stefanakos'
p5459
I1
tp5460
a(S'Yufei Tao'
p5461
I1
tp5462
a(S'Fran\xc3\xa7oise Sailhan'
p5463
I1
tp5464
a(S'Val\xc3\xa9rie Issarny'
p5465
I1
tp5466
a(S'Robert Morris'
p5467
I1
tp5468
a(S'Anup Kumar Talukdar'
p5469
I1
tp5470
a(S'Kyriakos Mouratidis'
p5471
I1
tp5472
a(S'Hans-Peter Kriegel'
p5473
I1
tp5474
a(S'Rong-Hong Jan'
p5475
I1
tp5476
a(S'Dimitris Papadias'
p5477
I1
tp5478
a(S'Chiara Petrioli'
p5479
I1
tp5480
a(S'Justin Yackoski'
p5481
I1
tp5482
a(S'Peter Bert\xc3\xb3k'
p5483
I1
tp5484
a(S'Fred Douglis'
p5485
I1
tp5486
a(S'Michele Mastrogiovanni'
p5487
I1
tp5488
a(S'Takahiro Hara'
p5489
I1
tp5490
a(S'Manish Kochhal'
p5491
I1
tp5492
a(S'Milica Stojanovic'
p5493
I1
tp5494
a(S'Borja Peleato'
p5495
I1
tp5496
a(S'Thomas Seidl'
p5497
I1
tp5498
a(S'Hung-Chi Chu'
p5499
I1
tp5500
a(S'Kun-Lung Wu'
p5501
I1
tp5502
a(S'Michele Zorzi'
p5503
I1
tp5504
a(S'Sanjay Gupta'
p5505
I1
tp5506
a(S'Prosenjit Bose'
p5507
I1
tp5508
a(S'Ness B. Shroff'
p5509
I1
tp5510
a(S'Jorge Urrutia'
p5511
I1
tp5512
a(S'Philip S. Yu'
p5513
I1
tp5514
asS'Chai Kiat Yeo'
p5515
(lp5516
(S'Manish Kochhal'
p5517
I1
tp5518
a(S'Sandeep K. S. Gupta'
p5519
I1
tp5520
a(S'Christian Hoymann'
p5521
I1
tp5522
a(S'Loren Schwiebert'
p5523
I1
tp5524
a(S'Nancy Jesuale'
p5525
I1
tp5526
asS'Ignacio P\xc3\xa9rez-Hurtado'
p5527
(lp5528
(S'Michael J. Gormish'
p5529
I1
tp5530
a(S'Fernando Sancho-Caparrini'
p5531
I1
tp5532
a(S'Martin P. Boliek'
p5533
I1
tp5534
a(S'Ali Bilgin'
p5535
I1
tp5536
a(S'\xc3\x81lvaro Romero Jim\xc3\xa9nez'
p5537
I1
tp5538
a(S'Matteo Cavaliere'
p5539
I1
tp5540
a(S'Ioan I. Ardelean'
p5541
I1
tp5542
a(S'Michael W. Marcellin'
p5543
I1
tp5544
a(S'Petr Sos\xc3\xadk'
p5545
I1
tp5546
asS'Cem Ersoy'
p5547
(lp5548
(S'Ian F. Akyildiz'
p5549
I4
tp5550
a(S'Yogesh Sankarasubramaniam'
p5551
I2
tp5552
a(S'Weilian Su'
p5553
I2
tp5554
a(S'Jang-Ping Sheu'
p5555
I1
tp5556
a(S'Michael D. Bender'
p5557
I1
tp5558
a(S'Xudong Wang'
p5559
I1
tp5560
a(S'Qiang Ni'
p5561
I1
tp5562
a(S'Min-Te Sun'
p5563
I1
tp5564
a(S'Pat Morin'
p5565
I1
tp5566
a(S'Thierry Turletti'
p5567
I1
tp5568
a(S'Ahmed Helmy'
p5569
I1
tp5570
a(S'Mary Baker'
p5571
I1
tp5572
a(S'Ivan Stojmenovic'
p5573
I1
tp5574
a(S'Weilin Wang'
p5575
I1
tp5576
a(S'Yuh-Shyan Chen'
p5577
I1
tp5578
a(S'Diane Tang'
p5579
I1
tp5580
a(S'H\xc3\xbcseyin Uzunalioglu'
p5581
I1
tp5582
a(S'Sze-Yao Ni'
p5583
I1
tp5584
a(S'Prosenjit Bose'
p5585
I1
tp5586
a(S'Lamia Romdhani'
p5587
I1
tp5588
a(S'Anish Arora'
p5589
I1
tp5590
a(S'Shaoyong Wang'
p5591
I1
tp5592
a(S'Christian Bettstetter'
p5593
I1
tp5594
a(S'Ten-Hwang Lai'
p5595
I1
tp5596
a(S'Lifei Huang'
p5597
I1
tp5598
a(S'Yu-Chee Tseng'
p5599
I1
tp5600
a(S'Jorge Urrutia'
p5601
I1
tp5602
asS'Tzu-Chi Huang'
p5603
(lp5604
(S'Patricia Florissi'
p5605
I2
tp5606
a(S'Jonathan Sevy'
p5607
I2
tp5608
a(S'Danilo Florissi'
p5609
I2
tp5610
a(S'Yechiam Yemini'
p5611
I2
tp5612
a(S'William C. Regli'
p5613
I2
tp5614
a(S'David T. McWherter'
p5615
I2
tp5616
a(S'Radia J. Perlman'
p5617
I1
tp5618
a(S'Charlie Kaufman'
p5619
I1
tp5620
asS'Sergey Verlan'
p5621
(lp5622
(S'Mario J. P\xc3\xa9rez-Jim\xc3\xa9nez'
p5623
I3
tp5624
a(S'\xc3\x81lvaro Romero Jim\xc3\xa9nez'
p5625
I2
tp5626
a(S'Fernando Sancho-Caparrini'
p5627
I2
tp5628
a(S'Gheorghe Paun'
p5629
I1
tp5630
a(S'Mihai Ionescu'
p5631
I1
tp5632
a(S'Haiming Chen'
p5633
I1
tp5634
a(S'Andrei Paun'
p5635
I1
tp5636
a(S'Tseren-Onolt Ishdorj'
p5637
I1
tp5638
asS'Enzo Mingozzi'
p5639
(lp5640
(S'Oluf Faroe'
p5641
I1
tp5642
a(S'Filippo Focacci'
p5643
I1
tp5644
a(S'David Pisinger'
p5645
I1
tp5646
a(S'Martin Zachariasen'
p5647
I1
tp5648
a(S'Michela Milano'
p5649
I1
tp5650
a(S'Andrea Lodi'
p5651
I1
tp5652
asS'Alok Gupta'
p5653
(lp5654
(S'Eric K. Clemons'
p5655
I11
tp5656
a(S'Kunsoo Han'
p5657
I8
tp5658
a(S'Barrie R. Nault'
p5659
I8
tp5660
a(S'Rajiv Kohli'
p5661
I7
tp5662
a(S'Sarv Devaraj'
p5663
I7
tp5664
a(S'Kenneth L. Kraemer'
p5665
I7
tp5666
a(S'Michel Benaroch'
p5667
I6
tp5668
a(S'Matt E. Thatcher'
p5669
I5
tp5670
a(S'Lorin M. Hitt'
p5671
I5
tp5672
a(S'Qizhi Dai'
p5673
I5
tp5674
a(S'Vijay Gurbaxani'
p5675
I5
tp5676
a(S'Karl Reiner Lang'
p5677
I5
tp5678
a(S'M. Lynne Markus'
p5679
I4
tp5680
a(S'David E. Pingry'
p5681
I4
tp5682
a(S'Frederick J. Riggins'
p5683
I4
tp5684
a(S'Yolande E. Chan'
p5685
I4
tp5686
a(S'Charles W. Steinfield'
p5687
I3
tp5688
a(S'Sugato Bagchi'
p5689
I3
tp5690
a(S'Alina M. Chircu'
p5691
I3
tp5692
a(S'Rolf T. Wigand'
p5693
I3
tp5694
a(S'Ryan Sougstad'
p5695
I3
tp5696
a(S'Sirkka L. Jarvenpaa'
p5697
I3
tp5698
a(S'Chalermsak Lertwongsatien'
p5699
I3
tp5700
a(S'Noam Tractinsky'
p5701
I3
tp5702
a(S'Hans-Peter Kriegel'
p5703
I3
tp5704
a(S'Robert G. Fichman'
p5705
I3
tp5706
a(S'Michael Vitale'
p5707
I3
tp5708
a(S'T. Ravichandran'
p5709
I3
tp5710
a(S'James Y. L. Thong'
p5711
I3
tp5712
a(S'Ramayya Krishnan'
p5713
I2
tp5714
a(S'Jeremy York'
p5715
I2
tp5716
a(S'Bernhard Braunm\xc3\xbcller'
p5717
I2
tp5718
a(S'Bin Gu'
p5719
I2
tp5720
a(S'Mohan Kumar'
p5721
I2
tp5722
a(S'Sandeep Shah'
p5723
I2
tp5724
a(S'Joseph G. Davis'
p5725
I2
tp5726
a(S'Salvatore Ruggieri'
p5727
I2
tp5728
a(S'Brent Smith'
p5729
I2
tp5730
a(S'J\xc3\xb6rg Sander'
p5731
I2
tp5732
a(S'Yaw-Huei Chen'
p5733
I2
tp5734
a(S'Vidyanand Choudhary'
p5735
I2
tp5736
a(S'John P. Curtin'
p5737
I2
tp5738
a(S'Michael Collins'
p5739
I2
tp5740
a(S'Izak Benbasat'
p5741
I2
tp5742
a(S'Martin Ester'
p5743
I2
tp5744
a(S'Mark Jeffery'
p5745
I2
tp5746
a(S'Chi-Sheng Shih'
p5747
I2
tp5748
a(S'Rajiv Sabherwal'
p5749
I2
tp5750
a(S'A. Graham Peace'
p5751
I2
tp5752
a(S'Greg Linden'
p5753
I2
tp5754
a(S'Svetha Venkatesh'
p5755
I2
tp5756
a(S'Arthur Westerberg'
p5757
I2
tp5758
a(S'Eswaran Subrahmanian'
p5759
I2
tp5760
a(S'Raymond G. Sin'
p5761
I2
tp5762
a(S'Joseph A. Konstan'
p5763
I2
tp5764
a(S'Helen Granger'
p5765
I2
tp5766
a(S'Mark Keil'
p5767
I2
tp5768
a(S'Hemant K. Bhargava'
p5769
I2
tp5770
a(S'Suresh Konda'
p5771
I2
tp5772
a(S'Nor Jaidi Tuah'
p5773
I2
tp5774
a(S'Ram L. Kumar'
p5775
I2
tp5776
a(S'D. J. Wu'
p5777
I2
tp5778
a(S'Chiang Lee'
p5779
I2
tp5780
a(S'Salvatore T. March'
p5781
I2
tp5782
a(S'Dennis F. Galletta'
p5783
I2
tp5784
a(S'Yoris A. Au'
p5785
I2
tp5786
a(S'Roy C. Schmidt'
p5787
I1
tp5788
a(S'Laurie J. Kirsch'
p5789
I1
tp5790
a(S'Leslie Eldenburg'
p5791
I1
tp5792
a(S'Varun Grover'
p5793
I1
tp5794
a(S'Srinivasan Raghunathan'
p5795
I1
tp5796
a(S'George Karypis'
p5797
I1
tp5798
a(S'Frank F. Land'
p5799
I1
tp5800
a(S'Chia-Chen Wu'
p5801
I1
tp5802
a(S'Sven de Vries'
p5803
I1
tp5804
a(S'Rakesh V. Vohra'
p5805
I1
tp5806
a(S'Batul J. Mirza'
p5807
I1
tp5808
a(S'George L. Nemhauser'
p5809
I1
tp5810
a(S'Gary J. Koehler'
p5811
I1
tp5812
a(S'Jonathan L. Herlocker'
p5813
I1
tp5814
a(S'Ho Geun Lee'
p5815
I1
tp5816
a(S'Sabyasachi Mitra'
p5817
I1
tp5818
a(S'Paul E. Cule'
p5819
I1
tp5820
a(S'H. Jeff Smith'
p5821
I1
tp5822
a(S'Zhenhui Jiang'
p5823
I1
tp5824
a(S'D. Harrison McKnight'
p5825
I1
tp5826
a(S'Didem Demirhan'
p5827
I1
tp5828
a(S'Benjamin J. Keller'
p5829
I1
tp5830
a(S'Michael J. Shaw'
p5831
I1
tp5832
a(S'Anindya Ghose'
p5833
I1
tp5834
a(S'Anol Bhattacherjee'
p5835
I1
tp5836
a(S'Atip Asvanund'
p5837
I1
tp5838
a(S'Charles J. Kacmar'
p5839
I1
tp5840
a(S'Sridhar Narasimhan'
p5841
I1
tp5842
a(S'Ananth Grama'
p5843
I1
tp5844
a(S'Terry Anthony Byrd'
p5845
I1
tp5846
a(S'Rahul Telang'
p5847
I1
tp5848
a(S'Karen Clay'
p5849
I1
tp5850
a(S'Pei-Yu Sharon Chen'
p5851
I1
tp5852
a(S'John Riedl'
p5853
I1
tp5854
a(S'Paul Chwelos'
p5855
I1
tp5856
a(S'Ganesh D. Bhatt'
p5857
I1
tp5858
a(S'Jonathan W. Palmer'
p5859
I1
tp5860
a(S'Hung-Jen Lai'
p5861
I1
tp5862
a(S'Han Zhang'
p5863
I1
tp5864
a(S'Fran\xc3\xa7ois Bergeron'
p5865
I1
tp5866
a(S'Stephan Kudyba'
p5867
I1
tp5868
a(S'Kai Yu'
p5869
I1
tp5870
a(S'Shivendu Shivendu'
p5871
I1
tp5872
a(S'Nirup M. Menon'
p5873
I1
tp5874
a(S'Kar Yan Tam'
p5875
I1
tp5876
a(S'Grover S. Kearns'
p5877
I1
tp5878
a(S'Vivek Choudhury'
p5879
I1
tp5880
a(S'Angsana A. Techatassanasoontorn'
p5881
I1
tp5882
a(S'Xiaowei Xu'
p5883
I1
tp5884
a(S'Ajay Kumar'
p5885
I1
tp5886
a(S'Volker Tresp'
p5887
I1
tp5888
a(S'Sanjay Gosain'
p5889
I1
tp5890
a(S'Hamid Mohtadi'
p5891
I1
tp5892
a(S'Suzanne Rivard'
p5893
I1
tp5894
a(S'Omar A. ElSawy'
p5895
I1
tp5896
a(S'Romesh Diwan'
p5897
I1
tp5898
a(S'Weiyin Hong'
p5899
I1
tp5900
a(S'Douglas Edward Turner'
p5901
I1
tp5902
a(S'Rajiv D. Banker'
p5903
I1
tp5904
a(S'Chih-Ping Wei'
p5905
I1
tp5906
a(S'Yi-Cheng Ku'
p5907
I1
tp5908
a(S'Shankar Sundaresan'
p5909
I1
tp5910
a(S'Sashidhar P. Reddi'
p5911
I1
tp5912
a(S'Kathy A. Stewart'
p5913
I1
tp5914
a(S'Arun Sundararajan'
p5915
I1
tp5916
a(S'Honghua Dai'
p5917
I1
tp5918
a(S'Naren Ramakrishnan'
p5919
I1
tp5920
a(S'Kevin Zhu'
p5921
I1
tp5922
a(S'Albert S. Dexter'
p5923
I1
tp5924
a(S'Louis Raymond'
p5925
I1
tp5926
a(S'Yash P. Gupta'
p5927
I1
tp5928
a(S'Michael D. Smith'
p5929
I1
tp5930
a(S'Toni M. Somers'
p5931
I1
tp5932
a(S'Byungtae Lee'
p5933
I1
tp5934
a(S'Rui Dai'
p5935
I1
tp5936
a(S'Roumen Vragov'
p5937
I1
tp5938
a(S'Miki Nakagawa'
p5939
I1
tp5940
a(S'Ozer Asdemir'
p5941
I1
tp5942
a(S'Martin W. P. Savelsbergh'
p5943
I1
tp5944
a(S'Anton Schwaighofer'
p5945
I1
tp5946
a(S'Arvind Malhotra'
p5947
I1
tp5948
a(S'Gordon Depledge'
p5949
I1
tp5950
a(S'Theodore H. Clark'
p5951
I1
tp5952
a(S'Joe L. Turnbow'
p5953
I1
tp5954
a(S'Sulin Ba'
p5955
I1
tp5956
a(S'Jahangir Karimi'
p5957
I1
tp5958
a(S'Alexander Tuzhilin'
p5959
I1
tp5960
a(S'Albert H. Segars'
p5961
I1
tp5962
a(S'J. Ben Schafer'
p5963
I1
tp5964
a(S'Ting-Ping Liang'
p5965
I1
tp5966
a(S'Guodong (Gordon) Gao'
p5967
I1
tp5968
a(S'Kalle Lyytinen'
p5969
I1
tp5970
a(S'Ming Fan'
p5971
I1
tp5972
a(S'Michael J. Davern'
p5973
I1
tp5974
a(S'Chandrasekar Subramaniam'
p5975
I1
tp5976
a(S'Xiaoge Zhou'
p5977
I1
tp5978
a(S'Ellis L. Johnson'
p5979
I1
tp5980
a(S'Bijoy Bordoloi'
p5981
I1
tp5982
a(S'Sumit Sircar'
p5983
I1
tp5984
a(S'Ravi Aron'
p5985
I1
tp5986
a(S'Bamshad Mobasher'
p5987
I1
tp5988
a(S'Varghese S. Jacob'
p5989
I1
tp5990
a(S'Tao Luo'
p5991
I1
tp5992
a(S'Roger H. L. Chiang'
p5993
I1
tp5994
asS'Mohammad Reza Meybodi'
p5995
(lp5996
sS'Bruno Tuffin'
p5997
(lp5998
(S'R. Srikant'
p5999
I3
tp6000
a(S'Tansu Alpcan'
p6001
I3
tp6002
a(S'Tamer Basar'
p6003
I3
tp6004
a(S'Xi-Ren Cao'
p6005
I1
tp6006
a(S'Danny De Vleeschauwer'
p6007
I1
tp6008
a(S'Y. C. Tay'
p6009
I1
tp6010
a(S'Nidhi Hegde'
p6011
I1
tp6012
a(S'Christian Bettstetter'
p6013
I1
tp6014
a(S'Kee Chaing Chua'
p6015
I1
tp6016
a(S'Jan Janssen'
p6017
I1
tp6018
a(S'Lizhong Li'
p6019
I1
tp6020
a(S'Seungjoon Lee'
p6021
I1
tp6022
a(S'Xavier P\xc3\xa9rez Costa'
p6023
I1
tp6024
a(S'Bo Li'
p6025
I1
tp6026
a(S'Armand M. Makowski'
p6027
I1
tp6028
a(S'Hannes Hartenstein'
p6029
I1
tp6030
a(S'Richard J. La'
p6031
I1
tp6032
a(S'Guido H. Petit'
p6033
I1
tp6034
a(S'Bin Li'
p6035
I1
tp6036
a(S'Maarten B\xc3\xbcchli'
p6037
I1
tp6038
a(S'Yijie Han'
p6039
I1
tp6040
asS'Xiang-Yang Li'
p6041
(lp6042
(S'Asimakis Tzamaloukas'
p6043
I2
tp6044
a(S'J. J. Garcia-Luna-Aceves'
p6045
I2
tp6046
a(S'Cyril Decleir'
p6047
I1
tp6048
a(S'Jacques Kouloumdjian'
p6049
I1
tp6050
a(S'Mohand-Said Hacid'
p6051
I1
tp6052
asS'Georgios Kambourakis'
p6053
(lp6054
sS'Yong Tan'
p6055
(lp6056
(S'Frederick J. Riggins'
p6057
I3
tp6058
a(S'Michael Vitale'
p6059
I2
tp6060
a(S'I. Robert Chiang'
p6061
I2
tp6062
a(S'Noam Tractinsky'
p6063
I2
tp6064
a(S'Karl Reiner Lang'
p6065
I2
tp6066
a(S'Vidyanand Choudhary'
p6067
I2
tp6068
a(S'Hemant K. Bhargava'
p6069
I2
tp6070
a(S'Sirkka L. Jarvenpaa'
p6071
I2
tp6072
a(S'Roumen Vragov'
p6073
I2
tp6074
a(S'Weiyin Hong'
p6075
I1
tp6076
a(S'Veda C. Storey'
p6077
I1
tp6078
a(S'Svetha Venkatesh'
p6079
I1
tp6080
a(S'Ali Amiri'
p6081
I1
tp6082
a(S'Han Zhang'
p6083
I1
tp6084
a(S'Robert J. Kauffman'
p6085
I1
tp6086
a(S'Guodong (Gordon) Gao'
p6087
I1
tp6088
a(S'Nor Jaidi Tuah'
p6089
I1
tp6090
a(S'Kar Yan Tam'
p6091
I1
tp6092
a(S'James Y. L. Thong'
p6093
I1
tp6094
a(S'Sumit Sarkar'
p6095
I1
tp6096
a(S'Robert C. Goldstein'
p6097
I1
tp6098
a(S'Yoris A. Au'
p6099
I1
tp6100
a(S'Izak Benbasat'
p6101
I1
tp6102
a(S'Zhenhui Jiang'
p6103
I1
tp6104
a(S'Syam Menon'
p6105
I1
tp6106
a(S'Eric K. Clemons'
p6107
I1
tp6108
a(S'Sulin Ba'
p6109
I1
tp6110
a(S'Anol Bhattacherjee'
p6111
I1
tp6112
a(S'Lorin M. Hitt'
p6113
I1
tp6114
a(S'Harald Ullrich'
p6115
I1
tp6116
a(S'Mohan Kumar'
p6117
I1
tp6118
asS'David J. Hand'
p6119
(lp6120
(S'Gopi Goswami'
p6121
I1
tp6122
a(S'Jun S. Liu'
p6123
I1
tp6124
a(S'J. A. Dykes'
p6125
I1
tp6126
a(S'Umeshwar Dayal'
p6127
I1
tp6128
a(S'Meichun Hsu'
p6129
I1
tp6130
a(S'Ming C. Hao'
p6131
I1
tp6132
a(S'Yannis Theodoridis'
p6133
I1
tp6134
a(S'D. M. Mountain'
p6135
I1
tp6136
a(S'Emmanuel Stefanakis'
p6137
I1
tp6138
a(S'Timos K. Sellis'
p6139
I1
tp6140
asS'Josep Sol\xc3\xa9-Pareta'
p6141
(lp6142
(S'Raouf Boutaba'
p6143
I3
tp6144
a(S'Youssef Iraqi'
p6145
I3
tp6146
a(S'W. Szeto'
p6147
I3
tp6148
a(S'Erik Van Breusegem'
p6149
I1
tp6150
a(S'Douglas S. Reeves'
p6151
I1
tp6152
a(S'Didier Colle'
p6153
I1
tp6154
a(S'Ant\xc3\xb3nio Pacheco'
p6155
I1
tp6156
a(S'Joris Moreau'
p6157
I1
tp6158
a(S'Andrea Detti'
p6159
I1
tp6160
a(S'Piet Demeester'
p6161
I1
tp6162
a(S'Paulo Salvador'
p6163
I1
tp6164
a(S'Yong Zhu'
p6165
I1
tp6166
a(S'Jan Cheyns'
p6167
I1
tp6168
a(S'Davy De Winter'
p6169
I1
tp6170
a(S'Mostafa H. Ammar'
p6171
I1
tp6172
a(S'Mario Pickavet'
p6173
I1
tp6174
a(S'Marco Listanti'
p6175
I1
tp6176
a(S'Constantinos Dovrolis'
p6177
I1
tp6178
a(S'Errin W. Fulp'
p6179
I1
tp6180
a(S'Rui Valadas'
p6181
I1
tp6182
asS'Ke Xu'
p6183
(lp6184
(S'Daniel Massey'
p6185
I3
tp6186
a(S'Lixia Zhang'
p6187
I3
tp6188
a(S'Dan Pei'
p6189
I3
tp6190
a(S'Matt Azuma'
p6191
I3
tp6192
a(S'John Squires'
p6193
I2
tp6194
a(S'Phillip De Bondi'
p6195
I2
tp6196
a(S'Bruce H. Thomas'
p6197
I2
tp6198
a(S'Wayne Piekarski'
p6199
I2
tp6200
a(S'Christophe Diot'
p6201
I2
tp6202
a(S'Manuel M. Oliveira'
p6203
I2
tp6204
a(S'Jon Crowcroft'
p6205
I2
tp6206
a(S'John Donoghue'
p6207
I2
tp6208
a(S'Benjamin Close'
p6209
I2
tp6210
a(S'Chengzhi Li'
p6211
I1
tp6212
a(S'Ashutosh Sabharwal'
p6213
I1
tp6214
a(S'Li Xiao'
p6215
I1
tp6216
a(S'Bobby Bhattacharjee'
p6217
I1
tp6218
a(S'Ian F. Akyildiz'
p6219
I1
tp6220
a(S'Young-Min Kang'
p6221
I1
tp6222
a(S'Benny Sudakov'
p6223
I1
tp6224
a(S'Michael Krivelevich'
p6225
I1
tp6226
a(S'Wayne E. Huang'
p6227
I1
tp6228
a(S'Ingo Schmitt'
p6229
I1
tp6230
a(S'Hariharan Krishnan'
p6231
I1
tp6232
a(S'Vikram Kanodia'
p6233
I1
tp6234
a(S'Yaling Yang'
p6235
I1
tp6236
a(S'Luca Deri'
p6237
I1
tp6238
a(S'J. W. Roberts'
p6239
I1
tp6240
a(S'S\xc3\xb6ren Balko'
p6241
I1
tp6242
a(S'Chong-kwon Kim'
p6243
I1
tp6244
a(S'Siddhartha K. Goel'
p6245
I1
tp6246
a(S'Jayendra S. Parikh'
p6247
I1
tp6248
a(S'Nikolaos Anerousis'
p6249
I1
tp6250
a(S'James W. Hong'
p6251
I1
tp6252
a(S'Suman Banerjee'
p6253
I1
tp6254
a(S'Vittorio Castelli'
p6255
I1
tp6256
a(S'Gavin Holland'
p6257
I1
tp6258
a(S'Kaushik R. Chowdhury'
p6259
I1
tp6260
a(S'Edward W. Knightly'
p6261
I1
tp6262
a(S'Gunter Saake'
p6263
I1
tp6264
a(S'Kwok-Kee Wei'
p6265
I1
tp6266
a(S'Byung-Gon Chun'
p6267
I1
tp6268
a(S'Mary Baker'
p6269
I1
tp6270
a(S'Alexander Thomasian'
p6271
I1
tp6272
a(S'Jong-Deok Kim'
p6273
I1
tp6274
a(S'Van H. Vu'
p6275
I1
tp6276
a(S'Tommaso Melodia'
p6277
I1
tp6278
a(S'Bahareh Sadeghi'
p6279
I1
tp6280
a(S'Sung-Uk Park'
p6281
I1
tp6282
a(S'Jean-Philippe Martin-Flatin'
p6283
I1
tp6284
a(S'Chung-Sheng Li'
p6285
I1
tp6286
a(S'Tamer A. ElBatt'
p6287
I1
tp6288
a(S'Jun Wang'
p6289
I1
tp6290
a(S'Klara Nahrstedt'
p6291
I1
tp6292
a(S'Christopher Kommareddy'
p6293
I1
tp6294
a(S'Jong-Tae Park'
p6295
I1
tp6296
asS'Paolo Soda'
p6297
(lp6298
(S'Ralf Klinkenberg'
p6299
I2
tp6300
asS'Marcelo Dias de Amorim'
p6301
(lp6302
(S'Ian F. Akyildiz'
p6303
I5
tp6304
a(S'Xudong Wang'
p6305
I4
tp6306
a(S'Weilin Wang'
p6307
I4
tp6308
a(S'Olov Schel\xc3\xa9n'
p6309
I3
tp6310
a(S'Avri Doria'
p6311
I3
tp6312
a(S'Anders Lindgren'
p6313
I3
tp6314
a(S'Paul Castro'
p6315
I2
tp6316
a(S'W. Steven Conner'
p6317
I2
tp6318
a(S'Silvia Giordano'
p6319
I2
tp6320
a(S'Jean-Yves Le Boudec'
p6321
I2
tp6322
a(S'Apratim Purakayastha'
p6323
I2
tp6324
a(S'David R. Choffnes'
p6325
I2
tp6326
a(S'Shahram Ghandeharizadeh'
p6327
I2
tp6328
a(S'Mark D. Yarvis'
p6329
I2
tp6330
a(S'Jasmeet Chhabra'
p6331
I2
tp6332
a(S'Bhaskar Krishnamachari'
p6333
I2
tp6334
a(S'Lakshman Krishnamurthy'
p6335
I2
tp6336
a(S'Michael J. Franklin'
p6337
I2
tp6338
a(S'Fabi\xc3\xa1n E. Bustamante'
p6339
I2
tp6340
a(S'Ljubica Blazevic'
p6341
I2
tp6342
a(S'Matthew Denny'
p6343
I2
tp6344
a(S'Shyam Kapadia'
p6345
I2
tp6346
a(S'Raymie Stata'
p6347
I1
tp6348
a(S'Andrew Tomkins'
p6349
I1
tp6350
a(S'Farzin Maghoul'
p6351
I1
tp6352
a(S'Yogesh Sankarasubramaniam'
p6353
I1
tp6354
a(S'Jos\xc3\xa9 Neuman de Souza'
p6355
I1
tp6356
a(S'Janet L. Wiener'
p6357
I1
tp6358
a(S'Prabhakar Raghavan'
p6359
I1
tp6360
a(S'Erdal Cayirci'
p6361
I1
tp6362
a(S'Matei Ripeanu'
p6363
I1
tp6364
a(S'Sridhar Rajagopalan'
p6365
I1
tp6366
a(S'Bruno Schulze'
p6367
I1
tp6368
a(S'Andrei Z. Broder'
p6369
I1
tp6370
a(S'Ravi Kumar'
p6371
I1
tp6372
a(S'Scott Shenker'
p6373
I1
tp6374
a(S'Colin Cooper'
p6375
I1
tp6376
a(S'Catherine S. Greenhill'
p6377
I1
tp6378
a(S'Elias Proc\xc3\xb3pio Duarte Jr.'
p6379
I1
tp6380
a(S'Lisandro Zambenedetti Granville'
p6381
I1
tp6382
a(S'Adriana Iamnitchi'
p6383
I1
tp6384
a(S'Richard M. Karp'
p6385
I1
tp6386
a(S'Martin E. Dyer'
p6387
I1
tp6388
a(S'Edmundo Roberto Mauro Madeira'
p6389
I1
tp6390
a(S'Sylvia Ratnasamy'
p6391
I1
tp6392
a(S'Mark Handley'
p6393
I1
tp6394
a(S'Weilian Su'
p6395
I1
tp6396
a(S'Ian T. Foster'
p6397
I1
tp6398
a(S'Luciano Paschoal Gaspary'
p6399
I1
tp6400
a(S'Joseph D. Touch'
p6401
I1
tp6402
asS'Davide Careglio'
p6403
(lp6404
(S'Raouf Boutaba'
p6405
I3
tp6406
a(S'Kee Chaing Chua'
p6407
I3
tp6408
a(S'W. Szeto'
p6409
I3
tp6410
a(S'Youssef Iraqi'
p6411
I3
tp6412
a(S'Marco Listanti'
p6413
I2
tp6414
a(S'Siok Kheng Tan'
p6415
I2
tp6416
a(S'G. Mohan'
p6417
I2
tp6418
a(S'Andrea Detti'
p6419
I2
tp6420
a(S'Douglas S. Reeves'
p6421
I1
tp6422
a(S'Robert Haas'
p6423
I1
tp6424
a(S'Minh Hoang Ph\xc3\xb9ng'
p6425
I1
tp6426
a(S'Daniel Bauer'
p6427
I1
tp6428
a(S'Erik Van Breusegem'
p6429
I1
tp6430
a(S'Tung Chong Wong'
p6431
I1
tp6432
a(S'Mario Pickavet'
p6433
I1
tp6434
a(S'Ant\xc3\xb3nio Pacheco'
p6435
I1
tp6436
a(S'Patrick Droz'
p6437
I1
tp6438
a(S'Jan Cheyns'
p6439
I1
tp6440
a(S'Davy De Winter'
p6441
I1
tp6442
a(S'Paulo Salvador'
p6443
I1
tp6444
a(S'Joris Moreau'
p6445
I1
tp6446
a(S'Peng Yong Kong'
p6447
I1
tp6448
a(S'Didier Colle'
p6449
I1
tp6450
a(S'Piet Demeester'
p6451
I1
tp6452
a(S'Gurusamy Mohan'
p6453
I1
tp6454
a(S'Mehul Motani'
p6455
I1
tp6456
a(S'Errin W. Fulp'
p6457
I1
tp6458
a(S'Rui Valadas'
p6459
I1
tp6460
asS'Pin-Han Ho'
p6461
(lp6462
(S'Craig A. Knoblock'
p6463
I1
tp6464
a(S'Thomas Karagiannis'
p6465
I1
tp6466
a(S'Budhaditya Deb'
p6467
I1
tp6468
a(S'Adrian Perrig'
p6469
I1
tp6470
a(S'Yogesh Sankarasubramaniam'
p6471
I1
tp6472
a(S'Ian F. Akyildiz'
p6473
I1
tp6474
a(S'Scott Campbell'
p6475
I1
tp6476
a(S'Subbu N. Subramanian'
p6477
I1
tp6478
a(S'Weilian Su'
p6479
I1
tp6480
a(S'Sudeept Bhatnagar'
p6481
I1
tp6482
a(S'Levente Butty\xc3\xa1n'
p6483
I1
tp6484
a(S'Shweta Bhandare'
p6485
I1
tp6486
a(S'Hanxi Zhang'
p6487
I1
tp6488
a(S'Michalis Faloutsos'
p6489
I1
tp6490
a(S'Wendi Rabiner Heinzelman'
p6491
I1
tp6492
a(S'Parag Namjoshi'
p6493
I1
tp6494
a(S'Majid Ghaderi'
p6495
I1
tp6496
a(S'Sameer Tilak'
p6497
I1
tp6498
a(S'Chun-Nan Hsu'
p6499
I1
tp6500
a(S'Gregor von Bochmann'
p6501
I1
tp6502
a(S'Badri Nath'
p6503
I1
tp6504
a(S'Konstantinos Kalpakis'
p6505
I1
tp6506
a(S'Erdal Cayirci'
p6507
I1
tp6508
a(S'David B. Johnson'
p6509
I1
tp6510
a(S'Arak Sutivong'
p6511
I1
tp6512
a(S'Fereidoon Sadri'
p6513
I1
tp6514
a(S'Michel Savoie'
p6515
I1
tp6516
a(S'Bill St. Arnaud'
p6517
I1
tp6518
a(S'Jean-Pierre Hubaux'
p6519
I1
tp6520
a(S'Nael B. Abu-Ghazaleh'
p6521
I1
tp6522
a(S'Mart Molle'
p6523
I1
tp6524
a(S'Timothy X. Brown'
p6525
I1
tp6526
a(S'Jing Wu'
p6527
I1
tp6528
a(S'Yih-Chun Hu'
p6529
I1
tp6530
a(S'Koustuv Dasgupta'
p6531
I1
tp6532
a(S'Sheetalkumar Doshi'
p6533
I1
tp6534
a(S'Laks V. S. Lakshmanan'
p6535
I1
tp6536
a(S'Jon M. Peha'
p6537
I1
tp6538
asS'Matthias Templ'
p6539
(lp6540
sS'Claudio Bettini'
p6541
(lp6542
(S'Pierangela Samarati'
p6543
I7
tp6544
a(S'Maria Luisa Sapino'
p6545
I4
tp6546
a(S'Christos Efstratiou'
p6547
I4
tp6548
a(S'Nigel Davies'
p6549
I4
tp6550
a(S'V. S. Subrahmanian'
p6551
I4
tp6552
a(S'Keith Cheverst'
p6553
I4
tp6554
a(S'Christian S. Jensen'
p6555
I3
tp6556
a(S'Lalitha Suryanarayana'
p6557
I2
tp6558
a(S'Alexander Brodsky'
p6559
I2
tp6560
a(S'Csilla Farkas'
p6561
I2
tp6562
a(S'John S. Davis II'
p6563
I2
tp6564
a(S'Johan Hjelm'
p6565
I2
tp6566
a(S'Jani M\xc3\xa4ntyj\xc3\xa4rvi'
p6567
I2
tp6568
a(S'Albrecht Schmidt'
p6569
I2
tp6570
a(S'Gianpaolo Cugola'
p6571
I2
tp6572
a(S'Daby M. Sow'
p6573
I2
tp6574
a(S'Fosca Giannotti'
p6575
I2
tp6576
a(S'Hans-Arno Jacobsen'
p6577
I2
tp6578
a(S'Antti Takaluoma'
p6579
I2
tp6580
a(S'Keith Mitchell'
p6581
I2
tp6582
a(S'Adrian Friday'
p6583
I2
tp6584
a(S'Guruduth Banavar'
p6585
I2
tp6586
a(S'Maria Ebling'
p6587
I2
tp6588
a(S'Hui Lei'
p6589
I2
tp6590
a(S'Zhexuan Song'
p6591
I1
tp6592
a(S'Simonas Saltenis'
p6593
I1
tp6594
a(S'Takahiko Shintani'
p6595
I1
tp6596
a(S'Mike Sips'
p6597
I1
tp6598
a(S'Chih-hsin Hsu'
p6599
I1
tp6600
a(S'Joel H. Saltz'
p6601
I1
tp6602
a(S'Jim Challenger'
p6603
I1
tp6604
a(S'Yufei Tao'
p6605
I1
tp6606
a(S'Wen-Chih Peng'
p6607
I1
tp6608
a(S'Wei-jen Hsu'
p6609
I1
tp6610
a(S'J\xc3\xb6rn Schneidewind'
p6611
I1
tp6612
a(S'Hae Don Chon'
p6613
I1
tp6614
a(S'Giuseppe Manco'
p6615
I1
tp6616
a(S'Stardas Pakalnis'
p6617
I1
tp6618
a(S'Jean-Fran\xc3\xa7ois Boulicaut'
p6619
I1
tp6620
a(S'Divyakant Agrawal'
p6621
I1
tp6622
a(S'R. J. Honicky'
p6623
I1
tp6624
a(S'George Kollios'
p6625
I1
tp6626
a(S'Melissa Ho'
p6627
I1
tp6628
a(S'Davood Rafiei'
p6629
I1
tp6630
a(S'Michael J. Demmer'
p6631
I1
tp6632
a(S'Michael H. B\xc3\xb6hlen'
p6633
I1
tp6634
a(S'Olov Schel\xc3\xa9n'
p6635
I1
tp6636
a(S'Ian Tian Yi Li'
p6637
I1
tp6638
a(S'Ke Wang'
p6639
I1
tp6640
a(S'Dimitrios Gunopulos'
p6641
I1
tp6642
a(S'Haw-wei Shu'
p6643
I1
tp6644
a(S'Maria Rita Scalas'
p6645
I1
tp6646
a(S'Marios Hadjieleftheriou'
p6647
I1
tp6648
a(S'Dimitris Papadias'
p6649
I1
tp6650
a(S'Anders Lindgren'
p6651
I1
tp6652
a(S'Dan Lin'
p6653
I1
tp6654
a(S'Kashyap Merchant'
p6655
I1
tp6656
a(S'Qiang Yang'
p6657
I1
tp6658
a(S'Daniel M. Dias'
p6659
I1
tp6660
a(S'Alberto O. Mendelzon'
p6661
I1
tp6662
a(S'H. V. Jagadish'
p6663
I1
tp6664
a(S'Franco Turini'
p6665
I1
tp6666
a(S'Christos Faloutsos'
p6667
I1
tp6668
a(S'Amr El Abbadi'
p6669
I1
tp6670
a(S'Tristan Henderson'
p6671
I1
tp6672
a(S'Duncan J. Watts'
p6673
I1
tp6674
a(S'Richard T. Snodgrass'
p6675
I1
tp6676
a(S'Alminas Civilis'
p6677
I1
tp6678
a(S'Iko Pramudiono'
p6679
I1
tp6680
a(S'Joyojeet Pal'
p6681
I1
tp6682
a(S'Federica Mandreoli'
p6683
I1
tp6684
a(S'Marvin McNett'
p6685
I1
tp6686
a(S'Baptiste Jeudy'
p6687
I1
tp6688
a(S'Beng Chin Ooi'
p6689
I1
tp6690
a(S'Arun Iyengar'
p6691
I1
tp6692
a(S'\xc3\x96zg\xc3\xbcr Ulusoy'
p6693
I1
tp6694
a(S'Fabio Grandi'
p6695
I1
tp6696
a(S'Ming-Syan Chen'
p6697
I1
tp6698
a(S'Y\xc3\xbccel Saygin'
p6699
I1
tp6700
a(S'Paul Dantzig'
p6701
I1
tp6702
a(S'Daniel A. Keim'
p6703
I1
tp6704
a(S'Alex Delis'
p6705
I1
tp6706
a(S'Eric A. Brewer'
p6707
I1
tp6708
a(S'Ahmed Helmy'
p6709
I1
tp6710
a(S'Madelaine Plauch\xc3\xa9'
p6711
I1
tp6712
a(S'David Kotz'
p6713
I1
tp6714
a(S'Nick Roussopoulos'
p6715
I1
tp6716
a(S'Dino Pedreschi'
p6717
I1
tp6718
a(S'Jun Zhang'
p6719
I1
tp6720
a(S'Vassilis J. Tsotras'
p6721
I1
tp6722
a(S'Avri Doria'
p6723
I1
tp6724
a(S'Geoffrey M. Voelker'
p6725
I1
tp6726
a(S'Masaru Kitsuregawa'
p6727
I1
tp6728
a(S'Bongki Moon'
p6729
I1
tp6730
a(S'Sonesh Surana'
p6731
I1
tp6732
a(S'Katsumi Takahashi'
p6733
I1
tp6734
as.