(dp0
S'Lionel C. Briand'
p1
(lp2
sS'Zhang Yi'
p3
(lp4
(S'Pierangela Samarati'
p5
I95
tp6
a(S'Scott Shenker'
p7
I74
tp8
a(S'Philip S. Yu'
p9
I61
tp10
a(S'Sushil Jajodia'
p11
I42
tp12
a(S'Richard M. Karp'
p13
I28
tp14
a(S'V. S. Subrahmanian'
p15
I23
tp16
a(S'Maria Luisa Sapino'
p17
I20
tp18
a(S'Timos K. Sellis'
p19
I18
tp20
a(S'Ling Liu'
p21
I18
tp22
a(S'Kun-Lung Wu'
p23
I18
tp24
a(S'Ben Shneiderman'
p25
I16
tp26
a(S'Sylvia Ratnasamy'
p27
I14
tp28
a(S'Yannis Theodoridis'
p29
I14
tp30
a(S'Wei-Ying Ma'
p31
I14
tp32
a(S'Mark Handley'
p33
I14
tp34
a(S'Krithi Ramamritham'
p35
I12
tp36
a(S'Xiaofeng Liao'
p37
I12
tp38
a(S'Arun Iyengar'
p39
I12
tp40
a(S'Guanrong Chen'
p41
I11
tp42
a(S'Emmanuel Stefanakis'
p43
I11
tp44
a(S'Michael Dahlin'
p45
I9
tp46
a(S'Mingjing Li'
p47
I8
tp48
a(S'Mark P. Joy'
p49
I8
tp50
a(S'Fred Douglis'
p51
I7
tp52
a(S'Edgar N. Sanchez'
p53
I7
tp54
a(S'Lakshmish Ramaswamy'
p55
I6
tp56
a(S'Madhukar R. Korupolu'
p57
I5
tp58
a(S'Prashant J. Shenoy'
p59
I5
tp60
a(S'Hui Zhang'
p61
I4
tp62
a(S'Jiandan Zheng'
p63
I4
tp64
a(S'Amol Nayate'
p65
I4
tp66
a(S'Lei Gao'
p67
I4
tp68
a(S'Renu Tewari'
p69
I4
tp70
a(S'Xing Xie'
p71
I4
tp72
a(S'Xingfu Zou'
p73
I3
tp74
a(S'Lin Wang'
p75
I3
tp76
a(S'Zhiwei Li'
p77
I3
tp78
a(S'C. M. Heng'
p79
I2
tp80
a(S'Tong Heng Lee'
p81
I2
tp82
a(S'Xin Fan'
p83
I2
tp84
a(S'Kay Chen Tan'
p85
I2
tp86
a(S'Yu Chen'
p87
I2
tp88
a(S'Eik Fun Khor'
p89
I1
tp90
a(S'Jason E. Fritts'
p91
I1
tp92
a(S'Rouhollah Rahmani'
p93
I1
tp94
a(S'Wen-Lin Yang'
p95
I1
tp96
a(S'Ji Cai'
p97
I1
tp98
a(S'Anoop George Ninan'
p99
I1
tp100
a(S'Sally A. Goldman'
p101
I1
tp102
a(S'Zheng Zhang'
p103
I1
tp104
a(S'John Krettek'
p105
I1
tp106
a(S'Purushottam Kulkarni'
p107
I1
tp108
a(S'Chun Yuan'
p109
I1
tp110
asS'Mengjie Zhang'
p111
(lp112
(S'Wayne Wobcke'
p113
I5
tp114
a(S'Marc Chee'
p115
I1
tp116
a(S'Krystian Ji'
p117
I1
tp118
asS'Daniel Camps-Mur'
p119
(lp120
(S'Hannes Hartenstein'
p121
I59
tp122
a(S'Christian Bettstetter'
p123
I46
tp124
a(S'Xavier P\xc3\xa9rez Costa'
p125
I22
tp126
a(S'Albert Banchs'
p127
I6
tp128
a(S'Albert Vidal'
p129
I4
tp130
a(S'Ignacio Soto'
p131
I2
tp132
a(S'Carlos Jesus Bernardos'
p133
I1
tp134
a(S'Antonio de la Oliva'
p135
I1
tp136
a(S'Telemaco Melia'
p137
I1
tp138
asS'Florentin Ipate'
p139
(lp140
(S'Mario J. P\xc3\xa9rez-Jim\xc3\xa9nez'
p141
I45
tp142
a(S'Rudolf Freund'
p143
I18
tp144
a(S'Sergey Verlan'
p145
I18
tp146
a(S'Fernando Sancho-Caparrini'
p147
I18
tp148
a(S'\xc3\x81lvaro Romero Jim\xc3\xa9nez'
p149
I18
tp150
a(S'Petr Sos\xc3\xadk'
p151
I9
tp152
a(S'Matteo Cavaliere'
p153
I6
tp154
a(S'Ioan I. Ardelean'
p155
I3
tp156
asS'Daniele Riboni'
p157
(lp158
(S'Pierangela Samarati'
p159
I95
tp160
a(S'Sushil Jajodia'
p161
I42
tp162
a(S'V. S. Subrahmanian'
p163
I23
tp164
a(S'Maria Luisa Sapino'
p165
I20
tp166
a(S'Albrecht Schmidt'
p167
I18
tp168
a(S'Nigel Davies'
p169
I14
tp170
a(S'Arun Iyengar'
p171
I12
tp172
a(S'Keith Cheverst'
p173
I10
tp174
a(S'Csilla Farkas'
p175
I9
tp176
a(S'Hans-Arno Jacobsen'
p177
I9
tp178
a(S'Alexander Brodsky'
p179
I7
tp180
a(S'Hui Lei'
p181
I7
tp182
a(S'Adrian Friday'
p183
I7
tp184
a(S'Christos Efstratiou'
p185
I6
tp186
a(S'Gianpaolo Cugola'
p187
I6
tp188
a(S'Keith Mitchell'
p189
I6
tp190
a(S'Daniel M. Dias'
p191
I6
tp192
a(S'Maria Ebling'
p193
I5
tp194
a(S'Paul Dantzig'
p195
I4
tp196
a(S'Daby M. Sow'
p197
I4
tp198
a(S'John S. Davis II'
p199
I4
tp200
a(S'Jim Challenger'
p201
I4
tp202
a(S'Guruduth Banavar'
p203
I4
tp204
a(S'Jani M\xc3\xa4ntyj\xc3\xa4rvi'
p205
I3
tp206
a(S'Antti Takaluoma'
p207
I2
tp208
a(S'Lalitha Suryanarayana'
p209
I1
tp210
a(S'Johan Hjelm'
p211
I1
tp212
asS'H\xc3\xa5vard Rue'
p213
(lp214
(S'Sylvia Fr\xc3\xbchwirth-Schnatter'
p215
I17
tp216
a(S'H\xc3\xa5vard Rue'
p217
I13
tp218
a(S'Rudolf Fr\xc3\xbchwirth'
p219
I10
tp220
a(S'Fred Godtliebsen'
p221
I5
tp222
a(S'Tor Arne \xc3\x98ig\xc3\xa5rd'
p223
I3
tp224
a(S'Christopher J. Paciorek'
p225
I3
tp226
a(S'Cheolwoo Park'
p227
I2
tp228
a(S'J. S. Marron'
p229
I2
tp230
a(S'Jo\xc3\xa3o Ricardo Sato'
p231
I1
tp232
a(S'Murad S. Taqqu'
p233
I1
tp234
a(S'Edson Amaro Jr.'
p235
I1
tp236
a(S'Pedro Alberto Morettin'
p237
I1
tp238
a(S'Paula R. Arantes'
p239
I1
tp240
a(S'Alan M. Polansky'
p241
I1
tp242
a(S'Stilian Stoev'
p243
I1
tp244
asS'Luigi Iannone'
p245
(lp246
(S'Nitin H. Vaidya'
p247
I66
tp248
a(S'Yu-Chee Tseng'
p249
I53
tp250
a(S'Jang-Ping Sheu'
p251
I28
tp252
a(S'Young-Bae Ko'
p253
I22
tp254
a(S'Yuh-Shyan Chen'
p255
I22
tp256
a(S'Sze-Yao Ni'
p257
I22
tp258
a(S'Clarence Filsfils'
p259
I16
tp260
a(S'John Evans'
p261
I16
tp262
a(S'Christopher Metz'
p263
I15
tp264
a(S'Katia Obraczka'
p265
I13
tp266
a(S'Suresh Singh'
p267
I12
tp268
a(S'Seung-Chul M. Woo'
p269
I11
tp270
a(S'Jean-Yves Le Boudec'
p271
I9
tp272
a(S'Gene Tsudik'
p273
I9
tp274
a(S'Silvia Giordano'
p275
I9
tp276
a(S'Ljubica Blazevic'
p277
I8
tp278
a(S'Serge Fdida'
p279
I8
tp280
a(S'Catherine Rosenberg'
p281
I6
tp282
a(S'Kumar Viswanath'
p283
I6
tp284
a(S'Steve Uhlig'
p285
I5
tp286
a(S'Jos\xc3\xa9 Ferreira de Rezende'
p287
I4
tp288
a(S'Marcelo Dias de Amorim'
p289
I4
tp290
a(S'Cristel Pelsser'
p291
I3
tp292
a(S'Olivier Bonaventure'
p293
I3
tp294
a(S'Brian Daugherty'
p295
I2
tp296
a(S'Aline Carneiro Viana'
p297
I2
tp298
a(S'Aravind Iyer'
p299
I2
tp300
a(S'Jianping Wu'
p301
I1
tp302
a(S'Bruno Quoitin'
p303
I1
tp304
a(S'Yong Cui'
p305
I1
tp306
a(S'Chris Metz'
p307
I1
tp308
a(S'Mingwei Xu'
p309
I1
tp310
a(S'Xing Li'
p311
I1
tp312
asS'Sherali Zeadally'
p313
(lp314
(S'Wil M. P. van der Aalst'
p315
I161
tp316
a(S'Pierangela Samarati'
p317
I95
tp318
a(S'Boualem Benatallah'
p319
I55
tp320
a(S'Sushil Jajodia'
p321
I42
tp322
a(S'Arthur H. M. ter Hofstede'
p323
I42
tp324
a(S'Daniel A. Menasc\xc3\xa9'
p325
I39
tp326
a(S'Bartek Kiepuszewski'
p327
I35
tp328
a(S'Alistair P. Barros'
p329
I35
tp330
a(S'Johannes Gehrke'
p331
I32
tp332
a(S'Marlon Dumas'
p333
I31
tp334
a(S'Francisco Curbera'
p335
I30
tp336
a(S'Kian-Lee Tan'
p337
I30
tp338
a(S'Rania Khalaf'
p339
I29
tp340
a(S'Quan Z. Sheng'
p341
I29
tp342
a(S'Matthew J. Duftler'
p343
I27
tp344
a(S'Sanjiva Weerawarana'
p345
I26
tp346
a(S'Nirmal Mukhi'
p347
I26
tp348
a(S'William Nagy'
p349
I26
tp350
a(S'V. S. Subrahmanian'
p351
I23
tp352
a(S'Beng Chin Ooi'
p353
I22
tp354
a(S'Fabio Casati'
p355
I21
tp356
a(S'Athman Bouguettaya'
p357
I21
tp358
a(S'Maria Luisa Sapino'
p359
I20
tp360
a(S'Raghu Ramakrishnan'
p361
I16
tp362
a(S'Zakaria Maamar'
p363
I16
tp364
a(S'Mourad Ouzzani'
p365
I15
tp366
a(S'Farouk Toumani'
p367
I10
tp368
a(S'Soraya Kouadri Most\xc3\xa9faoui'
p369
I10
tp370
a(S'Hamdi Yahyaoui'
p371
I10
tp372
a(S'Venkatesh Ganti'
p373
I10
tp374
a(S'Brahim Medjahed'
p375
I8
tp376
a(S'Byunggu Yu'
p377
I5
tp378
a(S'Cheng Hian Goh'
p379
I5
tp380
a(S'Abdelmounaam Rezgui'
p381
I4
tp382
a(S'Agnes Lim'
p383
I3
tp384
a(S'Mario A. Lopez'
p385
I3
tp386
a(S'Ratko Orlandic'
p387
I3
tp388
a(S'Scott T. Leutenegger'
p389
I3
tp390
a(S'William C. Regli'
p391
I2
tp392
a(S'Patricia Florissi'
p393
I1
tp394
a(S'Jonathan Sevy'
p395
I1
tp396
a(S'Yechiam Yemini'
p397
I1
tp398
a(S'Danilo Florissi'
p399
I1
tp400
a(S'Saikou Y. Diallo'
p401
I1
tp402
a(S'David T. McWherter'
p403
I1
tp404
a(S'Andreas Tolk'
p405
I1
tp406
asS'Daniele Miorandi'
p407
(lp408
(S'Ian F. Akyildiz'
p409
I358
tp410
a(S'Weilian Su'
p411
I189
tp412
a(S'Erdal Cayirci'
p413
I187
tp414
a(S'Yogesh Sankarasubramaniam'
p415
I183
tp416
a(S'Hannes Hartenstein'
p417
I59
tp418
a(S'Christian Bettstetter'
p419
I46
tp420
a(S'Yuguang Fang'
p421
I40
tp422
a(S'Prathima Agrawal'
p423
I37
tp424
a(S'Krishna M. Sivalingam'
p425
I37
tp426
a(S'Jyh-Cheng Chen'
p427
I37
tp428
a(S'Olov Schel\xc3\xa9n'
p429
I36
tp430
a(S'Avri Doria'
p431
I36
tp432
a(S'Anders Lindgren'
p433
I36
tp434
a(S'Christine E. Jones'
p435
I31
tp436
a(S'Eitan Altman'
p437
I27
tp438
a(S'Saad Haj Bakry'
p439
I27
tp440
a(S'Bo Li'
p441
I24
tp442
a(S'Marco Conti'
p443
I24
tp444
a(S'Xavier P\xc3\xa9rez Costa'
p445
I22
tp446
a(S'Enrico Gregori'
p447
I20
tp448
a(S'Hongqiang Zhai'
p449
I15
tp450
a(S'R. Srikant'
p451
I12
tp452
a(S'Younggoo Kwon'
p453
I12
tp454
a(S'Raffaele Bruno'
p455
I11
tp456
a(S'Tamer Basar'
p457
I10
tp458
a(S'Tansu Alpcan'
p459
I10
tp460
a(S'Michel Mandjes'
p461
I6
tp462
a(S'Bin Li'
p463
I6
tp464
a(S'Jorma T. Virtamo'
p465
I5
tp466
a(S'Esa Hyyti\xc3\xa4'
p467
I5
tp468
a(S'Peter L. Reiher'
p469
I5
tp470
a(S'Arup Acharya'
p471
I5
tp472
a(S'Anup Kumar Talukdar'
p473
I4
tp474
a(S'Anna Scaglione'
p475
I4
tp476
a(S'B. R. Badrinath'
p477
I4
tp478
a(S'Xi-Ren Cao'
p479
I4
tp480
a(S'Lizhong Li'
p481
I4
tp482
a(S'Yijie Han'
p483
I3
tp484
a(S'Seungjoon Lee'
p485
I3
tp486
a(S'Guido H. Petit'
p487
I3
tp488
a(S'Danny De Vleeschauwer'
p489
I3
tp490
a(S'Jan Janssen'
p491
I3
tp492
a(S'Armand M. Makowski'
p493
I3
tp494
a(S'Richard J. La'
p495
I3
tp496
a(S'Maarten B\xc3\xbcchli'
p497
I3
tp498
a(S'G\xc3\xb6khan Mergen'
p499
I2
tp500
a(S'Birsen Sirkeci Mergen'
p501
I2
tp502
a(S'Nam T. Nguyen'
p503
I2
tp504
a(S'An-I Andy Wang'
p505
I2
tp506
a(S'Nidhi Hegde'
p507
I2
tp508
a(S'Geoffrey H. Kuenning'
p509
I2
tp510
a(S'Gilles Berger-Sabbatel'
p511
I1
tp512
a(S'Chien-Chao Tseng'
p513
I1
tp514
a(S'Franck Rousseau'
p515
I1
tp516
a(S'Ren-Shiou Liu'
p517
I1
tp518
a(S'Tsan-Pin Wang'
p519
I1
tp520
a(S'Leyla Toumi'
p521
I1
tp522
a(S'Gwo-Chuan Lee'
p523
I1
tp524
a(S'Andrzej Duda'
p525
I1
tp526
a(S'Judith M. Myerson'
p527
I1
tp528
a(S'J. Antonio Garc\xc3\xada-Mac\xc3\xadas'
p529
I1
tp530
asS'Frank Kargl'
p531
(lp532
(S'Hannes Hartenstein'
p533
I59
tp534
a(S'Christian Bettstetter'
p535
I46
tp536
a(S'Daniel Jiang'
p537
I25
tp538
a(S'Marc Torrent-Moreno'
p539
I24
tp540
a(S'Xavier P\xc3\xa9rez Costa'
p541
I22
tp542
a(S'Raja Sengupta'
p543
I21
tp544
a(S'Philippe Golle'
p545
I18
tp546
a(S'Daniel H. Greene'
p547
I18
tp548
a(S'Jessica Staddon'
p549
I18
tp550
a(S'Qing Xu'
p551
I17
tp552
a(S'Tony K. Mak'
p553
I15
tp554
a(S'Jeff Ko'
p555
I15
tp556
a(S'Burkhard Stiller'
p557
I6
tp558
a(S'Peter Reichl'
p559
I5
tp560
a(S'Jan Gerke'
p561
I2
tp562
a(S'Placi Flury'
p563
I2
tp564
asS'Naixue Xiong'
p565
(lp566
(S'Songwu Lu'
p567
I27
tp568
a(S'Ben Y. Zhao'
p569
I20
tp570
a(S'Karl Aberer'
p571
I20
tp572
a(S'Manfred Hauswirth'
p573
I16
tp574
a(S'Roman Schmidt'
p575
I13
tp576
a(S'Chris Wells'
p577
I8
tp578
a(S'Dennis Geels'
p579
I8
tp580
a(S'Magdalena Punceva'
p581
I8
tp582
a(S'Sean C. Rhea'
p583
I8
tp584
a(S'Patrick R. Eaton'
p585
I8
tp586
a(S'John Kubiatowicz'
p587
I8
tp588
a(S'Hakim Weatherspoon'
p589
I8
tp590
a(S'Vaduvur Bharghavan'
p591
I1
tp592
a(S'Thyagarajan Nandagopal'
p593
I1
tp594
asS'Yurii Rogozhin'
p595
(lp596
(S'Rudolf Freund'
p597
I18
tp598
a(S'Franziska Freund'
p599
I1
tp600
asS'Albert Cabellos-Aparicio'
p601
(lp602
(S'Saad Haj Bakry'
p603
I27
tp604
a(S'Abdulmohsen A. Alheraish'
p605
I3
tp606
a(S'Bassam Al-Bassam'
p607
I3
tp608
a(S'Patrick Droz'
p609
I1
tp610
a(S'Robert Haas'
p611
I1
tp612
a(S'Daniel Bauer'
p613
I1
tp614
asS'Edwin M. M. Ortega'
p615
(lp616
(S'Gilberto A. Paula'
p617
I35
tp618
a(S'N. Balakrishnan'
p619
I29
tp620
a(S'Debasis Kundu'
p621
I26
tp622
a(S'Edwin M. M. Ortega'
p623
I24
tp624
a(S'H. K. T. Ng'
p625
I15
tp626
a(S'Heleno Bolfarine'
p627
I11
tp628
a(S'John Geweke'
p629
I6
tp630
a(S'Jos\xc3\xa9 G. Dias'
p631
I3
tp632
a(S'Michel Wedel'
p633
I3
tp634
asS'Rudolf Freund'
p635
(lp636
(S'Mario J. P\xc3\xa9rez-Jim\xc3\xa9nez'
p637
I45
tp638
a(S'\xc3\x81lvaro Romero Jim\xc3\xa9nez'
p639
I18
tp640
a(S'Fernando Sancho-Caparrini'
p641
I18
tp642
a(S'Gheorghe Paun'
p643
I13
tp644
a(S'Tseren-Onolt Ishdorj'
p645
I11
tp646
a(S'Andrei Paun'
p647
I10
tp648
a(S'Mihai Ionescu'
p649
I9
tp650
a(S'Haiming Chen'
p651
I8
tp652
asS'Imrich Chlamtac'
p653
(lp654
(S'Ian F. Akyildiz'
p655
I358
tp656
a(S'Weilian Su'
p657
I189
tp658
a(S'Erdal Cayirci'
p659
I187
tp660
a(S'Yogesh Sankarasubramaniam'
p661
I183
tp662
a(S'Scott Shenker'
p663
I74
tp664
a(S'Nitin H. Vaidya'
p665
I66
tp666
a(S'Yu-Chee Tseng'
p667
I53
tp668
a(S'Xudong Wang'
p669
I45
tp670
a(S'Weilin Wang'
p671
I40
tp672
a(S'Daniel A. Menasc\xc3\xa9'
p673
I39
tp674
a(S'Daqing Zhang'
p675
I39
tp676
a(S'Krishna M. Sivalingam'
p677
I37
tp678
a(S'Jyh-Cheng Chen'
p679
I37
tp680
a(S'Prathima Agrawal'
p681
I37
tp682
a(S'Olov Schel\xc3\xa9n'
p683
I36
tp684
a(S'Anders Lindgren'
p685
I36
tp686
a(S'Avri Doria'
p687
I36
tp688
a(S'Hari Balakrishnan'
p689
I34
tp690
a(S'Rajeev Motwani'
p691
I34
tp692
a(S'Alex Pentland'
p693
I33
tp694
a(S'Nathan Eagle'
p695
I32
tp696
a(S'Christine E. Jones'
p697
I31
tp698
a(S'Hung Keng Pung'
p699
I30
tp700
a(S'Kee Chaing Chua'
p701
I30
tp702
a(S'Tao Gu'
p703
I29
tp704
a(S'Richard M. Karp'
p705
I28
tp706
a(S'Jang-Ping Sheu'
p707
I28
tp708
a(S'Saad Haj Bakry'
p709
I27
tp710
a(S'Andrew T. Campbell'
p711
I26
tp712
a(S'Daniel Jiang'
p713
I25
tp714
a(S'Marco Conti'
p715
I24
tp716
a(S'Yuh-Shyan Chen'
p717
I22
tp718
a(S'Sze-Yao Ni'
p719
I22
tp720
a(S'David Kotz'
p721
I22
tp722
a(S'Enrico Gregori'
p723
I20
tp724
a(S'Antonio Capone'
p725
I20
tp726
a(S'Prasant Mohapatra'
p727
I19
tp728
a(S'Y. C. Tay'
p729
I19
tp730
a(S'Robin Kravets'
p731
I19
tp732
a(S'Mayur Datar'
p733
I17
tp734
a(S'Gavin Holland'
p735
I17
tp736
a(S'Matteo Cesana'
p737
I16
tp738
a(S'Jennifer Widom'
p739
I15
tp740
a(S'Mani B. Srivastava'
p741
I15
tp742
a(S'Zhi-Hua Zhou'
p743
I15
tp744
a(S'Chiara Petrioli'
p745
I15
tp746
a(S'Sylvia Ratnasamy'
p747
I14
tp748
a(S'Elke A. Rundensteiner'
p749
I14
tp750
a(S'Mark Handley'
p751
I14
tp752
a(S'Mahmoud Naghshineh'
p753
I13
tp754
a(S'Chatschik Bisdikian'
p755
I13
tp756
a(S'Edoardo Amaldi'
p757
I13
tp758
a(S'Javier Gomez'
p759
I13
tp760
a(S'Tarek N. Saadawi'
p761
I12
tp762
a(S'Andrea Passarella'
p763
I12
tp764
a(S'Federico Malucelli'
p765
I12
tp766
a(S'Thomas Niessen'
p767
I11
tp768
a(S'Raffaele Bruno'
p769
I11
tp770
a(S'Stefano Basagni'
p771
I11
tp772
a(S'P. Krishnan'
p773
I10
tp774
a(S'Rudolf Mathar'
p775
I10
tp776
a(S'Shugong Xu'
p777
I10
tp778
a(S'Giuseppe Anastasi'
p779
I9
tp780
a(S'Yi-Bing Lin'
p781
I9
tp782
a(S'Vikas Taliwal'
p783
I8
tp784
a(S'Ming Li'
p785
I8
tp786
a(S'Ilario Filippini'
p787
I8
tp788
a(S'Emanuel Melachrinoudis'
p789
I7
tp790
a(S'Alessio Carosi'
p791
I7
tp792
a(S'Christian F. Tschudin'
p793
I7
tp794
a(S'Erik Nordstr\xc3\xb6m'
p795
I7
tp796
a(S'Z. Maria Wang'
p797
I7
tp798
a(S'Henrik Lundgren'
p799
I6
tp800
a(S'Yong Liu'
p801
I6
tp802
a(S'Arvind Arasu'
p803
I6
tp804
a(S'Bezalel Gavish'
p805
I6
tp806
a(S'Athanassios Boulis'
p807
I6
tp808
a(S'Luca Delgrossi'
p809
I6
tp810
a(S'Qi Chen'
p811
I6
tp812
a(S'Shivnath Babu'
p813
I6
tp814
a(S'Suresh Sridhar'
p815
I6
tp816
a(S'Brian Babcock'
p817
I6
tp818
a(S'Keith Ito'
p819
I5
tp820
a(S'Utkarsh Srivastava'
p821
I5
tp822
a(S'Itaru Nishizawa'
p823
I5
tp824
a(S'Fabio Panzieri'
p825
I5
tp826
a(S'Dilys Thomas'
p827
I5
tp828
a(S'Rohit Varma'
p829
I5
tp830
a(S'Apratim Purakayastha'
p831
I5
tp832
a(S'Myung J. Lee'
p833
I4
tp834
a(S'Ronny Krashinsky'
p835
I4
tp836
a(S'Ai-Chun Pang'
p837
I3
tp838
a(S'Santosh K. Shrivastava'
p839
I3
tp840
a(S'David B. Ingham'
p841
I3
tp842
a(S'Chao Gui'
p843
I3
tp844
a(S'Roger M. Whitaker'
p845
I3
tp846
a(S'Kazuhiro Minami'
p847
I2
tp848
a(S'Franca Delmastro'
p849
I2
tp850
a(S'Jason Flinn'
p851
I2
tp852
a(S'Norman H. Cohen'
p853
I2
tp854
a(S'Manish Anand'
p855
I2
tp856
a(S'Luke Wong'
p857
I2
tp858
a(S'Danny L. Yeh'
p859
I2
tp860
a(S'Edmund B. Nightingale'
p861
I2
tp862
a(S'Murali Mani'
p863
I1
tp864
a(S'Judith M. Myerson'
p865
I1
tp866
a(S'Hsien-Ming Tsai'
p867
I1
tp868
a(S'Cristina Martello'
p869
I1
tp870
a(S'Steve Hurley'
p871
I1
tp872
a(S'Francesca Cuomo'
p873
I1
tp874
a(S'Paul Lettieri'
p875
I1
tp876
a(S'Andrea Baiocchi'
p877
I1
tp878
a(S'Yung-Chun Lin'
p879
I1
tp880
a(S'Xuhui Hu'
p881
I1
tp882
a(S'Larry Raisanen'
p883
I1
tp884
a(S'Hong Su'
p885
I1
tp886
asS'Mark Johnston'
p887
(lp888
(S'Nathalie Japkowicz'
p889
I12
tp890
a(S'Shaju Stephen'
p891
I12
tp892
asS'Alberto Leporati'
p893
(lp894
(S'Ian F. Akyildiz'
p895
I358
tp896
a(S'Mehmet C. Vuran'
p897
I68
tp898
a(S'Shantidev Mohanty'
p899
I56
tp900
a(S'Won-Yeol Lee'
p901
I56
tp902
a(S'Mario J. P\xc3\xa9rez-Jim\xc3\xa9nez'
p903
I45
tp904
a(S'Jun Wang'
p905
I30
tp906
a(S'Sergey Verlan'
p907
I18
tp908
a(S'Rudolf Freund'
p909
I18
tp910
a(S'Fernando Sancho-Caparrini'
p911
I18
tp912
a(S'\xc3\x81lvaro Romero Jim\xc3\xa9nez'
p913
I18
tp914
a(S'Gheorghe Paun'
p915
I13
tp916
a(S'Jinde Cao'
p917
I12
tp918
a(S'Xiaofeng Liao'
p919
I12
tp920
a(S'Tseren-Onolt Ishdorj'
p921
I11
tp922
a(S'Andrei Paun'
p923
I10
tp924
a(S'Mihai Ionescu'
p925
I9
tp926
a(S'Youshen Xia'
p927
I9
tp928
a(S'Petr Sos\xc3\xadk'
p929
I9
tp930
a(S'Hongtao Lu'
p931
I8
tp932
a(S'Zongben Xu'
p933
I8
tp934
a(S'Hong Qiao'
p935
I8
tp936
a(S'Haiming Chen'
p937
I8
tp938
a(S'Jigen Peng'
p939
I8
tp940
a(S'Kwok-Wo Wong'
p941
I7
tp942
a(S'R\xc3\xa9jean Plamondon'
p943
I7
tp944
a(S'Zhigang Zeng'
p945
I7
tp946
a(S'Chunhua Feng'
p947
I7
tp948
a(S'Matteo Cavaliere'
p949
I6
tp950
a(S'Jun Yang'
p951
I6
tp952
a(S'J\xc3\xb6rg Liebeherr'
p953
I3
tp954
a(S'Chunguang Li'
p955
I3
tp956
a(S'Xingfu Zou'
p957
I3
tp958
a(S'Lin Wang'
p959
I3
tp960
a(S'Ioan I. Ardelean'
p961
I3
tp962
a(S'Zhidong Teng'
p963
I2
tp964
a(S'Haijun Jiang'
p965
I2
tp966
a(S'Bin Zhao'
p967
I1
tp968
a(S'Jianping Wang'
p969
I1
tp970
a(S'Mehbuba Rehim'
p971
I1
tp972
a(S'Chengnian Long'
p973
I1
tp974
a(S'Xinping Guan'
p975
I1
tp976
a(S'Stephen D. Patek'
p977
I1
tp978
a(S'Haiyong Wang'
p979
I1
tp980
asS'Gy\xc3\xb6rgy Vaszil'
p981
(lp982
(S'Mario J. P\xc3\xa9rez-Jim\xc3\xa9nez'
p983
I45
tp984
a(S'Gheorghe Paun'
p985
I13
tp986
a(S'Tseren-Onolt Ishdorj'
p987
I11
tp988
a(S'Andrei Paun'
p989
I10
tp990
a(S'Mihai Ionescu'
p991
I9
tp992
a(S'Haiming Chen'
p993
I8
tp994
asS'Ingrid Moerman'
p995
(lp996
(S'Roger Dingledine'
p997
I10
tp998
a(S'Andrei Serjantov'
p999
I8
tp1000
a(S'Paul F. Syverson'
p1001
I7
tp1002
asS'Dimitrios Katsaros'
p1003
(lp1004
(S'Dimitris Papadias'
p1005
I92
tp1006
a(S'Yufei Tao'
p1007
I66
tp1008
a(S'Martin Mauve'
p1009
I63
tp1010
a(S'Philip S. Yu'
p1011
I61
tp1012
a(S'Hannes Hartenstein'
p1013
I59
tp1014
a(S'Nikos Mamoulis'
p1015
I43
tp1016
a(S'Christos Faloutsos'
p1017
I43
tp1018
a(S'Christian Lochert'
p1019
I39
tp1020
a(S'Christian S. Jensen'
p1021
I38
tp1022
a(S'Dimitrios Gunopulos'
p1023
I35
tp1024
a(S'Rajeev Motwani'
p1025
I34
tp1026
a(S'Francisco Curbera'
p1027
I30
tp1028
a(S'Rania Khalaf'
p1029
I29
tp1030
a(S'Liviu Iftode'
p1031
I28
tp1032
a(S'Matthew J. Duftler'
p1033
I27
tp1034
a(S'Sanjiva Weerawarana'
p1035
I26
tp1036
a(S'William Nagy'
p1037
I26
tp1038
a(S'Nirmal Mukhi'
p1039
I26
tp1040
a(S'Nick Koudas'
p1041
I25
tp1042
a(S'Jun Zhang'
p1043
I23
tp1044
a(S'Dan Suciu'
p1045
I22
tp1046
a(S'Sudipto Guha'
p1047
I21
tp1048
a(S'Tamer Nadeem'
p1049
I20
tp1050
a(S'Timos K. Sellis'
p1051
I18
tp1052
a(S'Kun-Lung Wu'
p1053
I18
tp1054
a(S'Holger F\xc3\xbc\xc3\x9fler'
p1055
I17
tp1056
a(S'Mayur Datar'
p1057
I17
tp1058
a(S'Chunyuan Liao'
p1059
I15
tp1060
a(S'Dmitri V. Kalashnikov'
p1061
I15
tp1062
a(S'Sasan Dashtinezhad'
p1063
I15
tp1064
a(S'Yannis Theodoridis'
p1065
I14
tp1066
a(S'Christian B\xc3\xb6hm'
p1067
I14
tp1068
a(S'Adam Meyerson'
p1069
I13
tp1070
a(S'S. Muthukrishnan'
p1071
I13
tp1072
a(S'Sukho Lee'
p1073
I13
tp1074
a(S'Sunil Prabhakar'
p1075
I13
tp1076
a(S'Flip Korn'
p1077
I13
tp1078
a(S'Ramesh K. Sitaraman'
p1079
I13
tp1080
a(S"Liadan O'Callaghan"
p1081
I13
tp1082
a(S'Nina Mishra'
p1083
I13
tp1084
a(S'Piotr Indyk'
p1085
I12
tp1086
a(S'Krithi Ramamritham'
p1087
I12
tp1088
a(S'John Dilley'
p1089
I11
tp1090
a(S'Anindya Datta'
p1091
I11
tp1092
a(S'George Kollios'
p1093
I11
tp1094
a(S'Harald Prokop'
p1095
I11
tp1096
a(S'Emmanuel Stefanakis'
p1097
I11
tp1098
a(S'Bruce M. Maggs'
p1099
I11
tp1100
a(S'Jay Parikh'
p1101
I11
tp1102
a(S'William E. Weihl'
p1103
I11
tp1104
a(S'Sangjun Lee'
p1105
I10
tp1106
a(S'Nina T. Bhatti'
p1107
I10
tp1108
a(S'Anna Bouch'
p1109
I10
tp1110
a(S'Dongseop Kwon'
p1111
I10
tp1112
a(S'Eric A. Brewer'
p1113
I10
tp1114
a(S'Allan Kuchinsky'
p1115
I10
tp1116
a(S'Stefan Berchtold'
p1117
I9
tp1118
a(S'\xc3\x96zg\xc3\xbcr Ulusoy'
p1119
I9
tp1120
a(S'Bernd-Uwe Pagel'
p1121
I9
tp1122
a(S'Marios Hadjieleftheriou'
p1123
I8
tp1124
a(S'Debra E. VanderMeer'
p1125
I8
tp1126
a(S'Kaushik Dutta'
p1127
I8
tp1128
a(S'Graham Cormode'
p1129
I8
tp1130
a(S'Mingyan Liu'
p1131
I8
tp1132
a(S'Alex Delis'
p1133
I8
tp1134
a(S'Vassilis J. Tsotras'
p1135
I8
tp1136
a(S'Enrique J. Duarte-Melo'
p1137
I8
tp1138
a(S'Peter Triantafillou'
p1139
I7
tp1140
a(S'Susanne E. Hambrusch'
p1141
I7
tp1142
a(S'Helen M. Thomas'
p1143
I7
tp1144
a(S'Fred Douglis'
p1145
I7
tp1146
a(S'Stardas Pakalnis'
p1147
I6
tp1148
a(S'Alminas Civilis'
p1149
I6
tp1150
a(S'Chung-Min Chen'
p1151
I4
tp1152
a(S'Gultekin \xc3\x96zsoyoglu'
p1153
I4
tp1154
a(S'Ying Guang Li'
p1155
I4
tp1156
a(S'Z. Meral \xc3\x96zsoyoglu'
p1157
I4
tp1158
a(S'Stavros Christodoulakis'
p1159
I4
tp1160
a(S'Nevzat Hurkan Balkir'
p1161
I4
tp1162
a(S'Zo\xc3\xa9 Lacroix'
p1163
I4
tp1164
a(S'Kenneth C. Sevcik'
p1165
I4
tp1166
a(S'St\xc3\xa9phane Bressan'
p1167
I4
tp1168
a(S'Guido Proietti'
p1169
I3
tp1170
a(S'Shyh-Kwei Chen'
p1171
I3
tp1172
a(S'Mario A. Lopez'
p1173
I3
tp1174
a(S'Ullas Nambiar'
p1175
I3
tp1176
a(S'Scott T. Leutenegger'
p1177
I3
tp1178
a(S'Mong-Li Lee'
p1179
I3
tp1180
a(S'Christian Schwingenschl\xc3\xb6gl'
p1181
I2
tp1182
a(S'M. Frans Kaashoek'
p1183
I2
tp1184
a(S'Timothy Kosch'
p1185
I2
tp1186
a(S'Costas Georgiadis'
p1187
I2
tp1188
a(S'Ibrahim Korpeoglu'
p1189
I2
tp1190
a(S'Rakesh K. Sinha'
p1191
I2
tp1192
a(S'Murat Karakaya'
p1193
I2
tp1194
a(S'Wonik Choi'
p1195
I2
tp1196
a(S'Thomas Papadakis'
p1197
I1
tp1198
a(S'Nikos Karayannidis'
p1199
I1
tp1200
asS'Jehoshua Bruck'
p1201
(lp1202
sS'Jian Chen'
p1203
(lp1204
(S'Wil M. P. van der Aalst'
p1205
I161
tp1206
a(S'Laura Maruster'
p1207
I51
tp1208
a(S'Arthur H. M. ter Hofstede'
p1209
I42
tp1210
a(S'Ian T. Foster'
p1211
I41
tp1212
a(S'Hector Garcia-Molina'
p1213
I37
tp1214
a(S'Dimitrios Gunopulos'
p1215
I35
tp1216
a(S'J. Leon Zhao'
p1217
I35
tp1218
a(S'Bartek Kiepuszewski'
p1219
I35
tp1220
a(S'A. J. M. M. Weijters'
p1221
I35
tp1222
a(S'Alistair P. Barros'
p1223
I35
tp1224
a(S'Boudewijn F. van Dongen'
p1225
I33
tp1226
a(S'Johannes Gehrke'
p1227
I32
tp1228
a(S'Thad Starner'
p1229
I31
tp1230
a(S'Michael N. Huhns'
p1231
I31
tp1232
a(S'Matei Ripeanu'
p1233
I29
tp1234
a(S'Stefan Decker'
p1235
I29
tp1236
a(S'Divyakant Agrawal'
p1237
I28
tp1238
a(S'Kyuseok Shim'
p1239
I28
tp1240
a(S'Joachim Herbst'
p1241
I27
tp1242
a(S'Michel C. A. Klein'
p1243
I26
tp1244
a(S'Dieter Fensel'
p1245
I25
tp1246
a(S'Sudha Ram'
p1247
I24
tp1248
a(S'Guido Schimm'
p1249
I24
tp1250
a(S'Akhil Kumar'
p1251
I23
tp1252
a(S'Adriana Iamnitchi'
p1253
I23
tp1254
a(S'Sergey Melnik'
p1255
I23
tp1256
a(S'Dickson K. W. Chiu'
p1257
I22
tp1258
a(S'Eleanna Kafeza'
p1259
I22
tp1260
a(S'Amit Basu'
p1261
I21
tp1262
a(S'Edward A. Stohr'
p1263
I20
tp1264
a(S'Rajeev Rastogi'
p1265
I20
tp1266
a(S'Sanjay Gosain'
p1267
I19
tp1268
a(S'Mathias Weske'
p1269
I18
tp1270
a(S'Frank van Harmelen'
p1271
I18
tp1272
a(S'Edward Y. Chang'
p1273
I18
tp1274
a(S'Ian Horrocks'
p1275
I17
tp1276
a(S'Subhash Suri'
p1277
I16
tp1278
a(S'Munindar P. Singh'
p1279
I16
tp1280
a(S'Rakesh Agrawal'
p1281
I16
tp1282
a(S'Daniel Ashbrook'
p1283
I15
tp1284
a(S'Jeen Broekstra'
p1285
I15
tp1286
a(S'Robert W. Blanning'
p1287
I13
tp1288
a(S'Roberto J. Bayardo Jr.'
p1289
I13
tp1290
a(S'Michael Erdmann'
p1291
I12
tp1292
a(S'Hai Zhuge'
p1293
I10
tp1294
a(S'Chen Li'
p1295
I10
tp1296
a(S'Monika Rauch Henzinger'
p1297
I10
tp1298
a(S'Sandeep Purao'
p1299
I9
tp1300
a(S'Therani Madhusudan'
p1301
I9
tp1302
a(S'Gio Wiederhold'
p1303
I8
tp1304
a(S'Vwani P. Roychowdhury'
p1305
I8
tp1306
a(S'Mung Chiang'
p1307
I8
tp1308
a(S'Aphrodite Tsalgatidou'
p1309
I7
tp1310
a(S'Nima Sarshar'
p1311
I7
tp1312
a(S'Holger Boche'
p1313
I7
tp1314
a(S'P. Oscar Boykin'
p1315
I6
tp1316
a(S'Hyerim Bae'
p1317
I6
tp1318
a(S'James T. Kwok'
p1319
I6
tp1320
a(S'Martin Schubert'
p1321
I6
tp1322
a(S'Thomi Pilioura'
p1323
I5
tp1324
a(S'William K. Cheung'
p1325
I4
tp1326
a(S'Alexander Thomasian'
p1327
I4
tp1328
a(S'Xue Chen'
p1329
I4
tp1330
a(S'Jie Liu'
p1331
I4
tp1332
a(S'Jenny X. Li'
p1333
I4
tp1334
a(S'Gary L. Mullen'
p1335
I4
tp1336
a(S'Henry H. Bi'
p1337
I4
tp1338
a(S'Xiaoping Sun'
p1339
I4
tp1340
a(S'Erlin Yao'
p1341
I4
tp1342
a(S'Vittorio Castelli'
p1343
I4
tp1344
a(S'Mark Lycett'
p1345
I3
tp1346
a(S'David Bell'
p1347
I3
tp1348
a(S'Patrick C. K. Hung'
p1349
I3
tp1350
a(S'Yiming Hu'
p1351
I3
tp1352
a(S'Yongsun Choi'
p1353
I3
tp1354
a(S'Antonio Merico'
p1355
I3
tp1356
a(S'Raymond K. Wong'
p1357
I3
tp1358
a(S'Karthikeyan Umapathy'
p1359
I3
tp1360
a(S'Seung-Hyun Rhee'
p1361
I3
tp1362
a(S'Nicola Iacovelli'
p1363
I3
tp1364
a(S'Samuel P. M. Choi'
p1365
I3
tp1366
a(S'Sergio de Cesare'
p1367
I3
tp1368
a(S'Daniel Kifer'
p1369
I3
tp1370
a(S'Cristian Bucila'
p1371
I3
tp1372
a(S'Walker M. White'
p1373
I3
tp1374
a(S'W. W. Fung'
p1375
I2
tp1376
a(S'Anshul Kothari'
p1377
I2
tp1378
a(S'Darren J. Kerbyson'
p1379
I2
tp1380
a(S'Phillipa Oaks'
p1381
I2
tp1382
a(S'Joshua C. C. Pun'
p1383
I2
tp1384
a(S'R. H. Grimwood'
p1385
I2
tp1386
a(S'Vivying S. Y. Cheng'
p1387
I2
tp1388
a(S'Efstathios Papaefstathiou'
p1389
I2
tp1390
a(S'Chung-Sheng Li'
p1391
I2
tp1392
a(S'Abhishek Gupta'
p1393
I2
tp1394
a(S'Taher H. Haveliwala'
p1395
I2
tp1396
a(S'Guido Wirtz'
p1397
I2
tp1398
a(S'Yingwu Zhu'
p1399
I2
tp1400
a(S'Graham R. Nudd'
p1401
I2
tp1402
a(S'Holger Giese'
p1403
I2
tp1404
a(S'S. C. Perry'
p1405
I2
tp1406
a(S'Przemyslaw Kosowski'
p1407
I1
tp1408
a(S'Honghao Wang'
p1409
I1
tp1410
a(S'Alicja Smoktunowicz'
p1411
I1
tp1412
a(S'Akhilesh Bajaj'
p1413
I1
tp1414
asS'Dickson K. W. Chiu'
p1415
(lp1416
(S'Wil M. P. van der Aalst'
p1417
I161
tp1418
a(S'Pierangela Samarati'
p1419
I95
tp1420
a(S'Sushil Jajodia'
p1421
I42
tp1422
a(S'Huan Liu'
p1423
I38
tp1424
a(S'Christian S. Jensen'
p1425
I38
tp1426
a(S'Kian-Lee Tan'
p1427
I30
tp1428
a(S'Kamalakar Karlapalem'
p1429
I24
tp1430
a(S'Akhil Kumar'
p1431
I23
tp1432
a(S'V. S. Subrahmanian'
p1433
I23
tp1434
a(S'Amit Basu'
p1435
I21
tp1436
a(S'Maria Luisa Sapino'
p1437
I20
tp1438
a(S'Mathias Weske'
p1439
I18
tp1440
a(S'Roman Slowinski'
p1441
I17
tp1442
a(S'Manoranjan Dash'
p1443
I16
tp1444
a(S'Hai Zhuge'
p1445
I10
tp1446
a(S'H. M. W. (Eric) Verbeek'
p1447
I8
tp1448
a(S'Daniel Vanderpooten'
p1449
I8
tp1450
a(S'Nikola Milanovic'
p1451
I7
tp1452
a(S'Miroslaw Malek'
p1453
I7
tp1454
a(S'Peter Scheuermann'
p1455
I6
tp1456
a(S'Alminas Civilis'
p1457
I6
tp1458
a(S'Stardas Pakalnis'
p1459
I6
tp1460
a(S'Pabitra Mitra'
p1461
I5
tp1462
a(S'Sankar K. Pal'
p1463
I5
tp1464
a(S'Ana Simonet'
p1465
I3
tp1466
a(S'F. Javier Lerch'
p1467
I3
tp1468
a(S'Ladjel Bellatreche'
p1469
I3
tp1470
a(S'Peter R. Wurman'
p1471
I3
tp1472
a(S'Donald E. Harter'
p1473
I3
tp1474
a(S'Themis Panayiotopoulos'
p1475
I2
tp1476
a(S'Nanjangud C. Narendra'
p1477
I2
tp1478
a(S'Nick Z. Zacharis'
p1479
I2
tp1480
a(S'Y. Y. Yao'
p1481
I2
tp1482
a(S'Shensheng Zhang'
p1483
I1
tp1484
a(S'Jinmin Hu'
p1485
I1
tp1486
a(S'Pawan Lingras'
p1487
I1
tp1488
a(S'Jianxun Liu'
p1489
I1
tp1490
asS'Ritu Agarwal'
p1491
(lp1492
(S'Varun Grover'
p1493
I93
tp1494
a(S'Vivek Choudhury'
p1495
I85
tp1496
a(S'Viswanath Venkatesh'
p1497
I79
tp1498
a(S'Rajiv Sabherwal'
p1499
I66
tp1500
a(S'Ephraim R. McLean'
p1501
I65
tp1502
a(S'Lorin M. Hitt'
p1503
I59
tp1504
a(S'Jonathan W. Palmer'
p1505
I37
tp1506
a(S'Kar Yan Tam'
p1507
I36
tp1508
a(S'James Y. L. Thong'
p1509
I35
tp1510
a(S'M. Lynne Markus'
p1511
I34
tp1512
a(S'V. Sambamurthy'
p1513
I31
tp1514
a(S'Dorothy E. Leidner'
p1515
I24
tp1516
a(S'Jay Nunamaker Jr.'
p1517
I23
tp1518
a(S'Laurie J. Kirsch'
p1519
I22
tp1520
a(S'Weiyin Hong'
p1521
I20
tp1522
a(S'Wonseok Oh'
p1523
I20
tp1524
a(S'D. J. Wu'
p1525
I20
tp1526
a(S'Yi-Shun Wang'
p1527
I19
tp1528
a(S'Kevin E. Dow'
p1529
I18
tp1530
a(S'Kun Shin Im'
p1531
I18
tp1532
a(S'Xiaoge Zhou'
p1533
I18
tp1534
a(S'Amrit Tiwana'
p1535
I17
tp1536
a(S'Robert G. Fichman'
p1537
I17
tp1538
a(S'Souren Paul'
p1539
I16
tp1540
a(S'Pei-Yu Sharon Chen'
p1541
I16
tp1542
a(S'Timothy R. Kayworth'
p1543
I16
tp1544
a(S'Judy E. Scott'
p1545
I16
tp1546
a(S'Matthew K. O. Lee'
p1547
I15
tp1548
a(S'Robert W. Zmud'
p1549
I14
tp1550
a(S'J. Alberto Espinosa'
p1551
I12
tp1552
a(S'Christy M. K. Cheung'
p1553
I12
tp1554
a(S'Debabroto Chatterjee'
p1555
I11
tp1556
a(S'Carl Pacini'
p1557
I11
tp1558
a(S'Peter P. Mykytyn Jr.'
p1559
I10
tp1560
a(S'Raquel Benbunan-Fich'
p1561
I10
tp1562
a(S'Henry C. Lucas Jr.'
p1563
I9
tp1564
a(S'Priya Seetharaman'
p1565
I9
tp1566
a(S'Imad Samarah'
p1567
I9
tp1568
a(S'Bruce W. Weber'
p1569
I9
tp1570
a(S'Zhaohui Chen'
p1571
I9
tp1572
a(S'Ing-Long Wu'
p1573
I8
tp1574
a(S'Hayward P. Andres'
p1575
I7
tp1576
a(S'Mitzi M. Montoya-Weiss'
p1577
I7
tp1578
a(S'Yannis Bakos'
p1579
I7
tp1580
a(S'Anne P. Massey'
p1581
I7
tp1582
a(S'Hsinchun Chen'
p1583
I6
tp1584
a(S'Jeanne M. Wilson'
p1585
I6
tp1586
a(S'Yu-Ting Caisy Hung'
p1587
I6
tp1588
a(S'Jonathon N. Cummings'
p1589
I6
tp1590
a(S'Brandi M. Pearce'
p1591
I6
tp1592
a(S'David J. Pauleen'
p1593
I5
tp1594
a(S'Siva Viswanathan'
p1595
I4
tp1596
a(S'Scott A. Moore'
p1597
I3
tp1598
a(S'Gary Simon'
p1599
I3
tp1600
a(S'J. B. Arbaugh'
p1601
I3
tp1602
a(S'Nicholas C. Romano Jr.'
p1603
I3
tp1604
a(S'Christina Donovan'
p1605
I2
tp1606
asS'Michel Gendreau'
p1607
(lp1608
(S'Zvi Drezner'
p1609
I1
tp1610
asS'Hsing Kenneth Cheng'
p1611
(lp1612
(S'Sudha Ram'
p1613
I24
tp1614
a(S'Salvatore T. March'
p1615
I17
tp1616
a(S'Alan R. Hevner'
p1617
I11
tp1618
a(S'Gary J. Koehler'
p1619
I7
tp1620
a(S'Martin W. P. Savelsbergh'
p1621
I7
tp1622
a(S'Joni L. Jones'
p1623
I6
tp1624
a(S'Sven de Vries'
p1625
I5
tp1626
a(S'Rakesh V. Vohra'
p1627
I5
tp1628
a(S'George L. Nemhauser'
p1629
I3
tp1630
a(S'Ellis L. Johnson'
p1631
I3
tp1632
asS'Piet Van Mieghem'
p1633
(lp1634
(S'Scott Shenker'
p1635
I74
tp1636
a(S'Adrian Perrig'
p1637
I73
tp1638
a(S'David B. Johnson'
p1639
I56
tp1640
a(S'Yu-Chee Tseng'
p1641
I53
tp1642
a(S'Ramesh Govindan'
p1643
I48
tp1644
a(S'Deborah Estrin'
p1645
I47
tp1646
a(S'Deepak Ganesan'
p1647
I39
tp1648
a(S'Yih-Chun Hu'
p1649
I38
tp1650
a(S'Eitan Altman'
p1651
I27
tp1652
a(S'Chi-Fu Huang'
p1653
I20
tp1654
a(S'Piet Van Mieghem'
p1655
I18
tp1656
a(S'Fernando A. Kuipers'
p1657
I6
tp1658
a(S'Marwan Krunz'
p1659
I6
tp1660
a(S'Hans De Neve'
p1661
I6
tp1662
a(S'Turgay Korkmaz'
p1663
I4
tp1664
a(S'Chadi Barakat'
p1665
I3
tp1666
asS'Murat Yuksel'
p1667
(lp1668
(S'Scott Shenker'
p1669
I74
tp1670
a(S'Richard M. Karp'
p1671
I28
tp1672
a(S'Raouf Boutaba'
p1673
I26
tp1674
a(S'Edwin K. P. Chong'
p1675
I26
tp1676
a(S'Clarence Filsfils'
p1677
I16
tp1678
a(S'John Evans'
p1679
I16
tp1680
a(S'Sylvia Ratnasamy'
p1681
I14
tp1682
a(S'Mark Handley'
p1683
I14
tp1684
a(S'Youssef Iraqi'
p1685
I12
tp1686
a(S'Douglas S. Reeves'
p1687
I9
tp1688
a(S'Costas Courcoubetis'
p1689
I9
tp1690
a(S'Burkhard Stiller'
p1691
I6
tp1692
a(S'Errin W. Fulp'
p1693
I6
tp1694
a(S'Tianshu Li'
p1695
I5
tp1696
a(S'Peter Reichl'
p1697
I5
tp1698
a(S'Chung-Min Chen'
p1699
I4
tp1700
a(S'Robert Givan'
p1701
I4
tp1702
a(S'Uday Savagaonkar'
p1703
I3
tp1704
a(S'George C. Polyzos'
p1705
I2
tp1706
a(S'David Hausheer'
p1707
I2
tp1708
a(S'Kien A. Hua'
p1709
I2
tp1710
a(S'Rakesh K. Sinha'
p1711
I2
tp1712
a(S'Yu-lung Lo'
p1713
I1
tp1714
a(S'Sergios Soursos'
p1715
I1
tp1716
a(S'Honesty C. Young'
p1717
I1
tp1718
asS'Hsinchun Chen'
p1719
(lp1720
(S'Wil M. P. van der Aalst'
p1721
I161
tp1722
a(S'Paul A. Pavlou'
p1723
I86
tp1724
a(S'Viswanath Venkatesh'
p1725
I79
tp1726
a(S'David Gefen'
p1727
I76
tp1728
a(S'Elisa Bertino'
p1729
I64
tp1730
a(S'Sirkka L. Jarvenpaa'
p1731
I59
tp1732
a(S'Ahmed K. Elmagarmid'
p1733
I58
tp1734
a(S'Young-Gul Kim'
p1735
I55
tp1736
a(S'Michael Vitale'
p1737
I54
tp1738
a(S'Laura Maruster'
p1739
I51
tp1740
a(S'Chang Liu'
p1741
I48
tp1742
a(S'Ritu Agarwal'
p1743
I45
tp1744
a(S'Noam Tractinsky'
p1745
I45
tp1746
a(S'Vassilios S. Verykios'
p1747
I40
tp1748
a(S'J. Leon Zhao'
p1749
I35
tp1750
a(S'A. J. M. M. Weijters'
p1751
I35
tp1752
a(S'Ji-Won Moon'
p1753
I33
tp1754
a(S'Boudewijn F. van Dongen'
p1755
I33
tp1756
a(S'John Ingham'
p1757
I32
tp1758
a(S'Pierre Collerette'
p1759
I32
tp1760
a(S'Paul Legris'
p1761
I32
tp1762
a(S'V. Sambamurthy'
p1763
I31
tp1764
a(S'Y\xc3\xbccel Saygin'
p1765
I28
tp1766
a(S'Joachim Herbst'
p1767
I27
tp1768
a(S'Elena Dasseni'
p1769
I26
tp1770
a(S'Erkki Oja'
p1771
I26
tp1772
a(S'Aapo Hyv\xc3\xa4rinen'
p1773
I24
tp1774
a(S'Dorothy E. Leidner'
p1775
I24
tp1776
a(S'Guido Schimm'
p1777
I24
tp1778
a(S'Akhil Kumar'
p1779
I23
tp1780
a(S'Sung S. Kim'
p1781
I21
tp1782
a(S'Naresh K. Malhotra'
p1783
I21
tp1784
a(S'Maryam Alavi'
p1785
I21
tp1786
a(S'Amit Basu'
p1787
I21
tp1788
a(S'Edward A. Stohr'
p1789
I20
tp1790
a(S'Waiman Cheung'
p1791
I19
tp1792
a(S'Yi-Shun Wang'
p1793
I19
tp1794
a(S'Man Kit Chang'
p1795
I18
tp1796
a(S'Hillol Kargupta'
p1797
I18
tp1798
a(S'James Agarwal'
p1799
I18
tp1800
a(S'Chun-Sheng Yu'
p1801
I17
tp1802
a(S'Gert-Jan de Vreede'
p1803
I17
tp1804
a(S'George M. Marakas'
p1805
I17
tp1806
a(S'Roman Slowinski'
p1807
I17
tp1808
a(S'June Lu'
p1809
I17
tp1810
a(S'John Mingers'
p1811
I16
tp1812
a(S'Starr Roxanne Hiltz'
p1813
I16
tp1814
a(S'Cynthia K. Riemenschneider'
p1815
I15
tp1816
a(S'David A. Harrison'
p1817
I14
tp1818
a(S'Ralph M. Stair'
p1819
I13
tp1820
a(S'Robert O. Briggs'
p1821
I12
tp1822
a(S'Valerie K. Spitler'
p1823
I11
tp1824
a(S'Bill C. Hardgrave'
p1825
I11
tp1826
a(S'Christian Wagner'
p1827
I11
tp1828
a(S'Peter P. Mykytyn Jr.'
p1829
I10
tp1830
a(S'Jung-Yu Lai'
p1831
I10
tp1832
a(S'Chorng-Shyong Ong'
p1833
I10
tp1834
a(S'Jerry Fjermestad'
p1835
I10
tp1836
a(S'Henry C. Lucas Jr.'
p1837
I9
tp1838
a(S'Daniel Vanderpooten'
p1839
I8
tp1840
a(S'Rajendra P. Srivastava'
p1841
I8
tp1842
a(S'Richard D. Johnson'
p1843
I8
tp1844
a(S'Theodore J. Mock'
p1845
I6
tp1846
a(S'Daniel W. Manchala'
p1847
I6
tp1848
a(S'Byung-Hoon Park'
p1849
I6
tp1850
a(S'Sankar K. Pal'
p1851
I5
tp1852
a(S'Pabitra Mitra'
p1853
I5
tp1854
a(S'Kent A. Walstrom'
p1855
I5
tp1856
a(S'Eric L. Santanen'
p1857
I4
tp1858
a(S'Douglas R. Vogel'
p1859
I3
tp1860
a(S'Chao-Ton Su'
p1861
I3
tp1862
a(S'Ning Zhong'
p1863
I3
tp1864
a(S'Ron Chi-Wai Kwok'
p1865
I3
tp1866
a(S'Carol E. Pollard'
p1867
I2
tp1868
a(S'Nancy Walters Coppola'
p1869
I2
tp1870
a(S'Jyh-Hwa Hsu'
p1871
I2
tp1872
a(S'Jaana Porra'
p1873
I2
tp1874
a(S'Jian Ma'
p1875
I2
tp1876
a(S'Naomi Rotter'
p1877
I2
tp1878
a(S'Stephen C. Hayne'
p1879
I2
tp1880
a(S'Michael R. Baumann'
p1881
I1
tp1882
a(S'Louis C. K. Ma'
p1883
I1
tp1884
a(S'Muneaki Ohshima'
p1885
I1
tp1886
a(S'Ronald E. Rice'
p1887
I1
tp1888
a(S'David C. Wilkins'
p1889
I1
tp1890
a(S'Yiyu Yao'
p1891
I1
tp1892
a(S'Patrick L. Wadlington'
p1893
I1
tp1894
a(S'Janet A. Sniezek'
p1895
I1
tp1896
a(S'Harri Oinas-Kukkonen'
p1897
I1
tp1898
a(S'Melissa Cole'
p1899
I1
tp1900
a(S"Robert M. O'Keefe"
p1901
I1
tp1902
a(S'Haytham Siala'
p1903
I1
tp1904
asS'Gang Li'
p1905
(lp1906
(S'Dimitris Papadias'
p1907
I92
tp1908
a(S'Yufei Tao'
p1909
I66
tp1910
a(S'Christian S. Jensen'
p1911
I38
tp1912
a(S'Michael H. B\xc3\xb6hlen'
p1913
I28
tp1914
a(S'Evaggelia Pitoura'
p1915
I27
tp1916
a(S'Markus Schneider'
p1917
I27
tp1918
a(S'Martin Erwig'
p1919
I21
tp1920
a(S'Michalis Vazirgiannis'
p1921
I20
tp1922
a(S'George Samaras'
p1923
I20
tp1924
a(S'Nikos A. Lorentzos'
p1925
I18
tp1926
a(S'Ralf Hartmut G\xc3\xbcting'
p1927
I18
tp1928
a(S'Goce Trajcevski'
p1929
I6
tp1930
a(S'Ouri Wolfson'
p1931
I6
tp1932
a(S'Peter Scheuermann'
p1933
I6
tp1934
a(S'Sam Chamberlain'
p1935
I5
tp1936
a(S'Klaus Hinrichs'
p1937
I5
tp1938
a(S'Ariel Pashtan'
p1939
I5
tp1940
a(S'Aware Networks'
p1941
I1
tp1942
a(S'Andrea Heusser'
p1943
I1
tp1944
asS'Fei Wang'
p1945
(lp1946
(S'Wil M. P. van der Aalst'
p1947
I161
tp1948
a(S'Jiawei Han'
p1949
I122
tp1950
a(S'Pierangela Samarati'
p1951
I95
tp1952
a(S'Dimitris Papadias'
p1953
I92
tp1954
a(S'Yufei Tao'
p1955
I66
tp1956
a(S'Josep Domingo-Ferrer'
p1957
I63
tp1958
a(S'Philip S. Yu'
p1959
I61
tp1960
a(S'Ming-Syan Chen'
p1961
I52
tp1962
a(S'Laura Maruster'
p1963
I51
tp1964
a(S'Nikos Mamoulis'
p1965
I43
tp1966
a(S'Christos Faloutsos'
p1967
I43
tp1968
a(S'Christian S. Jensen'
p1969
I38
tp1970
a(S'Josep Maria Mateo-Sanz'
p1971
I37
tp1972
a(S'Dimitrios Gunopulos'
p1973
I35
tp1974
a(S'Rajeev Motwani'
p1975
I34
tp1976
a(S'Ke Wang'
p1977
I32
tp1978
a(S'Divyakant Agrawal'
p1979
I28
tp1980
a(S'Michael H. B\xc3\xb6hlen'
p1981
I28
tp1982
a(S'James Aweya'
p1983
I28
tp1984
a(S'Markus Schneider'
p1985
I27
tp1986
a(S'Michel Ouellette'
p1987
I26
tp1988
a(S'Delfin Y. Montuno'
p1989
I26
tp1990
a(S'Ton Weijters'
p1991
I23
tp1992
a(S'Martin Erwig'
p1993
I21
tp1994
a(S'Xindong Wu'
p1995
I21
tp1996
a(S'Michalis Vazirgiannis'
p1997
I20
tp1998
a(S'Nikos A. Lorentzos'
p1999
I18
tp2000
a(S'Hillol Kargupta'
p2001
I18
tp2002
a(S'Ralf Hartmut G\xc3\xbcting'
p2003
I18
tp2004
a(S'Timos K. Sellis'
p2005
I18
tp2006
a(S'Ling Liu'
p2007
I18
tp2008
a(S'Kun-Lung Wu'
p2009
I18
tp2010
a(S'Mayur Datar'
p2011
I17
tp2012
a(S'Hannu Toivonen'
p2013
I16
tp2014
a(S'Edith Cohen'
p2015
I16
tp2016
a(S'Zhi-Hua Zhou'
p2017
I15
tp2018
a(S'Yannis Theodoridis'
p2019
I14
tp2020
a(S'Amr El Abbadi'
p2021
I14
tp2022
a(S'Aristides Gionis'
p2023
I14
tp2024
a(S'Christian B\xc3\xb6hm'
p2025
I14
tp2026
a(S'Wen-Chih Peng'
p2027
I13
tp2028
a(S'Jeffrey D. Ullman'
p2029
I13
tp2030
a(S'Heikki Mannila'
p2031
I12
tp2032
a(S'Piotr Indyk'
p2033
I12
tp2034
a(S'Arun Iyengar'
p2035
I12
tp2036
a(S'Emmanuel Stefanakis'
p2037
I11
tp2038
a(S'Anthony Ephremides'
p2039
I11
tp2040
a(S'Shichao Zhang'
p2041
I11
tp2042
a(S'Cheng Yang'
p2043
I10
tp2044
a(S'Shinji Fujiwara'
p2045
I10
tp2046
a(S'Kun Liu'
p2047
I10
tp2048
a(S'Hwanjo Yu'
p2049
I9
tp2050
a(S'Myoung-Ho Kim'
p2051
I9
tp2052
a(S'Shlomo Moran'
p2053
I9
tp2054
a(S'Kevin Chen-Chuan Chang'
p2055
I9
tp2056
a(S'Jessica Ryan'
p2057
I9
tp2058
a(S'Ronny Lempel'
p2059
I9
tp2060
a(S'Ming Li'
p2061
I8
tp2062
a(S'Sergio D. Servetto'
p2063
I8
tp2064
a(S'Mingjing Li'
p2065
I8
tp2066
a(S'Chong-Ho Choi'
p2067
I7
tp2068
a(S'Hyuk Lim'
p2069
I7
tp2070
a(S'Hae Don Chon'
p2071
I7
tp2072
a(S'Mi-Yen Yeh'
p2073
I6
tp2074
a(S'HongJiang Zhang'
p2075
I6
tp2076
a(S'Jen-Wei Huang'
p2077
I6
tp2078
a(S'Kyung-Joon Park'
p2079
I6
tp2080
a(S'Bi-Ru Dai'
p2081
I6
tp2082
a(S'Sanjeev Saluja'
p2083
I6
tp2084
a(S'Roni Khardon'
p2085
I6
tp2086
a(S'Daniel M. Dias'
p2087
I6
tp2088
a(S'Ram Sewak Sharm'
p2089
I6
tp2090
a(S'Benjamin C. M. Fung'
p2091
I5
tp2092
a(S'Changshui Zhang'
p2093
I5
tp2094
a(S'Jim Challenger'
p2095
I4
tp2096
a(S'Jingrui He'
p2097
I4
tp2098
a(S'Hanghang Tong'
p2099
I4
tp2100
a(S'Paul Dantzig'
p2101
I4
tp2102
a(S'Guido Proietti'
p2103
I3
tp2104
a(S'Joydeep Ghosh'
p2105
I3
tp2106
a(S'Eun-Chan Park'
p2107
I3
tp2108
a(S'Shyh-Kwei Chen'
p2109
I3
tp2110
a(S'Gam D. Nguyen'
p2111
I2
tp2112
a(S'Hyun Kyoo Park'
p2113
I2
tp2114
a(S'Kuo-Liang Chung'
p2115
I2
tp2116
a(S'Yao-Hong Tsai'
p2117
I2
tp2118
a(S'Wan-Yu Chen'
p2119
I2
tp2120
a(S'Jin Hyun Son'
p2121
I2
tp2122
a(S'Jeffrey E. Wieselthier'
p2123
I2
tp2124
a(S'Arindam Banerjee'
p2125
I1
tp2126
a(S'Bugra Gedik'
p2127
I1
tp2128
asS'Patrick Bas'
p2129
(lp2130
(S'Andreas Westfeld'
p2131
I37
tp2132
a(S'Erkki Oja'
p2133
I26
tp2134
a(S'Aapo Hyv\xc3\xa4rinen'
p2135
I24
tp2136
a(S'Ramarathnam Venkatesan'
p2137
I17
tp2138
a(S'Hany Farid'
p2139
I16
tp2140
a(S'Siwei Lyu'
p2141
I15
tp2142
a(S'Ahmad-Reza Sadeghi'
p2143
I9
tp2144
a(S'Andr\xc3\xa9 Adelsbach'
p2145
I8
tp2146
a(S'Patrick Bas'
p2147
I5
tp2148
a(S'Thomas Voegtlin'
p2149
I5
tp2150
a(S'Mehmet Kivan\xc3\xa7 Mih\xc3\xa7ak'
p2151
I4
tp2152
a(S'Fran\xc3\xa7ois Cayre'
p2153
I3
tp2154
a(S'Mustafa Kesal'
p2155
I1
tp2156
asS'Stefanos Gritzalis'
p2157
(lp2158
(S'Jun Wang'
p2159
I30
tp2160
a(S'James Aweya'
p2161
I28
tp2162
a(S'Michel Ouellette'
p2163
I26
tp2164
a(S'Delfin Y. Montuno'
p2165
I26
tp2166
a(S'Jon Crowcroft'
p2167
I14
tp2168
a(S'Artur Andrzejak'
p2169
I13
tp2170
a(S'Domenico Talia'
p2171
I13
tp2172
a(S'Zhichen Xu'
p2173
I12
tp2174
a(S'James W. Hong'
p2175
I10
tp2176
a(S'Hong-Taek Ju'
p2177
I8
tp2178
a(S'John Soldatos'
p2179
I8
tp2180
a(S'Kurt Rothermel'
p2181
I7
tp2182
a(S'Klara Nahrstedt'
p2183
I7
tp2184
a(S'Li Xiao'
p2185
I6
tp2186
a(S'Elias Proc\xc3\xb3pio Duarte Jr.'
p2187
I6
tp2188
a(S'Paolo Trunfio'
p2189
I6
tp2190
a(S'Jeong-Hyuk Yoon'
p2191
I6
tp2192
a(S'Ying Guang Li'
p2193
I4
tp2194
a(S'Olivier Festor'
p2195
I4
tp2196
a(S'Radu State'
p2197
I4
tp2198
a(S'Yaling Yang'
p2199
I4
tp2200
a(S'Dimitris Alexopoulos'
p2201
I4
tp2202
a(S'Zo\xc3\xa9 Lacroix'
p2203
I4
tp2204
a(S'St\xc3\xa9phane Bressan'
p2205
I4
tp2206
a(S'Ullas Nambiar'
p2207
I3
tp2208
a(S'Mong-Li Lee'
p2209
I3
tp2210
a(S'Christophe Diot'
p2211
I3
tp2212
a(S'Andreas Lachenmann'
p2213
I2
tp2214
a(S'Matthias Gauger'
p2215
I2
tp2216
a(S'Manuel M. Oliveira'
p2217
I2
tp2218
a(S'Pedro Jos\xc3\xa9 Marr\xc3\xb3n'
p2219
I2
tp2220
a(S'Martin A. Musicante'
p2221
I2
tp2222
a(S'Humberto J. Abdelnur'
p2223
I1
tp2224
a(S'Olga Saukh'
p2225
I1
tp2226
a(S'Daniel Minder'
p2227
I1
tp2228
a(S'Vincent Cridlig'
p2229
I1
tp2230
a(S'Di\xc3\xb3genes Cogo Furlan'
p2231
I1
tp2232
asS'David C. Yen'
p2233
(lp2234
(S'Varun Grover'
p2235
I93
tp2236
a(S'Ephraim R. McLean'
p2237
I65
tp2238
a(S'William H. DeLone'
p2239
I55
tp2240
a(S'Arun Rai'
p2241
I43
tp2242
a(S'James J. Jiang'
p2243
I40
tp2244
a(S'Gary Klein'
p2245
I38
tp2246
a(S'Yi-Shun Wang'
p2247
I19
tp2248
a(S'Shin-Yuan Hung'
p2249
I18
tp2250
a(S'Jinwoo Kim'
p2251
I14
tp2252
a(S'Gordon E. McCray'
p2253
I12
tp2254
a(S'Russell L. Purvis'
p2255
I12
tp2256
a(S'Khawaja Asjad Saeed'
p2257
I11
tp2258
a(S'Sherry D. Ryan'
p2259
I9
tp2260
a(S'Tom L. Roberts'
p2261
I8
tp2262
a(S'Kwanghee Han'
p2263
I7
tp2264
a(S'Moonkyu Lee'
p2265
I7
tp2266
a(S'Stuart J. Barnes'
p2267
I7
tp2268
a(S'Richard T. Vidgen'
p2269
I7
tp2270
a(S'Hindi Al-Hindi'
p2271
I7
tp2272
a(S'Jungwon Lee'
p2273
I7
tp2274
a(S'Waleed A. Muhanna'
p2275
I6
tp2276
a(S'Yujong Hwang'
p2277
I6
tp2278
a(S'Raymond M. Henry'
p2279
I6
tp2280
a(S'Xiaoni Zhang'
p2281
I5
tp2282
a(S'Hsin-Hui Lin'
p2283
I4
tp2284
a(S'Pao-Long Chang'
p2285
I4
tp2286
a(S'Yih-Ping Cheng'
p2287
I4
tp2288
a(S'Tzu-Chuan Chou'
p2289
I4
tp2290
a(S'Chien-Tzu Tsai'
p2291
I4
tp2292
a(S'Niki Panteli'
p2293
I4
tp2294
a(S'Chao-Min Chiu'
p2295
I3
tp2296
a(S'Duncan Shaw'
p2297
I3
tp2298
a(S'John S. Edwards'
p2299
I3
tp2300
a(S'Victor R. Prybutok'
p2301
I3
tp2302
a(S'Theresa I. Jefferson'
p2303
I2
tp2304
a(S'Thomas J. Nagy'
p2305
I2
tp2306
asS'Pedro Garc\xc3\xada L\xc3\xb3pez'
p2307
(lp2308
(S'Edward Ball'
p2309
I1
tp2310
a(S'David W. Chadwick'
p2311
I1
tp2312
a(S'Philip Seltsikas'
p2313
I1
tp2314
a(S'Alexander Otenko'
p2315
I1
tp2316
a(S'Huinan Xu'
p2317
I1
tp2318
asS'Gauss M. Cordeiro'
p2319
(lp2320
(S'Gilberto A. Paula'
p2321
I35
tp2322
a(S'N. Balakrishnan'
p2323
I29
tp2324
a(S'Debasis Kundu'
p2325
I26
tp2326
a(S'Edwin M. M. Ortega'
p2327
I24
tp2328
a(S'Manuel Galea'
p2329
I20
tp2330
a(S'V\xc3\xadctor Leiva'
p2331
I15
tp2332
a(S'H. K. T. Ng'
p2333
I15
tp2334
a(S'Francisco Cribari-Neto'
p2335
I14
tp2336
a(S'Michelli Barros'
p2337
I12
tp2338
a(S'Feng-Chang Xie'
p2339
I12
tp2340
a(S'Bo-Cheng Wei'
p2341
I12
tp2342
a(S'Heleno Bolfarine'
p2343
I11
tp2344
a(S'Klaus L. P. Vasconcellos'
p2345
I9
tp2346
a(S'Artur J. Lemonte'
p2347
I8
tp2348
asS'Fabio Martignon'
p2349
(lp2350
(S'Ian F. Akyildiz'
p2351
I358
tp2352
a(S'Hannes Hartenstein'
p2353
I59
tp2354
a(S'Yu-Chee Tseng'
p2355
I53
tp2356
a(S'Christian Bettstetter'
p2357
I46
tp2358
a(S'Xudong Wang'
p2359
I45
tp2360
a(S'Tzi-cker Chiueh'
p2361
I40
tp2362
a(S'Weilin Wang'
p2363
I40
tp2364
a(S'Kartik Gopalan'
p2365
I40
tp2366
a(S'Ashish Raniwala'
p2367
I40
tp2368
a(S'Olov Schel\xc3\xa9n'
p2369
I36
tp2370
a(S'Avri Doria'
p2371
I36
tp2372
a(S'Anders Lindgren'
p2373
I36
tp2374
a(S'Kee Chaing Chua'
p2375
I30
tp2376
a(S'Mario Gerla'
p2377
I30
tp2378
a(S'Jang-Ping Sheu'
p2379
I28
tp2380
a(S'Eitan Altman'
p2381
I27
tp2382
a(S'Bo Li'
p2383
I24
tp2384
a(S'Roy Want'
p2385
I23
tp2386
a(S'Xavier P\xc3\xa9rez Costa'
p2387
I22
tp2388
a(S'Yuh-Shyan Chen'
p2389
I22
tp2390
a(S'Sze-Yao Ni'
p2391
I22
tp2392
a(S'Y. C. Tay'
p2393
I19
tp2394
a(S'R. Srikant'
p2395
I12
tp2396
a(S'Thomas Niessen'
p2397
I11
tp2398
a(S'Rudolf Mathar'
p2399
I10
tp2400
a(S'Claudio Casetti'
p2401
I10
tp2402
a(S'Tamer Basar'
p2403
I10
tp2404
a(S'Tansu Alpcan'
p2405
I10
tp2406
a(S'M. Y. Sanadidi'
p2407
I9
tp2408
a(S'Saverio Mascolo'
p2409
I8
tp2410
a(S'Serge Fdida'
p2411
I8
tp2412
a(S'Ren Wang'
p2413
I7
tp2414
a(S'Michel Mandjes'
p2415
I6
tp2416
a(S'Janise McNair'
p2417
I6
tp2418
a(S'Bin Li'
p2419
I6
tp2420
a(S'Xi-Ren Cao'
p2421
I4
tp2422
a(S'Lizhong Li'
p2423
I4
tp2424
a(S'Fang Zhu'
p2425
I4
tp2426
a(S'Yijie Han'
p2427
I3
tp2428
a(S'Guido H. Petit'
p2429
I3
tp2430
a(S'Danny De Vleeschauwer'
p2431
I3
tp2432
a(S'Armand M. Makowski'
p2433
I3
tp2434
a(S'Jan Janssen'
p2435
I3
tp2436
a(S'Richard J. La'
p2437
I3
tp2438
a(S'Seungjoon Lee'
p2439
I3
tp2440
a(S'Maarten B\xc3\xbcchli'
p2441
I3
tp2442
a(S'Nidhi Hegde'
p2443
I2
tp2444
a(S'Stephen B. Weinstein'
p2445
I2
tp2446
a(S'Nan Tu'
p2447
I2
tp2448
a(S'Junbiao Zhang'
p2449
I2
tp2450
a(S'Luigi Iannone'
p2451
I2
tp2452
a(S'Giovanni Schembra'
p2453
I2
tp2454
a(S'Francesco Licandro'
p2455
I2
tp2456
a(S'Jun Li'
p2457
I2
tp2458
a(S'Konstantin Kabassanov'
p2459
I2
tp2460
asS'Luciano Lenzini'
p2461
(lp2462
(S'Ian F. Akyildiz'
p2463
I358
tp2464
a(S'Weilian Su'
p2465
I189
tp2466
a(S'Erdal Cayirci'
p2467
I187
tp2468
a(S'Yogesh Sankarasubramaniam'
p2469
I183
tp2470
a(S'Scott Shenker'
p2471
I74
tp2472
a(S'Sajal K. Das'
p2473
I66
tp2474
a(S'Nitin H. Vaidya'
p2475
I66
tp2476
a(S'Hannes Hartenstein'
p2477
I59
tp2478
a(S'Yu-Chee Tseng'
p2479
I53
tp2480
a(S'Christian Bettstetter'
p2481
I46
tp2482
a(S'Daniel A. Menasc\xc3\xa9'
p2483
I39
tp2484
a(S'Jyh-Cheng Chen'
p2485
I37
tp2486
a(S'Krishna M. Sivalingam'
p2487
I37
tp2488
a(S'Prathima Agrawal'
p2489
I37
tp2490
a(S'Olov Schel\xc3\xa9n'
p2491
I36
tp2492
a(S'Anders Lindgren'
p2493
I36
tp2494
a(S'Avri Doria'
p2495
I36
tp2496
a(S'Hari Balakrishnan'
p2497
I34
tp2498
a(S'Lixia Zhang'
p2499
I32
tp2500
a(S'Christine E. Jones'
p2501
I31
tp2502
a(S'Milica Stojanovic'
p2503
I30
tp2504
a(S'Kee Chaing Chua'
p2505
I30
tp2506
a(S'Kian-Lee Tan'
p2507
I30
tp2508
a(S'Richard M. Karp'
p2509
I28
tp2510
a(S'Jang-Ping Sheu'
p2511
I28
tp2512
a(S'Songwu Lu'
p2513
I27
tp2514
a(S'Eitan Altman'
p2515
I27
tp2516
a(S'Kenneth P. Fishkin'
p2517
I26
tp2518
a(S'Dirk H\xc3\xa4hnel'
p2519
I26
tp2520
a(S'Matthai Philipose'
p2521
I25
tp2522
a(S'Fan Ye'
p2523
I25
tp2524
a(S'Marco Conti'
p2525
I24
tp2526
a(S'Bo Li'
p2527
I24
tp2528
a(S'Yuh-Shyan Chen'
p2529
I22
tp2530
a(S'Henry A. Kautz'
p2531
I22
tp2532
a(S'Dieter Fox'
p2533
I22
tp2534
a(S'Sze-Yao Ni'
p2535
I22
tp2536
a(S'Mike Perkowitz'
p2537
I22
tp2538
a(S'Xavier P\xc3\xa9rez Costa'
p2539
I22
tp2540
a(S'Jeffrey Xu Yu'
p2541
I22
tp2542
a(S'Donald J. Patterson'
p2543
I22
tp2544
a(S'Diane J. Cook'
p2545
I21
tp2546
a(S'Enrico Gregori'
p2547
I20
tp2548
a(S'Chi-Fu Huang'
p2549
I20
tp2550
a(S'Prasant Mohapatra'
p2551
I19
tp2552
a(S'Y. C. Tay'
p2553
I19
tp2554
a(S'Robin Kravets'
p2555
I19
tp2556
a(S'Gavin Holland'
p2557
I17
tp2558
a(S'Peng-Jun Wan'
p2559
I15
tp2560
a(S'Mark Handley'
p2561
I14
tp2562
a(S'Sylvia Ratnasamy'
p2563
I14
tp2564
a(S'Gary Zhong'
p2565
I14
tp2566
a(S'Tarek N. Saadawi'
p2567
I12
tp2568
a(S'Michele Zorzi'
p2569
I12
tp2570
a(S'Jan M. Rabaey'
p2571
I12
tp2572
a(S'R. Srikant'
p2573
I12
tp2574
a(S'Andrea Passarella'
p2575
I12
tp2576
a(S'Raffaele Bruno'
p2577
I11
tp2578
a(S'Miodrag Potkonjak'
p2579
I11
tp2580
a(S'Leandros Tassiulas'
p2581
I10
tp2582
a(S'P. Krishnan'
p2583
I10
tp2584
a(S'Tansu Alpcan'
p2585
I10
tp2586
a(S'Albert F. Harris III'
p2587
I10
tp2588
a(S'Tamer Basar'
p2589
I10
tp2590
a(S'Shugong Xu'
p2591
I10
tp2592
a(S'Seapahn Megerian'
p2593
I10
tp2594
a(S'Giuseppe Anastasi'
p2595
I9
tp2596
a(S'Amiya Bhattacharya'
p2597
I9
tp2598
a(S'Borja Peleato'
p2599
I9
tp2600
a(S'Tiina Heikkinen'
p2601
I8
tp2602
a(S'Svetha Venkatesh'
p2603
I8
tp2604
a(S'Timothy X. Brown'
p2605
I7
tp2606
a(S'Lawrence B. Holder'
p2607
I7
tp2608
a(S'Christian F. Tschudin'
p2609
I7
tp2610
a(S'Toshio Sakata'
p2611
I7
tp2612
a(S'Erik Nordstr\xc3\xb6m'
p2613
I7
tp2614
a(S'Shweta Bhandare'
p2615
I7
tp2616
a(S'Sheetalkumar Doshi'
p2617
I7
tp2618
a(S'Henrik Lundgren'
p2619
I6
tp2620
a(S'Geoff A. W. West'
p2621
I6
tp2622
a(S'Michel Mandjes'
p2623
I6
tp2624
a(S'Bin Li'
p2625
I6
tp2626
a(S'G. Michael Youngblood'
p2627
I6
tp2628
a(S'Gang Qu'
p2629
I6
tp2630
a(S'Fabio Panzieri'
p2631
I5
tp2632
a(S'Farinaz Koushanfar'
p2633
I5
tp2634
a(S'Giacomino Veltri'
p2635
I4
tp2636
a(S'Filippo Focacci'
p2637
I4
tp2638
a(S'Fabian Kuhn'
p2639
I4
tp2640
a(S'Michael Segal'
p2641
I4
tp2642
a(S'Ronny Krashinsky'
p2643
I4
tp2644
a(S'Andrea Lodi'
p2645
I4
tp2646
a(S'Lizhong Li'
p2647
I4
tp2648
a(S'Michela Milano'
p2649
I4
tp2650
a(S'Xi-Ren Cao'
p2651
I4
tp2652
a(S'David Pisinger'
p2653
I4
tp2654
a(S'Oluf Faroe'
p2655
I3
tp2656
a(S'Sebastian L\xc3\xbchr'
p2657
I3
tp2658
a(S'Alexander Kesselman'
p2659
I3
tp2660
a(S'Danny De Vleeschauwer'
p2661
I3
tp2662
a(S'Zvi Lotker'
p2663
I3
tp2664
a(S'Santosh K. Shrivastava'
p2665
I3
tp2666
a(S'Guido H. Petit'
p2667
I3
tp2668
a(S'Jan Janssen'
p2669
I3
tp2670
a(S'Richard J. La'
p2671
I3
tp2672
a(S'David B. Ingham'
p2673
I3
tp2674
a(S'Seungjoon Lee'
p2675
I3
tp2676
a(S'Jana van Greunen'
p2677
I3
tp2678
a(S'Kurtis B. Kredo II'
p2679
I3
tp2680
a(S'Martin Zachariasen'
p2681
I3
tp2682
a(S'Maarten B\xc3\xbcchli'
p2683
I3
tp2684
a(S'Yijie Han'
p2685
I3
tp2686
a(S'Xiangyang Li'
p2687
I3
tp2688
a(S'Armand M. Makowski'
p2689
I3
tp2690
a(S'Nidhi Hegde'
p2691
I2
tp2692
a(S'Ali H. Sayed'
p2693
I2
tp2694
a(S'Stefan Funke'
p2695
I2
tp2696
a(S'Simon Moncrieff'
p2697
I2
tp2698
a(S'Jennifer Ann Rode'
p2699
I2
tp2700
a(S'Jason Flinn'
p2701
I2
tp2702
a(S'Paolo Casari'
p2703
I2
tp2704
a(S'Manish Anand'
p2705
I2
tp2706
a(S'Chi-Jiun Su'
p2707
I2
tp2708
a(S'Sylvia M. Dominguez'
p2709
I2
tp2710
a(S'Trish Keaton'
p2711
I2
tp2712
a(S'Stewart Greenhill'
p2713
I2
tp2714
a(S'Edmund B. Nightingale'
p2715
I2
tp2716
a(S'Raino Vastam\xc3\xa4ki'
p2717
I1
tp2718
a(S'Cecilia Leinonen'
p2719
I1
tp2720
a(S'Ruth Kikin-Gil'
p2721
I1
tp2722
a(S'Irmeli Sinkkonen'
p2723
I1
tp2724
asS'Vicent Pla'
p2725
(lp2726
(S'Hannes Hartenstein'
p2727
I59
tp2728
a(S'Christian Bettstetter'
p2729
I46
tp2730
a(S'Xavier P\xc3\xa9rez Costa'
p2731
I22
tp2732
a(S'Jorma T. Virtamo'
p2733
I5
tp2734
a(S'Esa Hyyti\xc3\xa4'
p2735
I5
tp2736
a(S'J. W. Roberts'
p2737
I5
tp2738
asS'Azuraliza Abu Bakar'
p2739
(lp2740
sS'Jie Chen'
p2741
(lp2742
(S'Ian F. Akyildiz'
p2743
I358
tp2744
a(S'Scott Shenker'
p2745
I74
tp2746
a(S'Mehmet C. Vuran'
p2747
I68
tp2748
a(S'Shantidev Mohanty'
p2749
I56
tp2750
a(S'Won-Yeol Lee'
p2751
I56
tp2752
a(S'Ramesh Govindan'
p2753
I48
tp2754
a(S'Deborah Estrin'
p2755
I47
tp2756
a(S'Deepak Ganesan'
p2757
I39
tp2758
a(S'Lixia Zhang'
p2759
I32
tp2760
a(S'Songwu Lu'
p2761
I27
tp2762
a(S'Fan Ye'
p2763
I25
tp2764
a(S'Geoffrey J. McLachlan'
p2765
I25
tp2766
a(S'Yi-Shun Wang'
p2767
I19
tp2768
a(S'Matthew K. O. Lee'
p2769
I15
tp2770
a(S'Gary Zhong'
p2771
I14
tp2772
a(S'Chris Mellish'
p2773
I13
tp2774
a(S'Henry Brighton'
p2775
I12
tp2776
a(S'Christy M. K. Cheung'
p2777
I12
tp2778
a(S'Raquel Benbunan-Fich'
p2779
I10
tp2780
a(S'Zhaohui Chen'
p2781
I9
tp2782
a(S'Ing-Long Wu'
p2783
I8
tp2784
a(S'Pabitra Mitra'
p2785
I5
tp2786
a(S'Sankar K. Pal'
p2787
I5
tp2788
a(S'J. B. Arbaugh'
p2789
I3
tp2790
a(S'Jennifer Rexford'
p2791
I2
tp2792
a(S'Shu-Kay Ng'
p2793
I2
tp2794
a(S'Andrea Basso'
p2795
I1
tp2796
a(S'Stephane Gruber'
p2797
I1
tp2798
asS'Winston Khoon Guan Seah'
p2799
(lp2800
(S'Nigel Davies'
p2801
I14
tp2802
a(S'Yuming Jiang'
p2803
I10
tp2804
a(S'Keith Cheverst'
p2805
I10
tp2806
a(S'Adrian Friday'
p2807
I7
tp2808
a(S'Mark Allman'
p2809
I6
tp2810
a(S'Chen-Khong Tham'
p2811
I4
tp2812
a(S'Chi Chung Ko'
p2813
I4
tp2814
a(S'Maomao Wu'
p2815
I4
tp2816
a(S'Stefan Schmid'
p2817
I4
tp2818
a(S'Wesley M. Eddy'
p2819
I3
tp2820
a(S'Craig Partridge'
p2821
I3
tp2822
a(S'James P. G. Sterbenz'
p2823
I2
tp2824
a(S'Rajesh Krishnan'
p2825
I2
tp2826
a(S'Joe Finney'
p2827
I1
tp2828
asS'Lisong Xu'
p2829
(lp2830
(S'Olov Schel\xc3\xa9n'
p2831
I36
tp2832
a(S'Anders Lindgren'
p2833
I36
tp2834
a(S'Avri Doria'
p2835
I36
tp2836
a(S'C. Siva Ram Murthy'
p2837
I20
tp2838
a(S'Harry G. Perros'
p2839
I8
tp2840
a(S'Alicia Nicki Washington'
p2841
I4
tp2842
a(S'Harsha V. Madhyastha'
p2843
I3
tp2844
a(S'Lars-Olof Burchard'
p2845
I3
tp2846
a(S'N. Srinivas'
p2847
I2
tp2848
asS'Tao Gu'
p2849
(lp2850
(S'Ian F. Akyildiz'
p2851
I358
tp2852
a(S'Weilian Su'
p2853
I189
tp2854
a(S'Erdal Cayirci'
p2855
I187
tp2856
a(S'Yogesh Sankarasubramaniam'
p2857
I183
tp2858
a(S'Scott Shenker'
p2859
I74
tp2860
a(S'Sajal K. Das'
p2861
I66
tp2862
a(S'Yu-Chee Tseng'
p2863
I53
tp2864
a(S'Daqing Zhang'
p2865
I39
tp2866
a(S'Kian-Lee Tan'
p2867
I30
tp2868
a(S'Jang-Ping Sheu'
p2869
I28
tp2870
a(S'Richard M. Karp'
p2871
I28
tp2872
a(S'Dirk H\xc3\xa4hnel'
p2873
I26
tp2874
a(S'Kenneth P. Fishkin'
p2875
I26
tp2876
a(S'Matthai Philipose'
p2877
I25
tp2878
a(S'Jeffrey Xu Yu'
p2879
I22
tp2880
a(S'Yuh-Shyan Chen'
p2881
I22
tp2882
a(S'Sze-Yao Ni'
p2883
I22
tp2884
a(S'Mike Perkowitz'
p2885
I22
tp2886
a(S'Dieter Fox'
p2887
I22
tp2888
a(S'Henry A. Kautz'
p2889
I22
tp2890
a(S'Donald J. Patterson'
p2891
I22
tp2892
a(S'Diane J. Cook'
p2893
I21
tp2894
a(S'Michael Beigl'
p2895
I20
tp2896
a(S'Chi-Fu Huang'
p2897
I20
tp2898
a(S'Albrecht Schmidt'
p2899
I18
tp2900
a(S'Sylvia Ratnasamy'
p2901
I14
tp2902
a(S'Mark Handley'
p2903
I14
tp2904
a(S'Jan M. Rabaey'
p2905
I12
tp2906
a(S'Chung-Yau Chin'
p2907
I11
tp2908
a(S'Xiaohang Wang'
p2909
I11
tp2910
a(S'Miodrag Potkonjak'
p2911
I11
tp2912
a(S'Seapahn Megerian'
p2913
I10
tp2914
a(S'Leandros Tassiulas'
p2915
I10
tp2916
a(S'Gerd Kortuem'
p2917
I10
tp2918
a(S'Monika Rauch Henzinger'
p2919
I10
tp2920
a(S'Amiya Bhattacharya'
p2921
I9
tp2922
a(S'SankaRavipriya Hettiarachchi'
p2923
I8
tp2924
a(S'Jin Song Dong'
p2925
I8
tp2926
a(S'Svetha Venkatesh'
p2927
I8
tp2928
a(S'Tiina Heikkinen'
p2929
I8
tp2930
a(S'Lawrence B. Holder'
p2931
I7
tp2932
a(S'Toshio Sakata'
p2933
I7
tp2934
a(S'Geoff A. W. West'
p2935
I6
tp2936
a(S'G. Michael Youngblood'
p2937
I6
tp2938
a(S'Gang Qu'
p2939
I6
tp2940
a(S'Farinaz Koushanfar'
p2941
I5
tp2942
a(S'Giacomino Veltri'
p2943
I4
tp2944
a(S'Fabian Kuhn'
p2945
I4
tp2946
a(S'Michael Segal'
p2947
I4
tp2948
a(S'Jana van Greunen'
p2949
I3
tp2950
a(S'Alexander Kesselman'
p2951
I3
tp2952
a(S'Zvi Lotker'
p2953
I3
tp2954
a(S'Sebastian L\xc3\xbchr'
p2955
I3
tp2956
a(S'Ali H. Sayed'
p2957
I2
tp2958
a(S'Chi-Jiun Su'
p2959
I2
tp2960
a(S'Simon Moncrieff'
p2961
I2
tp2962
a(S'Jennifer Ann Rode'
p2963
I2
tp2964
a(S'Stefan Funke'
p2965
I2
tp2966
a(S'Hans Gellersen'
p2967
I2
tp2968
a(S'Sylvia M. Dominguez'
p2969
I2
tp2970
a(S'Trish Keaton'
p2971
I2
tp2972
a(S'Stewart Greenhill'
p2973
I2
tp2974
a(S'Matthias Hemmje'
p2975
I1
tp2976
a(S'Ruth Kikin-Gil'
p2977
I1
tp2978
a(S'Raino Vastam\xc3\xa4ki'
p2979
I1
tp2980
a(S'Lieming Huang'
p2981
I1
tp2982
a(S'Erich J. Neuhold'
p2983
I1
tp2984
a(S'Irmeli Sinkkonen'
p2985
I1
tp2986
a(S'Cecilia Leinonen'
p2987
I1
tp2988
asS'Serge Fdida'
p2989
(lp2990
(S'Ian F. Akyildiz'
p2991
I358
tp2992
a(S'Weilian Su'
p2993
I189
tp2994
a(S'Erdal Cayirci'
p2995
I187
tp2996
a(S'Yogesh Sankarasubramaniam'
p2997
I183
tp2998
a(S'Avri Doria'
p2999
I36
tp3000
a(S'Olov Schel\xc3\xa9n'
p3001
I36
tp3002
a(S'Anders Lindgren'
p3003
I36
tp3004
a(S'Elias Proc\xc3\xb3pio Duarte Jr.'
p3005
I6
tp3006
a(S'Edmundo Roberto Mauro Madeira'
p3007
I6
tp3008
a(S'Catherine Rosenberg'
p3009
I6
tp3010
a(S'Bruno Schulze'
p3011
I5
tp3012
a(S'Jos\xc3\xa9 Neuman de Souza'
p3013
I4
tp3014
a(S'Lisandro Zambenedetti Granville'
p3015
I3
tp3016
a(S'Luciano Paschoal Gaspary'
p3017
I2
tp3018
a(S'Mark A. Shayman'
p3019
I2
tp3020
a(S'Anuj Rawat'
p3021
I2
tp3022
a(S'Aravind Iyer'
p3023
I2
tp3024
asS'Quan Z. Sheng'
p3025
(lp3026
(S'Wil M. P. van der Aalst'
p3027
I161
tp3028
a(S'Robert J. Kauffman'
p3029
I99
tp3030
a(S'Eric K. Clemons'
p3031
I67
tp3032
a(S'Rajiv Sabherwal'
p3033
I66
tp3034
a(S'Boualem Benatallah'
p3035
I55
tp3036
a(S'Amit P. Sheth'
p3037
I50
tp3038
a(S'Arthur H. M. ter Hofstede'
p3039
I42
tp3040
a(S'Arvind Malhotra'
p3041
I41
tp3042
a(S'Daniel A. Menasc\xc3\xa9'
p3043
I39
tp3044
a(S'Christian S. Jensen'
p3045
I38
tp3046
a(S'Albert H. Segars'
p3047
I37
tp3048
a(S'Bartek Kiepuszewski'
p3049
I35
tp3050
a(S'Alistair P. Barros'
p3051
I35
tp3052
a(S'Johannes Gehrke'
p3053
I32
tp3054
a(S'Marlon Dumas'
p3055
I31
tp3056
a(S'Francisco Curbera'
p3057
I30
tp3058
a(S'Manfred Reichert'
p3059
I29
tp3060
a(S'Rania Khalaf'
p3061
I29
tp3062
a(S'Quan Z. Sheng'
p3063
I29
tp3064
a(S'Michael H. B\xc3\xb6hlen'
p3065
I28
tp3066
a(S'Markus Schneider'
p3067
I27
tp3068
a(S'Matthew J. Duftler'
p3069
I27
tp3070
a(S'Sanjiva Weerawarana'
p3071
I26
tp3072
a(S'William Nagy'
p3073
I26
tp3074
a(S'Nirmal Mukhi'
p3075
I26
tp3076
a(S'Stefanie Rinderle'
p3077
I24
tp3078
a(S'Peter Dadam'
p3079
I24
tp3080
a(S'Sudha Ram'
p3081
I24
tp3082
a(S'Andrew H. Gold'
p3083
I23
tp3084
a(S'Roy Want'
p3085
I23
tp3086
a(S'Martin Erwig'
p3087
I21
tp3088
a(S'Athman Bouguettaya'
p3089
I21
tp3090
a(S'Fabio Casati'
p3091
I21
tp3092
a(S'Michalis Vazirgiannis'
p3093
I20
tp3094
a(S'Richard T. Snodgrass'
p3095
I20
tp3096
a(S'Ravi Aron'
p3097
I20
tp3098
a(S'Nikos A. Lorentzos'
p3099
I18
tp3100
a(S'Mathias Weske'
p3101
I18
tp3102
a(S'Ralf Hartmut G\xc3\xbcting'
p3103
I18
tp3104
a(S'Raghu Ramakrishnan'
p3105
I16
tp3106
a(S'Zakaria Maamar'
p3107
I16
tp3108
a(S'Mourad Ouzzani'
p3109
I15
tp3110
a(S'Eduardo Mena'
p3111
I13
tp3112
a(S'Vipul Kashyap'
p3113
I12
tp3114
a(S'Arantza Illarramendi'
p3115
I12
tp3116
a(S'Dolf Gr\xc3\xbcnbauer'
p3117
I11
tp3118
a(S'Millist W. Vincent'
p3119
I11
tp3120
a(S'Rajiv M. Dewan'
p3121
I11
tp3122
a(S'Farouk Toumani'
p3123
I10
tp3124
a(S'Hamdi Yahyaoui'
p3125
I10
tp3126
a(S'Chia-Hui Chang'
p3127
I10
tp3128
a(S'Soraya Kouadri Most\xc3\xa9faoui'
p3129
I10
tp3130
a(S'Venkatesh Ganti'
p3131
I10
tp3132
a(S'Badri Nath'
p3133
I9
tp3134
a(S'Ivan P. L. Png'
p3135
I9
tp3136
a(S'Brahim Medjahed'
p3137
I8
tp3138
a(S'San-Yih Hwang'
p3139
I8
tp3140
a(S'Sang-Yong Tom Lee'
p3141
I8
tp3142
a(S'Irma Becerra-Fernandez'
p3143
I7
tp3144
a(S'Miroslaw Malek'
p3145
I7
tp3146
a(S'Nikola Milanovic'
p3147
I7
tp3148
a(S'Moheb R. Girgis'
p3149
I7
tp3150
a(S'Khaled F. Shaalan'
p3151
I7
tp3152
a(S'Franklin Reynolds'
p3153
I7
tp3154
a(S'Mohammed Kayed'
p3155
I7
tp3156
a(S'Marshall L. Freimer'
p3157
I6
tp3158
a(S'Jinsoo Park'
p3159
I6
tp3160
a(S'Il-Horn Hann'
p3161
I5
tp3162
a(S'Lawrence A. West Jr.'
p3163
I5
tp3164
a(S'Ting Yu'
p3165
I5
tp3166
a(S'Kai Lung Hui'
p3167
I5
tp3168
a(S'Ivan Png'
p3169
I4
tp3170
a(S'Yeh-ning Chen'
p3171
I4
tp3172
a(S'Karthik Gomadam'
p3173
I4
tp3174
a(S'Marianne Winslett'
p3175
I4
tp3176
a(S'Abdelmounaam Rezgui'
p3177
I4
tp3178
a(S'Dongwon Lee'
p3179
I3
tp3180
a(S'Mark Levene'
p3181
I3
tp3182
a(S'Giovanni Maria Sacco'
p3183
I3
tp3184
a(S'Yabing Jiang'
p3185
I2
tp3186
a(S'Adam Hess'
p3187
I2
tp3188
a(S'Bryan Smith'
p3189
I2
tp3190
a(S'Lihui Lin'
p3191
I2
tp3192
a(S'Mark Bergen'
p3193
I2
tp3194
a(S'Jon Lathem'
p3195
I2
tp3196
a(S'Nalin Kulatilaka'
p3197
I2
tp3198
a(S'Radia J. Perlman'
p3199
I2
tp3200
a(S'Lina Yu'
p3201
I2
tp3202
a(S'Charlie Kaufman'
p3203
I2
tp3204
a(S'Kent E. Seamons'
p3205
I2
tp3206
a(S'Jared Jacobson'
p3207
I2
tp3208
a(S'Ryan Jarvis'
p3209
I2
tp3210
a(S'Halvard Skogsrud'
p3211
I1
tp3212
a(S'Saikou Y. Diallo'
p3213
I1
tp3214
a(S'Ya-Fan Chen'
p3215
I1
tp3216
a(S'Andreas Tolk'
p3217
I1
tp3218
asS'Yunhao Liu'
p3219
(lp3220
(S'David B. Johnson'
p3221
I56
tp3222
a(S'Ivan Stojmenovic'
p3223
I36
tp3224
a(S'Prosenjit Bose'
p3225
I26
tp3226
a(S'Pat Morin'
p3227
I26
tp3228
a(S'Jorge Urrutia'
p3229
I26
tp3230
a(S'Raja Sengupta'
p3231
I21
tp3232
a(S'Amit Kumar Saha'
p3233
I20
tp3234
a(S'Eylem Ekici'
p3235
I18
tp3236
a(S'Qing Xu'
p3237
I17
tp3238
a(S'Hao Wu'
p3239
I17
tp3240
a(S'Hariharan Krishnan'
p3241
I17
tp3242
a(S'Tamer A. ElBatt'
p3243
I17
tp3244
a(S'Michael Hunter'
p3245
I16
tp3246
a(S'David R. Choffnes'
p3247
I16
tp3248
a(S'Randall Guensler'
p3249
I16
tp3250
a(S'Fabi\xc3\xa1n E. Bustamante'
p3251
I16
tp3252
a(S'Jeff Ko'
p3253
I15
tp3254
a(S'Michalis Faloutsos'
p3255
I15
tp3256
a(S'Tony K. Mak'
p3257
I15
tp3258
a(S'Peng-Jun Wan'
p3259
I15
tp3260
a(S'Richard M. Fujimoto'
p3261
I14
tp3262
a(S'Bhaskar Krishnamachari'
p3263
I14
tp3264
a(S'Jayendra S. Parikh'
p3265
I14
tp3266
a(S'Srikanth V. Krishnamurthy'
p3267
I14
tp3268
a(S'Domenico Talia'
p3269
I13
tp3270
a(S'Artur Andrzejak'
p3271
I13
tp3272
a(S'\xc3\x9cmit \xc3\x96zg\xc3\xbcner'
p3273
I12
tp3274
a(S'F\xc3\xbcsun \xc3\x96zg\xc3\xbcner'
p3275
I12
tp3276
a(S'Zhichen Xu'
p3277
I12
tp3278
a(S'G\xc3\xb6khan Korkmaz'
p3279
I12
tp3280
a(S'Timothy Talty'
p3281
I11
tp3282
a(S'Jijun Yin'
p3283
I11
tp3284
a(S'Stephen Habermas'
p3285
I11
tp3286
a(S'Gavin Yeung'
p3287
I11
tp3288
a(S'Bo Ryu'
p3289
I11
tp3290
a(S'Xiang-Yang Li'
p3291
I11
tp3292
a(S'Gruia Calinescu'
p3293
I11
tp3294
a(S'Rahul Mangharam'
p3295
I10
tp3296
a(S'Ophir Frieder'
p3297
I9
tp3298
a(S'Xiaoyang Sean Wang'
p3299
I8
tp3300
a(S'Daniel S. Weller'
p3301
I8
tp3302
a(S'Daniel D. Stancil'
p3303
I8
tp3304
a(S'Ragunathan Rajkumar'
p3305
I8
tp3306
a(S'Christian Maih\xc3\xb6fer'
p3307
I7
tp3308
a(S'Tim Leinm\xc3\xbcller'
p3309
I6
tp3310
a(S'Paolo Trunfio'
p3311
I6
tp3312
a(S'Elmar Schoch'
p3313
I6
tp3314
a(S'Sandeep K. S. Gupta'
p3315
I6
tp3316
a(S'Manish Kochhal'
p3317
I6
tp3318
a(S'Loren Schwiebert'
p3319
I6
tp3320
a(S'Lap Kong Law'
p3321
I5
tp3322
a(S'Shahram Ghandeharizadeh'
p3323
I4
tp3324
a(S'Shyam Kapadia'
p3325
I3
tp3326
a(S'J\xc3\xb6rg Liebeherr'
p3327
I3
tp3328
a(S'Jun-ichi Akahani'
p3329
I3
tp3330
a(S'Yutaka Yanagisawa'
p3331
I3
tp3332
a(S'Julio Solano-Gonz\xc3\xa1lez'
p3333
I3
tp3334
a(S'Tetsuji Satoh'
p3335
I3
tp3336
a(S'Ranga Makanaboyina'
p3337
I2
tp3338
a(S'Adithya C. H.'
p3339
I2
tp3340
a(S'Ravi M. Yadumurthy'
p3341
I2
tp3342
a(S'Mohan Sadashivaiah'
p3343
I2
tp3344
a(S'Mahtab Seddigh'
p3345
I2
tp3346
a(S'Changzhou Wang'
p3347
I1
tp3348
a(S'Stephen D. Patek'
p3349
I1
tp3350
a(S'Jianping Wang'
p3351
I1
tp3352
a(S'Rangasami L. Kashyap'
p3353
I1
tp3354
a(S'Yunyao Qu'
p3355
I1
tp3356
a(S'Like Gao'
p3357
I1
tp3358
a(S'Shu-Ching Chen'
p3359
I1
tp3360
a(S'Haiyong Wang'
p3361
I1
tp3362
asS'Romit Roy Choudhury'
p3363
(lp3364
(S'Nitin H. Vaidya'
p3365
I66
tp3366
a(S'Yu-Chee Tseng'
p3367
I53
tp3368
a(S'Tzi-cker Chiueh'
p3369
I40
tp3370
a(S'Kartik Gopalan'
p3371
I40
tp3372
a(S'Ashish Raniwala'
p3373
I40
tp3374
a(S'Mario Gerla'
p3375
I30
tp3376
a(S'Milica Stojanovic'
p3377
I30
tp3378
a(S'Jang-Ping Sheu'
p3379
I28
tp3380
a(S'Andrew T. Campbell'
p3381
I26
tp3382
a(S'Young-Bae Ko'
p3383
I22
tp3384
a(S'Pradeep Kyasanur'
p3385
I19
tp3386
a(S'Robin Kravets'
p3387
I19
tp3388
a(S'Chiara Petrioli'
p3389
I15
tp3390
a(S'Chatschik Bisdikian'
p3391
I13
tp3392
a(S'Mahmoud Naghshineh'
p3393
I13
tp3394
a(S'Javier Gomez'
p3395
I13
tp3396
a(S'Michele Zorzi'
p3397
I12
tp3398
a(S'P. Krishnan'
p3399
I10
tp3400
a(S'Mingyan Liu'
p3401
I8
tp3402
a(S'Enrique J. Duarte-Melo'
p3403
I8
tp3404
a(S'Shweta Bhandare'
p3405
I7
tp3406
a(S'Sheetalkumar Doshi'
p3407
I7
tp3408
a(S'Timothy X. Brown'
p3409
I7
tp3410
a(S'Chi-Hsun Liu'
p3411
I6
tp3412
a(S'Shih-Lin Wu'
p3413
I6
tp3414
a(S'Curt Schurgers'
p3415
I5
tp3416
a(S'Cigdem Sengul'
p3417
I4
tp3418
a(S'Stamatis Stefanakos'
p3419
I4
tp3420
a(S'Luiz Filipe M. Vieira'
p3421
I4
tp3422
a(S'Leonardo Badia'
p3423
I4
tp3424
a(S'Michael Rohs'
p3425
I4
tp3426
a(S'Michele Mastrogiovanni'
p3427
I4
tp3428
a(S'Melike Erol'
p3429
I4
tp3430
a(S'Saumitra M. Das'
p3431
I3
tp3432
a(S'Y. Charlie Hu'
p3433
I3
tp3434
a(S'Jules Jaffe'
p3435
I3
tp3436
a(S'Himabindu Pucha'
p3437
I2
tp3438
a(S'Frank Siegemund'
p3439
I1
tp3440
asS'Antonio F. G\xc3\xb3mez-Skarmeta'
p3441
(lp3442
(S'Antonio F. G\xc3\xb3mez-Skarmeta'
p3443
I6
tp3444
a(S'Pedro Garc\xc3\xada L\xc3\xb3pez'
p3445
I5
tp3446
a(S'Carles Pairot'
p3447
I1
tp3448
asS'Man-Lai Tang'
p3449
(lp3450
(S'Johannes Gehrke'
p3451
I32
tp3452
a(S'Raghu Ramakrishnan'
p3453
I16
tp3454
a(S'Venkatesh Ganti'
p3455
I10
tp3456
a(S'Sik-Yum Lee'
p3457
I6
tp3458
a(S'Hong-Tu Zhu'
p3459
I5
tp3460
a(S'Xin-Yuan Song'
p3461
I1
tp3462
a(S'Bin Lu'
p3463
I1
tp3464
asS'Min Chen'
p3465
(lp3466
(S'Ian F. Akyildiz'
p3467
I358
tp3468
a(S'Pierangela Samarati'
p3469
I95
tp3470
a(S'Scott Shenker'
p3471
I74
tp3472
a(S'Sajal K. Das'
p3473
I66
tp3474
a(S'Sushil Jajodia'
p3475
I42
tp3476
a(S'Yuguang Fang'
p3477
I40
tp3478
a(S'Daqing Zhang'
p3479
I39
tp3480
a(S'Christian S. Jensen'
p3481
I38
tp3482
a(S'Rajeev Motwani'
p3483
I34
tp3484
a(S'Hung Keng Pung'
p3485
I30
tp3486
a(S'Kee Chaing Chua'
p3487
I30
tp3488
a(S'Tao Gu'
p3489
I29
tp3490
a(S'Richard M. Karp'
p3491
I28
tp3492
a(S'Evaggelia Pitoura'
p3493
I27
tp3494
a(S'Guohong Cao'
p3495
I23
tp3496
a(S'V. S. Subrahmanian'
p3497
I23
tp3498
a(S'David Kotz'
p3499
I22
tp3500
a(S'Karl Aberer'
p3501
I20
tp3502
a(S'Maria Luisa Sapino'
p3503
I20
tp3504
a(S'George Samaras'
p3505
I20
tp3506
a(S'Ben Y. Zhao'
p3507
I20
tp3508
a(S'Y. C. Tay'
p3509
I19
tp3510
a(S'Mayur Datar'
p3511
I17
tp3512
a(S'Manfred Hauswirth'
p3513
I16
tp3514
a(S'Jennifer Widom'
p3515
I15
tp3516
a(S'Michalis Faloutsos'
p3517
I15
tp3518
a(S'Christopher Metz'
p3519
I15
tp3520
a(S'Zhi-Hua Zhou'
p3521
I15
tp3522
a(S'Sylvia Ratnasamy'
p3523
I14
tp3524
a(S'Elke A. Rundensteiner'
p3525
I14
tp3526
a(S'Mark Handley'
p3527
I14
tp3528
a(S'Srikanth V. Krishnamurthy'
p3529
I14
tp3530
a(S'Roman Schmidt'
p3531
I13
tp3532
a(S'Sneha Kumar Kasera'
p3533
I12
tp3534
a(S'Wenye Wang'
p3535
I12
tp3536
a(S'Amiya Bhattacharya'
p3537
I9
tp3538
a(S'Yi-Bing Lin'
p3539
I9
tp3540
a(S'Vassilios Tsaoussidis'
p3541
I9
tp3542
a(S'Chris Wells'
p3543
I8
tp3544
a(S'Hakim Weatherspoon'
p3545
I8
tp3546
a(S'Sean C. Rhea'
p3547
I8
tp3548
a(S'Patrick R. Eaton'
p3549
I8
tp3550
a(S'Ming Li'
p3551
I8
tp3552
a(S'John Kubiatowicz'
p3553
I8
tp3554
a(S'Magdalena Punceva'
p3555
I8
tp3556
a(S'Dennis Geels'
p3557
I8
tp3558
a(S'Stardas Pakalnis'
p3559
I6
tp3560
a(S'Arvind Arasu'
p3561
I6
tp3562
a(S'Claude Castelluccia'
p3563
I6
tp3564
a(S'Alminas Civilis'
p3565
I6
tp3566
a(S'Shivnath Babu'
p3567
I6
tp3568
a(S'Brian Babcock'
p3569
I6
tp3570
a(S'Lap Kong Law'
p3571
I5
tp3572
a(S'Utkarsh Srivastava'
p3573
I5
tp3574
a(S'Boo-Young Chung'
p3575
I5
tp3576
a(S'Thomas F. La Porta'
p3577
I5
tp3578
a(S'Itaru Nishizawa'
p3579
I5
tp3580
a(S'Prashant J. Shenoy'
p3581
I5
tp3582
a(S'Dilys Thomas'
p3583
I5
tp3584
a(S'Gordon L. St\xc3\xbcber'
p3585
I5
tp3586
a(S'Arup Acharya'
p3587
I5
tp3588
a(S'Keith Ito'
p3589
I5
tp3590
a(S'Rohit Varma'
p3591
I5
tp3592
a(S'Ramachandran Ramjee'
p3593
I5
tp3594
a(S'Apratim Purakayastha'
p3595
I5
tp3596
a(S'Erran L. Li'
p3597
I5
tp3598
a(S'B. R. Badrinath'
p3599
I4
tp3600
a(S'Renu Tewari'
p3601
I4
tp3602
a(S'Anup Kumar Talukdar'
p3603
I4
tp3604
a(S'Adrian Lahanas'
p3605
I4
tp3606
a(S'Venkata Duvvuri'
p3607
I3
tp3608
a(S'Heung Wong'
p3609
I3
tp3610
a(S'Ai-Chun Pang'
p3611
I3
tp3612
a(S'Wai-Cheung Ip'
p3613
I3
tp3614
a(S'Kazuhiro Minami'
p3615
I2
tp3616
a(S'Norman H. Cohen'
p3617
I2
tp3618
a(S'Luke Wong'
p3619
I2
tp3620
a(S'Danny L. Yeh'
p3621
I2
tp3622
a(S'Leyla Toumi'
p3623
I1
tp3624
a(S'Dirk Staehle'
p3625
I1
tp3626
a(S'Raimo Kantola'
p3627
I1
tp3628
a(S'Whai-En Chen'
p3629
I1
tp3630
a(S'Herman Chung-Hwa Rao'
p3631
I1
tp3632
a(S'Murali Mani'
p3633
I1
tp3634
a(S'Yueh-Hsin Sung'
p3635
I1
tp3636
a(S'J. Antonio Garc\xc3\xada-Mac\xc3\xadas'
p3637
I1
tp3638
a(S'Jos\xc3\xa9 Costa-Requena'
p3639
I1
tp3640
a(S'Kenji Leibnitz'
p3641
I1
tp3642
a(S'Gilles Berger-Sabbatel'
p3643
I1
tp3644
a(S'Riquan Zhang'
p3645
I1
tp3646
a(S'Chien-Chao Tseng'
p3647
I1
tp3648
a(S'Franck Rousseau'
p3649
I1
tp3650
a(S'Gwo-Chuan Lee'
p3651
I1
tp3652
a(S'Konstantin Tsipotis'
p3653
I1
tp3654
a(S'Ren-Shiou Liu'
p3655
I1
tp3656
a(S'Andrzej Duda'
p3657
I1
tp3658
a(S'Tsan-Pin Wang'
p3659
I1
tp3660
a(S'Nicklas Beijar'
p3661
I1
tp3662
a(S'Hong Su'
p3663
I1
tp3664
asS'Ibrahim Korpeoglu'
p3665
(lp3666
(S'Sajal K. Das'
p3667
I66
tp3668
a(S'Y\xc3\xbccel Saygin'
p3669
I28
tp3670
a(S'Yannis Manolopoulos'
p3671
I22
tp3672
a(S'Dimitrios Katsaros'
p3673
I11
tp3674
a(S'Amiya Bhattacharya'
p3675
I9
tp3676
a(S'\xc3\x96zg\xc3\xbcr Ulusoy'
p3677
I9
tp3678
a(S'Alexandros Nanopoulos'
p3679
I9
tp3680
a(S'Graham Cormode'
p3681
I8
tp3682
a(S'Chenxi Zhu'
p3683
I7
tp3684
a(S'M. Scott Corson'
p3685
I7
tp3686
a(S'Nevzat Hurkan Balkir'
p3687
I4
tp3688
a(S'Gultekin \xc3\x96zsoyoglu'
p3689
I4
tp3690
a(S'Z. Meral \xc3\x96zsoyoglu'
p3691
I4
tp3692
asS'Raghupathy Sivakumar'
p3693
(lp3694
(S'Scott Shenker'
p3695
I74
tp3696
a(S'Ramesh Govindan'
p3697
I48
tp3698
a(S'Deborah Estrin'
p3699
I47
tp3700
a(S'Deepak Ganesan'
p3701
I39
tp3702
a(S'Anish Arora'
p3703
I24
tp3704
a(S'Mikhail Nesterenko'
p3705
I17
tp3706
a(S'Tarek N. Saadawi'
p3707
I12
tp3708
a(S'Shugong Xu'
p3709
I10
tp3710
a(S'Arunesh Mishra'
p3711
I10
tp3712
a(S'William A. Arbaugh'
p3713
I9
tp3714
a(S'Mike Fisk'
p3715
I7
tp3716
a(S'Joshua Neil'
p3717
I7
tp3718
a(S'Christos Papadopoulos'
p3719
I7
tp3720
a(S'Gina Fisk'
p3721
I7
tp3722
a(S'Emre Ertin'
p3723
I6
tp3724
a(S'William Leal'
p3725
I6
tp3726
a(S'Rajiv Ramnath'
p3727
I6
tp3728
a(S'Nick L. Petroni Jr.'
p3729
I2
tp3730
a(S'Timothy Fraser'
p3731
I2
tp3732
asS'Martin J. Wainwright'
p3733
(lp3734
(S'Jiawei Han'
p3735
I122
tp3736
a(S'Jian Pei'
p3737
I59
tp3738
a(S'Wang Chiew Tan'
p3739
I40
tp3740
a(S'Jianyong Wang'
p3741
I37
tp3742
a(S'Andreas Westfeld'
p3743
I37
tp3744
a(S'Ronald Fagin'
p3745
I29
tp3746
a(S'Phokion G. Kolaitis'
p3747
I28
tp3748
a(S'Lucian Popa'
p3749
I25
tp3750
a(S'Umeshwar Dayal'
p3751
I25
tp3752
a(S'Meichun Hsu'
p3753
I24
tp3754
a(S'Helen Pinto'
p3755
I21
tp3756
a(S'Xindong Wu'
p3757
I21
tp3758
a(S'Gianluigi Greco'
p3759
I21
tp3760
a(S'Qiming Chen'
p3761
I21
tp3762
a(S'Behzad Mortazavi-Asl'
p3763
I21
tp3764
a(S'Wei Wang'
p3765
I20
tp3766
a(S'Wenfei Fan'
p3767
I13
tp3768
a(S'Shichao Zhang'
p3769
I11
tp3770
a(S'Millist W. Vincent'
p3771
I11
tp3772
a(S'Jef Wijsen'
p3773
I10
tp3774
a(S'Chengfei Liu'
p3775
I10
tp3776
a(S'Joong Hyuk Chang'
p3777
I10
tp3778
a(S'Leonid Libkin'
p3779
I10
tp3780
a(S'Marcelo Arenas'
p3781
I10
tp3782
a(S'Peter Buneman'
p3783
I10
tp3784
a(S'Jixue Liu'
p3785
I9
tp3786
a(S'Sergio Greco'
p3787
I9
tp3788
a(S'Ester Zumpano'
p3789
I8
tp3790
a(S'Carmem S. Hara'
p3791
I7
tp3792
a(S'Susan B. Davidson'
p3793
I7
tp3794
a(S'Hye-Chung Kum'
p3795
I5
tp3796
asS'Hossam S. Hassanein'
p3797
(lp3798
(S'Stefan Decker'
p3799
I29
tp3800
a(S'Marco Conti'
p3801
I24
tp3802
a(S'Anish Arora'
p3803
I24
tp3804
a(S'Sergey Melnik'
p3805
I23
tp3806
a(S'Cecilia Mascolo'
p3807
I23
tp3808
a(S'Enrico Gregori'
p3809
I20
tp3810
a(S'Murat Demirbas'
p3811
I19
tp3812
a(S'Elizabeth M. Belding-Royer'
p3813
I18
tp3814
a(S'Mikhail Nesterenko'
p3815
I17
tp3816
a(S'Anupam Joshi'
p3817
I17
tp3818
a(S'Timothy W. Finin'
p3819
I16
tp3820
a(S'Mohamed G. Gouda'
p3821
I14
tp3822
a(S'Ted Herman'
p3823
I13
tp3824
a(S'Sandeep S. Kulkarni'
p3825
I12
tp3826
a(S'Vineet Mittal'
p3827
I11
tp3828
a(S'Raffaele Bruno'
p3829
I11
tp3830
a(S'Umamaheswaran Arumugam'
p3831
I11
tp3832
a(S'Vinod Kulathumani'
p3833
I11
tp3834
a(S'Hui Cao'
p3835
I11
tp3836
a(S'Hongwei Zhang'
p3837
I11
tp3838
a(S'Vinayak Naik'
p3839
I11
tp3840
a(S'Young-ri Choi'
p3841
I11
tp3842
a(S'Prabal Dutta'
p3843
I11
tp3844
a(S'Sandip Bapat'
p3845
I11
tp3846
a(S'Mark Miyashita'
p3847
I11
tp3848
a(S'Adnan Vora'
p3849
I11
tp3850
a(S'Gordon S. Blair'
p3851
I10
tp3852
a(S'Charles E. Perkins'
p3853
I9
tp3854
a(S'Paolo Bellavista'
p3855
I8
tp3856
a(S'Athena Vakali'
p3857
I8
tp3858
a(S'Shweta Bhandare'
p3859
I7
tp3860
a(S'Harry Chen'
p3861
I7
tp3862
a(S'Sheetalkumar Doshi'
p3863
I7
tp3864
a(S'Timothy X. Brown'
p3865
I7
tp3866
a(S'Sung-Ju Lee'
p3867
I6
tp3868
a(S'Paul Grace'
p3869
I6
tp3870
a(S'Wolfgang Emmerich'
p3871
I6
tp3872
a(S'Antonio Corradi'
p3873
I6
tp3874
a(S'Licia Capra'
p3875
I6
tp3876
a(S'Cheng-Zhong Xu'
p3877
I5
tp3878
a(S'George Pallis'
p3879
I5
tp3880
a(S'Sandeep Sibal'
p3881
I5
tp3882
a(S'Michael Fry'
p3883
I4
tp3884
a(S'Glen MacLarty'
p3885
I4
tp3886
a(S'Prasenjit Mitra'
p3887
I4
tp3888
a(S'Atanu Ghosh'
p3889
I4
tp3890
a(S'Jacobus E. van der Merwe'
p3891
I3
tp3892
a(S'Cesare Stefanelli'
p3893
I3
tp3894
a(S'David H. Shur'
p3895
I3
tp3896
a(S'Charles D. Cranor'
p3897
I3
tp3898
a(S'Charles R. Kalmanek'
p3899
I3
tp3900
a(S'Matthew Green'
p3901
I3
tp3902
a(S'Cormac J. Sreenan'
p3903
I3
tp3904
a(S'Golden G. Richard III'
p3905
I3
tp3906
a(S'Rebecca Montanari'
p3907
I3
tp3908
a(S'Xiaobo Zhou'
p3909
I2
tp3910
a(S'Jianbin Wei'
p3911
I2
tp3912
asS'Masashi Sugiyama'
p3913
(lp3914
(S'Michael C. Fu'
p3915
I7
tp3916
asS'James Won-Ki Hong'
p3917
(lp3918
(S'Prathima Agrawal'
p3919
I37
tp3920
a(S'Krishna M. Sivalingam'
p3921
I37
tp3922
a(S'Jyh-Cheng Chen'
p3923
I37
tp3924
a(S'Christine E. Jones'
p3925
I31
tp3926
a(S'Kian-Lee Tan'
p3927
I30
tp3928
a(S'Beng Chin Ooi'
p3929
I22
tp3930
a(S'Christopher Metz'
p3931
I15
tp3932
a(S'James W. Hong'
p3933
I10
tp3934
a(S'Yi-Bing Lin'
p3935
I9
tp3936
a(S'Pradeep Ray'
p3937
I8
tp3938
a(S'Hong-Taek Ju'
p3939
I8
tp3940
a(S'Elias Proc\xc3\xb3pio Duarte Jr.'
p3941
I6
tp3942
a(S'Edmundo Roberto Mauro Madeira'
p3943
I6
tp3944
a(S'Burkhard Stiller'
p3945
I6
tp3946
a(S'Peter Reichl'
p3947
I5
tp3948
a(S'Byunggu Yu'
p3949
I5
tp3950
a(S'Hiroshi Kuriyama'
p3951
I5
tp3952
a(S'James Won-Ki Hong'
p3953
I5
tp3954
a(S'Cheng Hian Goh'
p3955
I5
tp3956
a(S'P. Zuluaga'
p3957
I4
tp3958
a(S'Guangrong Chen'
p3959
I4
tp3960
a(S'Vijay Varadharajan'
p3961
I4
tp3962
a(S'Agnes Lim'
p3963
I3
tp3964
a(S'Young-Chul Shim'
p3965
I3
tp3966
a(S'Il-Soo Ahn'
p3967
I3
tp3968
a(S'Kenichi Mase'
p3969
I3
tp3970
a(S'Makoto Takano'
p3971
I3
tp3972
a(S'Ratko Orlandic'
p3973
I3
tp3974
a(S'Young-Tak Kim'
p3975
I3
tp3976
a(S'J\xc3\xbcrgen Sch\xc3\xb6nw\xc3\xa4lder'
p3977
I3
tp3978
a(S'Nobuo Fujii'
p3979
I3
tp3980
a(S'Jan Gerke'
p3981
I2
tp3982
a(S'Carolyn McGregor'
p3983
I2
tp3984
a(S'Michael Stacey'
p3985
I2
tp3986
a(S'Joan Serrat'
p3987
I2
tp3988
a(S'Shen-Tat Goh'
p3989
I2
tp3990
a(S'Placi Flury'
p3991
I2
tp3992
a(S'Mi-Young Choi'
p3993
I2
tp3994
a(S'Alessandro Maglianella'
p3995
I1
tp3996
a(S'Whai-En Chen'
p3997
I1
tp3998
a(S'Raimo Kantola'
p3999
I1
tp4000
a(S'Stanislav Milanovic'
p4001
I1
tp4002
a(S'Jos\xc3\xa9 Costa-Requena'
p4003
I1
tp4004
a(S'Nicklas Beijar'
p4005
I1
tp4006
a(S'Yueh-Hsin Sung'
p4007
I1
tp4008
asS'Bu-Sung Lee'
p4009
(lp4010
(S'Ian F. Akyildiz'
p4011
I358
tp4012
a(S'Xudong Wang'
p4013
I45
tp4014
a(S'Weilin Wang'
p4015
I40
tp4016
a(S'Hari Balakrishnan'
p4017
I34
tp4018
a(S'Christian Hoymann'
p4019
I5
tp4020
a(S'Jingling Xue'
p4021
I4
tp4022
a(S'Ronny Krashinsky'
p4023
I4
tp4024
a(S'Peiyi Tang'
p4025
I3
tp4026
a(S'Nancy Jesuale'
p4027
I2
tp4028
asS'Feng Wang'
p4029
(lp4030
(S'Piet Van Mieghem'
p4031
I18
tp4032
a(S'Peng-Jun Wan'
p4033
I15
tp4034
a(S'Jan M. Rabaey'
p4035
I12
tp4036
a(S'Xiang-Yang Li'
p4037
I11
tp4038
a(S'Gruia Calinescu'
p4039
I11
tp4040
a(S'Ophir Frieder'
p4041
I9
tp4042
a(S'Justin Zobel'
p4043
I7
tp4044
a(S'George Pavlou'
p4045
I7
tp4046
a(S'Fernando A. Kuipers'
p4047
I6
tp4048
a(S'Hans De Neve'
p4049
I6
tp4050
a(S'Gustavo de Veciana'
p4051
I5
tp4052
a(S'Jingling Xue'
p4053
I4
tp4054
a(S'Jana van Greunen'
p4055
I3
tp4056
a(S'Timothy C. Hoad'
p4057
I3
tp4058
a(S'Peiyi Tang'
p4059
I3
tp4060
a(S'N. Tchervenski'
p4061
I2
tp4062
a(S'Alexander Zelikovsky'
p4063
I2
tp4064
a(S'Sushil K. Prasad'
p4065
I2
tp4066
a(S'John A. Stine'
p4067
I2
tp4068
a(S'Ernst Althaus'
p4069
I2
tp4070
a(S'Ning Wang'
p4071
I2
tp4072
a(S'Ion I. Mandoiu'
p4073
I2
tp4074
asS'Ram D. Gopal'
p4075
(lp4076
(S'Izak Benbasat'
p4077
I111
tp4078
a(S'Robert J. Kauffman'
p4079
I99
tp4080
a(S'Eric K. Clemons'
p4081
I67
tp4082
a(S'Lorin M. Hitt'
p4083
I59
tp4084
a(S'Sirkka L. Jarvenpaa'
p4085
I59
tp4086
a(S'Michael Vitale'
p4087
I54
tp4088
a(S'Noam Tractinsky'
p4089
I45
tp4090
a(S'Kar Yan Tam'
p4091
I36
tp4092
a(S'James Y. L. Thong'
p4093
I35
tp4094
a(S'Anol Bhattacherjee'
p4095
I33
tp4096
a(S'Vidyanand Choudhary'
p4097
I33
tp4098
a(S'Andrew B. Whinston'
p4099
I32
tp4100
a(S'Hemant K. Bhargava'
p4101
I26
tp4102
a(S'Frederick J. Riggins'
p4103
I22
tp4104
a(S'Sangjae Lee'
p4105
I21
tp4106
a(S'Weiyin Hong'
p4107
I20
tp4108
a(S'Ingoo Han'
p4109
I14
tp4110
a(S'Karl Reiner Lang'
p4111
I14
tp4112
a(S'Hans-Peter Kriegel'
p4113
I14
tp4114
a(S'Guodong (Gordon) Gao'
p4115
I12
tp4116
a(S'Sulin Ba'
p4117
I11
tp4118
a(S'Zhenhui Jiang'
p4119
I10
tp4120
a(S'Salvatore Ruggieri'
p4121
I8
tp4122
a(S'Han Zhang'
p4123
I7
tp4124
a(S'John P. Curtin'
p4125
I7
tp4126
a(S'Yoris A. Au'
p4127
I7
tp4128
a(S'Martin Ester'
p4129
I7
tp4130
a(S'Roumen Vragov'
p4131
I6
tp4132
a(S'J\xc3\xb6rg Sander'
p4133
I4
tp4134
a(S'Bumsuk Jung'
p4135
I4
tp4136
a(S'Chiang Lee'
p4137
I2
tp4138
a(S'Chi-Sheng Shih'
p4139
I1
tp4140
a(S'Yaw-Huei Chen'
p4141
I1
tp4142
a(S'Bernhard Braunm\xc3\xbcller'
p4143
I1
tp4144
asS'Vijay S. Mookerjee'
p4145
(lp4146
(S'Wil M. P. van der Aalst'
p4147
I161
tp4148
a(S'Izak Benbasat'
p4149
I111
tp4150
a(S'Robert J. Kauffman'
p4151
I99
tp4152
a(S'Eric K. Clemons'
p4153
I67
tp4154
a(S'Elisa Bertino'
p4155
I64
tp4156
a(S'Lorin M. Hitt'
p4157
I59
tp4158
a(S'Ahmed K. Elmagarmid'
p4159
I58
tp4160
a(S'Amit P. Sheth'
p4161
I50
tp4162
a(S'Vassilios S. Verykios'
p4163
I40
tp4164
a(S'Vidyanand Choudhary'
p4165
I33
tp4166
a(S'Y\xc3\xbccel Saygin'
p4167
I28
tp4168
a(S'Veda C. Storey'
p4169
I26
tp4170
a(S'Elena Dasseni'
p4171
I26
tp4172
a(S'Hemant K. Bhargava'
p4173
I26
tp4174
a(S'Schahram Dustdar'
p4175
I25
tp4176
a(S'Frederick J. Riggins'
p4177
I22
tp4178
a(S'Greg Linden'
p4179
I21
tp4180
a(S'Jeremy York'
p4181
I21
tp4182
a(S'Sumit Sarkar'
p4183
I21
tp4184
a(S'Brent Smith'
p4185
I21
tp4186
a(S'Barrie R. Nault'
p4187
I21
tp4188
a(S'Myra Spiliopoulou'
p4189
I20
tp4190
a(S'Srinivasan Raghunathan'
p4191
I18
tp4192
a(S'Kunsoo Han'
p4193
I18
tp4194
a(S'Mathias Weske'
p4195
I18
tp4196
a(S'Rathindra Sarathy'
p4197
I17
tp4198
a(S'Krishnamurty Muralidhar'
p4199
I17
tp4200
a(S'Bamshad Mobasher'
p4201
I16
tp4202
a(S'Miki Nakagawa'
p4203
I15
tp4204
a(S'Jennifer Widom'
p4205
I15
tp4206
a(S'Karl Reiner Lang'
p4207
I14
tp4208
a(S'Maria E. Orlowska'
p4209
I13
tp4210
a(S'Anindya Ghose'
p4211
I13
tp4212
a(S'Debabrata Dey'
p4213
I12
tp4214
a(S'Huseyin Cavusoglu'
p4215
I12
tp4216
a(S'Dolf Gr\xc3\xbcnbauer'
p4217
I11
tp4218
a(S'Birendra Mishra'
p4219
I9
tp4220
a(S'H. M. W. (Eric) Verbeek'
p4221
I8
tp4222
a(S'Bettina Berendt'
p4223
I8
tp4224
a(S'Honghua Dai'
p4225
I8
tp4226
a(S'Wei T. Yue'
p4227
I8
tp4228
a(S'Rajendra P. Srivastava'
p4229
I8
tp4230
a(S'Tao Luo'
p4231
I8
tp4232
a(S'Elena Baralis'
p4233
I8
tp4234
a(S'Ekkart Kindler'
p4235
I7
tp4236
a(S'Shazia W. Sadiq'
p4237
I6
tp4238
a(S'Theodore J. Mock'
p4239
I6
tp4240
a(S'Metin \xc3\x87akanyildirim'
p4241
I6
tp4242
a(S'Roumen Vragov'
p4243
I6
tp4244
a(S'Lili Sun'
p4245
I5
tp4246
a(S'Esther Gal-Or'
p4247
I5
tp4248
a(S'Dongmin Kim'
p4249
I4
tp4250
a(S'Robert C. Goldstein'
p4251
I2
tp4252
a(S'Atish P. Sinha'
p4253
I2
tp4254
a(S'John A. Campbell'
p4255
I2
tp4256
a(S'Jerrold H. May'
p4257
I2
tp4258
a(S'Harald Ullrich'
p4259
I2
tp4260
a(S'John Yen'
p4261
I1
tp4262
a(S'Jos\xc3\xa9 Luiz Fiadeiro'
p4263
I1
tp4264
a(S'Dwi H. Widyantoro'
p4265
I1
tp4266
asS'Bin Liu'
p4267
(lp4268
(S'Pierangela Samarati'
p4269
I95
tp4270
a(S'Dimitris Papadias'
p4271
I92
tp4272
a(S'Yufei Tao'
p4273
I66
tp4274
a(S'Elisa Bertino'
p4275
I64
tp4276
a(S'Philip S. Yu'
p4277
I61
tp4278
a(S'Mohammed Javeed Zaki'
p4279
I57
tp4280
a(S'Ming-Syan Chen'
p4281
I52
tp4282
a(S'Dik Lun Lee'
p4283
I51
tp4284
a(S'Silvana Castano'
p4285
I45
tp4286
a(S'Nikos Mamoulis'
p4287
I43
tp4288
a(S'Christos Faloutsos'
p4289
I43
tp4290
a(S'Michael J. Franklin'
p4291
I43
tp4292
a(S'Chris Clifton'
p4293
I40
tp4294
a(S'Wang Chiew Tan'
p4295
I40
tp4296
a(S'Janet L. Wiener'
p4297
I37
tp4298
a(S'Andreas Westfeld'
p4299
I37
tp4300
a(S'Andrew Tomkins'
p4301
I35
tp4302
a(S'Prabhakar Raghavan'
p4303
I35
tp4304
a(S'Andrei Z. Broder'
p4305
I35
tp4306
a(S'Wang-Chien Lee'
p4307
I34
tp4308
a(S'Raymie Stata'
p4309
I34
tp4310
a(S'Farzin Maghoul'
p4311
I34
tp4312
a(S'Sridhar Rajagopalan'
p4313
I34
tp4314
a(S'Ravi Kumar'
p4315
I34
tp4316
a(S'Bongki Moon'
p4317
I29
tp4318
a(S'Jianliang Xu'
p4319
I28
tp4320
a(S'Sabrina De Capitani di Vimercati'
p4321
I27
tp4322
a(S'Kyriakos Mouratidis'
p4323
I25
tp4324
a(S'Joel H. Saltz'
p4325
I24
tp4326
a(S'Bo Li'
p4327
I24
tp4328
a(S'Guohong Cao'
p4329
I23
tp4330
a(S'Dan Suciu'
p4331
I22
tp4332
a(S'H. V. Jagadish'
p4333
I21
tp4334
a(S'Arbee L. P. Chen'
p4335
I18
tp4336
a(S'Val\xc3\xa9rie Issarny'
p4337
I18
tp4338
a(S'Wen-Syan Li'
p4339
I18
tp4340
a(S'Kun-Lung Wu'
p4341
I18
tp4342
a(S'Laks V. S. Lakshmanan'
p4343
I17
tp4344
a(S'Elena Ferrari'
p4345
I17
tp4346
a(S'Fran\xc3\xa7oise Sailhan'
p4347
I15
tp4348
a(S'Qinglong Hu'
p4349
I15
tp4350
a(S'Mary F. Fernandez'
p4351
I15
tp4352
a(S'Hans-Peter Kriegel'
p4353
I14
tp4354
a(S'Elke A. Rundensteiner'
p4355
I14
tp4356
a(S'Daniel A. Keim'
p4357
I14
tp4358
a(S'Ernesto Damiani'
p4359
I14
tp4360
a(S'Stefano Paraboschi'
p4361
I13
tp4362
a(S'Clement T. Yu'
p4363
I13
tp4364
a(S'Wenfei Fan'
p4365
I13
tp4366
a(S'Xueyan Tang'
p4367
I13
tp4368
a(S'George Cybenko'
p4369
I12
tp4370
a(S'Brian E. Brewington'
p4371
I12
tp4372
a(S'Thomas Seidl'
p4373
I11
tp4374
a(S'Vijay Kumar'
p4375
I11
tp4376
a(S'Margaret H. Dunham'
p4377
I11
tp4378
a(S'Hao Zhang'
p4379
I10
tp4380
a(S'Shou-Chih Lo'
p4381
I10
tp4382
a(S'Mehmet Altinel'
p4383
I10
tp4384
a(S'Zhe Wang'
p4385
I10
tp4386
a(S'Peter M. Fischer'
p4387
I10
tp4388
a(S'Peter Buneman'
p4389
I10
tp4390
a(S'Yanlei Diao'
p4391
I10
tp4392
a(S'Weiyi Meng'
p4393
I9
tp4394
a(S'Xiaolin Wu'
p4395
I9
tp4396
a(S'Stefan Berchtold'
p4397
I9
tp4398
a(S'Sorina Dumitrescu'
p4399
I9
tp4400
a(S'Yana Kadiyska'
p4401
I8
tp4402
a(S'Atsuyuki Morishima'
p4403
I8
tp4404
a(S'Guanling Lee'
p4405
I7
tp4406
a(S'Carmem S. Hara'
p4407
I7
tp4408
a(S'Fang Liu'
p4409
I7
tp4410
a(S'Susan B. Davidson'
p4411
I7
tp4412
a(S'Ramesh Jain'
p4413
I7
tp4414
a(S'Qun Ren'
p4415
I7
tp4416
a(S'Simone Santini'
p4417
I6
tp4418
a(S'Jiun-Long Huang'
p4419
I6
tp4420
a(S'Takahiro Hara'
p4421
I6
tp4422
a(S'Amarnath Gupta'
p4423
I6
tp4424
a(S'Subbu N. Subramanian'
p4425
I5
tp4426
a(S'Fereidoon Sadri'
p4427
I5
tp4428
a(S'Apratim Purakayastha'
p4429
I5
tp4430
a(S'Deepinder P. Sidhu'
p4431
I4
tp4432
a(S'Anisoara Nica'
p4433
I4
tp4434
a(S'Spiridon Bakiras'
p4435
I4
tp4436
a(S'Amy J. Lee'
p4437
I4
tp4438
a(S'Matthew Denny'
p4439
I4
tp4440
a(S'Michael Friendly'
p4441
I4
tp4442
a(S'Chih-Hao Hsu'
p4443
I3
tp4444
a(S'Paul Castro'
p4445
I3
tp4446
a(S'Ernest Kwan'
p4447
I3
tp4448
a(S'Songting Chen'
p4449
I3
tp4450
a(S'Meng-Shin Yeh'
p4451
I2
tp4452
a(S'Li Yin'
p4453
I2
tp4454
a(S'Bin Liu'
p4455
I2
tp4456
a(S'K. Y. Michael Wong'
p4457
I2
tp4458
a(S'Si Wu'
p4459
I2
tp4460
a(S'Pedro M. Valero-Mora'
p4461
I1
tp4462
a(S'Murali Mani'
p4463
I1
tp4464
a(S'Alexander L. Wijesinha'
p4465
I1
tp4466
a(S'Sebastian van Delden'
p4467
I1
tp4468
a(S'Forrest W. Young'
p4469
I1
tp4470
a(S'Fernando Gomez'
p4471
I1
tp4472
a(S'Srikanta P. Kumar'
p4473
I1
tp4474
a(S'Andreas Koeller'
p4475
I1
tp4476
a(S'Hong Su'
p4477
I1
tp4478
asS'Gerhard Tr\xc3\xb6ster'
p4479
(lp4480
(S'Ian F. Akyildiz'
p4481
I358
tp4482
a(S'Weilian Su'
p4483
I189
tp4484
a(S'Erdal Cayirci'
p4485
I187
tp4486
a(S'Yogesh Sankarasubramaniam'
p4487
I183
tp4488
a(S'Scott Shenker'
p4489
I74
tp4490
a(S'Sajal K. Das'
p4491
I66
tp4492
a(S'Nitin H. Vaidya'
p4493
I66
tp4494
a(S'Yu-Chee Tseng'
p4495
I53
tp4496
a(S'Anind K. Dey'
p4497
I44
tp4498
a(S'Ian T. Foster'
p4499
I41
tp4500
a(S'Daniel A. Menasc\xc3\xa9'
p4501
I39
tp4502
a(S'Daqing Zhang'
p4503
I39
tp4504
a(S'Krishna M. Sivalingam'
p4505
I37
tp4506
a(S'Jyh-Cheng Chen'
p4507
I37
tp4508
a(S'Janet L. Wiener'
p4509
I37
tp4510
a(S'Prathima Agrawal'
p4511
I37
tp4512
a(S'Ivan Stojmenovic'
p4513
I36
tp4514
a(S'Olov Schel\xc3\xa9n'
p4515
I36
tp4516
a(S'Anders Lindgren'
p4517
I36
tp4518
a(S'Avri Doria'
p4519
I36
tp4520
a(S'Andrew Tomkins'
p4521
I35
tp4522
a(S'Prabhakar Raghavan'
p4523
I35
tp4524
a(S'Andrei Z. Broder'
p4525
I35
tp4526
a(S'Hari Balakrishnan'
p4527
I34
tp4528
a(S'Raymie Stata'
p4529
I34
tp4530
a(S'Farzin Maghoul'
p4531
I34
tp4532
a(S'Sridhar Rajagopalan'
p4533
I34
tp4534
a(S'Ravi Kumar'
p4535
I34
tp4536
a(S'Alex Pentland'
p4537
I33
tp4538
a(S'Nathan Eagle'
p4539
I32
tp4540
a(S'Christine E. Jones'
p4541
I31
tp4542
a(S'Hung Keng Pung'
p4543
I30
tp4544
a(S'Kian-Lee Tan'
p4545
I30
tp4546
a(S'Matei Ripeanu'
p4547
I29
tp4548
a(S'Tao Gu'
p4549
I29
tp4550
a(S'Jang-Ping Sheu'
p4551
I28
tp4552
a(S'Richard M. Karp'
p4553
I28
tp4554
a(S'Kenneth P. Fishkin'
p4555
I26
tp4556
a(S'Prosenjit Bose'
p4557
I26
tp4558
a(S'Dirk H\xc3\xa4hnel'
p4559
I26
tp4560
a(S'Jorge Urrutia'
p4561
I26
tp4562
a(S'Pat Morin'
p4563
I26
tp4564
a(S'Matthai Philipose'
p4565
I25
tp4566
a(S'Robert Morris'
p4567
I25
tp4568
a(S'Marco Conti'
p4569
I24
tp4570
a(S'Adriana Iamnitchi'
p4571
I23
tp4572
a(S'Roy Want'
p4573
I23
tp4574
a(S'Yuh-Shyan Chen'
p4575
I22
tp4576
a(S'Henry A. Kautz'
p4577
I22
tp4578
a(S'Sze-Yao Ni'
p4579
I22
tp4580
a(S'Mike Perkowitz'
p4581
I22
tp4582
a(S'David Kotz'
p4583
I22
tp4584
a(S'Dieter Fox'
p4585
I22
tp4586
a(S'Jeffrey Xu Yu'
p4587
I22
tp4588
a(S'Donald J. Patterson'
p4589
I22
tp4590
a(S'Diane J. Cook'
p4591
I21
tp4592
a(S'Enrico Gregori'
p4593
I20
tp4594
a(S'Chi-Fu Huang'
p4595
I20
tp4596
a(S'Michael Beigl'
p4597
I20
tp4598
a(S'Prasant Mohapatra'
p4599
I19
tp4600
a(S'Kyle Jamieson'
p4601
I19
tp4602
a(S'Benjie Chen'
p4603
I19
tp4604
a(S'Robin Kravets'
p4605
I19
tp4606
a(S'Albrecht Schmidt'
p4607
I18
tp4608
a(S'Gavin Holland'
p4609
I17
tp4610
a(S'Paul Dourish'
p4611
I15
tp4612
a(S'Mani B. Srivastava'
p4613
I15
tp4614
a(S'Tristan Henderson'
p4615
I14
tp4616
a(S'Sylvia Ratnasamy'
p4617
I14
tp4618
a(S'Mark Handley'
p4619
I14
tp4620
a(S'Kay R\xc3\xb6mer'
p4621
I13
tp4622
a(S'Friedemann Mattern'
p4623
I13
tp4624
a(S'Tarek N. Saadawi'
p4625
I12
tp4626
a(S'Jan M. Rabaey'
p4627
I12
tp4628
a(S'Andrea Passarella'
p4629
I12
tp4630
a(S'Luca Chittaro'
p4631
I11
tp4632
a(S'Raffaele Bruno'
p4633
I11
tp4634
a(S'Miodrag Potkonjak'
p4635
I11
tp4636
a(S'Leandros Tassiulas'
p4637
I10
tp4638
a(S'P. Krishnan'
p4639
I10
tp4640
a(S'Seapahn Megerian'
p4641
I10
tp4642
a(S'Shugong Xu'
p4643
I10
tp4644
a(S'Hans-Werner Gellersen'
p4645
I10
tp4646
a(S'Gerhard Tr\xc3\xb6ster'
p4647
I10
tp4648
a(S'Giuseppe Anastasi'
p4649
I9
tp4650
a(S'Amiya Bhattacharya'
p4651
I9
tp4652
a(S'Lionel M. Ni'
p4653
I9
tp4654
a(S'Oliver Kasten'
p4655
I9
tp4656
a(S'Paolo Bellavista'
p4657
I8
tp4658
a(S'Tiina Heikkinen'
p4659
I8
tp4660
a(S'Yunhao Liu'
p4661
I8
tp4662
a(S'Svetha Venkatesh'
p4663
I8
tp4664
a(S'George Roussos'
p4665
I8
tp4666
a(S'Lawrence B. Holder'
p4667
I7
tp4668
a(S'Christian F. Tschudin'
p4669
I7
tp4670
a(S'Erik Nordstr\xc3\xb6m'
p4671
I7
tp4672
a(S'Toshio Sakata'
p4673
I7
tp4674
a(S'Henrik Lundgren'
p4675
I6
tp4676
a(S'Geoff A. W. West'
p4677
I6
tp4678
a(S'Antonio Corradi'
p4679
I6
tp4680
a(S'Abhishek P. Patil'
p4681
I6
tp4682
a(S'Panu Korpip\xc3\xa4\xc3\xa4'
p4683
I6
tp4684
a(S'Kobby Essien'
p4685
I6
tp4686
a(S'Yiu Cho Lau'
p4687
I6
tp4688
a(S'Athanassios Boulis'
p4689
I6
tp4690
a(S'Oliver Amft'
p4691
I6
tp4692
a(S'G. Michael Youngblood'
p4693
I6
tp4694
a(S'Gang Qu'
p4695
I6
tp4696
a(S'Jie Zhang'
p4697
I5
tp4698
a(S'Tapio Sepp\xc3\xa4nen'
p4699
I5
tp4700
a(S'Farinaz Koushanfar'
p4701
I5
tp4702
a(S'Fabio Panzieri'
p4703
I5
tp4704
a(S'Theano Moussouri'
p4705
I5
tp4706
a(S'Giacomino Veltri'
p4707
I4
tp4708
a(S'Franco Zambonelli'
p4709
I4
tp4710
a(S'Fabian Kuhn'
p4711
I4
tp4712
a(S'Michael Segal'
p4713
I4
tp4714
a(S'Jussi Kangasharju'
p4715
I4
tp4716
a(S'Johannes Peltola'
p4717
I4
tp4718
a(S'Ronny Krashinsky'
p4719
I4
tp4720
a(S'Chih-Chieh Han'
p4721
I4
tp4722
a(S'Roy Shea'
p4723
I4
tp4724
a(S'Sebastian L\xc3\xbchr'
p4725
I3
tp4726
a(S'Zvi Lotker'
p4727
I3
tp4728
a(S'Jana van Greunen'
p4729
I3
tp4730
a(S'Ioanna Roussaki'
p4731
I3
tp4732
a(S'Carsten Pils'
p4733
I3
tp4734
a(S'Santosh K. Shrivastava'
p4735
I3
tp4736
a(S'Alexander Kesselman'
p4737
I3
tp4738
a(S'Maria Strimpakou'
p4739
I3
tp4740
a(S'David B. Ingham'
p4741
I3
tp4742
a(S'Robert Tolksdorf'
p4743
I3
tp4744
a(S'Miika Koskinen'
p4745
I3
tp4746
a(S'Chao Gui'
p4747
I3
tp4748
a(S'Satu-Marja M\xc3\xa4kel\xc3\xa4'
p4749
I3
tp4750
a(S'Stefan Funke'
p4751
I2
tp4752
a(S'Ali H. Sayed'
p4753
I2
tp4754
a(S'Letizia Leonardi'
p4755
I2
tp4756
a(S'William J. Kaiser'
p4757
I2
tp4758
a(S'Simon Moncrieff'
p4759
I2
tp4760
a(S'Trish Keaton'
p4761
I2
tp4762
a(S'Nelson S. Rosa'
p4763
I2
tp4764
a(S'Franca Delmastro'
p4765
I2
tp4766
a(S'Jennifer Ann Rode'
p4767
I2
tp4768
a(S'Max M\xc3\xbchlh\xc3\xa4user'
p4769
I2
tp4770
a(S'Jason Flinn'
p4771
I2
tp4772
a(S'Alex A. T. Bui'
p4773
I2
tp4774
a(S'Carlos Andr\xc3\xa9 Guimar\xc3\xa3es Ferraz'
p4775
I2
tp4776
a(S'Luca Foschini'
p4777
I2
tp4778
a(S'Chi-Jiun Su'
p4779
I2
tp4780
a(S'Glauco Vasconcelos'
p4781
I2
tp4782
a(S'Erwin Aitenbichler'
p4783
I2
tp4784
a(S'Fabio Buttussi'
p4785
I2
tp4786
a(S'Jonathan D. Binney'
p4787
I2
tp4788
a(S'Manish Anand'
p4789
I2
tp4790
a(S'Markus C. Huebscher'
p4791
I2
tp4792
a(S'Julie A. McCann'
p4793
I2
tp4794
a(S'Lawrence K. Au'
p4795
I2
tp4796
a(S'Maxim A. Batalin'
p4797
I2
tp4798
a(S'Eduardo Souto'
p4799
I2
tp4800
a(S'Mardoqueu Vieira'
p4801
I2
tp4802
a(S'Germano Guimar\xc3\xa3es'
p4803
I2
tp4804
a(S'Giacomo Cabri'
p4805
I2
tp4806
a(S'Winston H. Wu'
p4807
I2
tp4808
a(S'Sylvia M. Dominguez'
p4809
I2
tp4810
a(S'Marco Mamei'
p4811
I2
tp4812
a(S'Stewart Greenhill'
p4813
I2
tp4814
a(S'Edmund B. Nightingale'
p4815
I2
tp4816
a(S'Aleksey Tentler'
p4817
I1
tp4818
a(S'Mihoko Kunita'
p4819
I1
tp4820
a(S'Masashi Toda'
p4821
I1
tp4822
a(S'Anthony Almudevar'
p4823
I1
tp4824
a(S'Toru Shinmura'
p4825
I1
tp4826
a(S'Paolo Corsini'
p4827
I1
tp4828
a(S'Kun Yang'
p4829
I1
tp4830
a(S'Shumao Ou'
p4831
I1
tp4832
a(S'Raino Vastam\xc3\xa4ki'
p4833
I1
tp4834
a(S'Kunio Iwata'
p4835
I1
tp4836
a(S'Shigeru Sakurazawa'
p4837
I1
tp4838
a(S'Cecilia Leinonen'
p4839
I1
tp4840
a(S'Paolo Masci'
p4841
I1
tp4842
a(S'Ruth Kikin-Gil'
p4843
I1
tp4844
a(S'Keisuke Yanagihara'
p4845
I1
tp4846
a(S'Marco Avvenuti'
p4847
I1
tp4848
a(S'Alessio Vecchio'
p4849
I1
tp4850
a(S'Adrian Leibovici'
p4851
I1
tp4852
a(S'Irmeli Sinkkonen'
p4853
I1
tp4854
a(S'Junichi Akita'
p4855
I1
tp4856
a(S'Marie Pierre Gleizes'
p4857
I1
tp4858
asS'Yang Xiang'
p4859
(lp4860
(S'Wil M. P. van der Aalst'
p4861
I161
tp4862
a(S'Laura Maruster'
p4863
I51
tp4864
a(S'George Karypis'
p4865
I40
tp4866
a(S'Dimitrios Gunopulos'
p4867
I35
tp4868
a(S'Vipin Kumar'
p4869
I23
tp4870
a(S'Ton Weijters'
p4871
I23
tp4872
a(S'J. J. Garcia-Luna-Aceves'
p4873
I19
tp4874
a(S'Piet Van Mieghem'
p4875
I18
tp4876
a(S'Hannu Toivonen'
p4877
I16
tp4878
a(S'Heikki Mannila'
p4879
I12
tp4880
a(S'James W. Hong'
p4881
I10
tp4882
a(S'George Pavlou'
p4883
I7
tp4884
a(S'Fernando A. Kuipers'
p4885
I6
tp4886
a(S'Roni Khardon'
p4887
I6
tp4888
a(S'Sanjeev Saluja'
p4889
I6
tp4890
a(S'Hans De Neve'
p4891
I6
tp4892
a(S'Ram Sewak Sharm'
p4893
I6
tp4894
a(S'Benny Sudakov'
p4895
I5
tp4896
a(S'Eui-Hong Han'
p4897
I5
tp4898
a(S'Prashant J. Shenoy'
p4899
I5
tp4900
a(S'Michael Krivelevich'
p4901
I4
tp4902
a(S'Renu Tewari'
p4903
I4
tp4904
a(S'Jean-Philippe Martin-Flatin'
p4905
I4
tp4906
a(S'Mohand-Said Hacid'
p4907
I3
tp4908
a(S'Asimakis Tzamaloukas'
p4909
I3
tp4910
a(S'Venkata Duvvuri'
p4911
I3
tp4912
a(S'Van H. Vu'
p4913
I3
tp4914
a(S'Sung-Uk Park'
p4915
I2
tp4916
a(S'Cyril Decleir'
p4917
I2
tp4918
a(S'Luca Deri'
p4919
I2
tp4920
a(S'Ning Wang'
p4921
I2
tp4922
a(S'Jacques Kouloumdjian'
p4923
I2
tp4924
a(S'Young-Min Kang'
p4925
I2
tp4926
a(S'Zohar Naor'
p4927
I2
tp4928
a(S'Jong-Tae Park'
p4929
I2
tp4930
a(S'Nikolaos Anerousis'
p4931
I1
tp4932
a(S'Uri Zwick'
p4933
I1
tp4934
a(S'Hanoch Levy'
p4935
I1
tp4936
asS'Li Xu'
p4937
(lp4938
(S'Ephraim R. McLean'
p4939
I65
tp4940
a(S'William H. DeLone'
p4941
I55
tp4942
a(S'Alexander Tuzhilin'
p4943
I46
tp4944
a(S'Gediminas Adomavicius'
p4945
I43
tp4946
a(S'Charles J. Petrie'
p4947
I11
tp4948
a(S'Millist W. Vincent'
p4949
I11
tp4950
a(S'Leonid Libkin'
p4951
I10
tp4952
a(S'Chengfei Liu'
p4953
I10
tp4954
a(S'Marcelo Arenas'
p4955
I10
tp4956
a(S'Jixue Liu'
p4957
I9
tp4958
a(S'Rob McCool'
p4959
I5
tp4960
a(S'Martin Hepp'
p4961
I5
tp4962
a(S'Wai Yin Mok'
p4963
I5
tp4964
a(S'Jonathan S. Turner'
p4965
I2
tp4966
a(S'Ernesto Montaldo'
p4967
I2
tp4968
a(S'Antonio Boccalatte'
p4969
I2
tp4970
a(S'Roberto Sacile'
p4971
I2
tp4972
a(S'Edson L. Horta'
p4973
I1
tp4974
a(S'John W. Lockwood'
p4975
I1
tp4976
a(S'David E. Taylor'
p4977
I1
tp4978
asS'Srihari Nelakuditi'
p4979
(lp4980
(S'Scott Shenker'
p4981
I74
tp4982
a(S'Ramesh Govindan'
p4983
I48
tp4984
a(S'Deborah Estrin'
p4985
I47
tp4986
a(S'Deepak Ganesan'
p4987
I39
tp4988
a(S'Lixia Zhang'
p4989
I32
tp4990
a(S'Songwu Lu'
p4991
I27
tp4992
a(S'Fan Ye'
p4993
I25
tp4994
a(S'Gary Zhong'
p4995
I14
tp4996
a(S'John Bigham'
p4997
I6
tp4998
a(S'Lang Tong'
p4999
I3
tp5000
a(S'Qing Zhao'
p5001
I3
tp5002
a(S'Phil Buckle'
p5003
I2
tp5004
a(S'E. H. Mamdani'
p5005
I2
tp5006
a(S'Stefan Poslad'
p5007
I2
tp5008
a(S'Alex L. Hayzelden'
p5009
I2
tp5010
asS'Gary J. Koehler'
p5011
(lp5012
(S'Izak Benbasat'
p5013
I111
tp5014
a(S'Robert J. Kauffman'
p5015
I99
tp5016
a(S'Eric K. Clemons'
p5017
I67
tp5018
a(S'Sirkka L. Jarvenpaa'
p5019
I59
tp5020
a(S'Lorin M. Hitt'
p5021
I59
tp5022
a(S'Michael Vitale'
p5023
I54
tp5024
a(S'Noam Tractinsky'
p5025
I45
tp5026
a(S'Ritu Agarwal'
p5027
I45
tp5028
a(S'Kar Yan Tam'
p5029
I36
tp5030
a(S'James Y. L. Thong'
p5031
I35
tp5032
a(S'Vidyanand Choudhary'
p5033
I33
tp5034
a(S'Anol Bhattacherjee'
p5035
I33
tp5036
a(S'Andrew B. Whinston'
p5037
I32
tp5038
a(S'V. Sambamurthy'
p5039
I31
tp5040
a(S'Hemant K. Bhargava'
p5041
I26
tp5042
a(S'Frederick J. Riggins'
p5043
I22
tp5044
a(S'Weiyin Hong'
p5045
I20
tp5046
a(S'Karl Reiner Lang'
p5047
I14
tp5048
a(S'Ralph M. Stair'
p5049
I13
tp5050
a(S'Guodong (Gordon) Gao'
p5051
I12
tp5052
a(S'Sulin Ba'
p5053
I11
tp5054
a(S'Zhenhui Jiang'
p5055
I10
tp5056
a(S'Svetha Venkatesh'
p5057
I8
tp5058
a(S'Han Zhang'
p5059
I7
tp5060
a(S'Yoris A. Au'
p5061
I7
tp5062
a(S'Roumen Vragov'
p5063
I6
tp5064
a(S'Mohan Kumar'
p5065
I2
tp5066
a(S'Nor Jaidi Tuah'
p5067
I2
tp5068
asS'Ming Li'
p5069
(lp5070
(S'Ian F. Akyildiz'
p5071
I358
tp5072
a(S'Weilian Su'
p5073
I189
tp5074
a(S'Erdal Cayirci'
p5075
I187
tp5076
a(S'Yogesh Sankarasubramaniam'
p5077
I183
tp5078
a(S'Jiawei Han'
p5079
I122
tp5080
a(S'Scott Shenker'
p5081
I74
tp5082
a(S'Nitin H. Vaidya'
p5083
I66
tp5084
a(S'Jian Pei'
p5085
I59
tp5086
a(S'Mohammed Javeed Zaki'
p5087
I57
tp5088
a(S'Ramesh Govindan'
p5089
I48
tp5090
a(S'Deborah Estrin'
p5091
I47
tp5092
a(S'Michael J. Franklin'
p5093
I43
tp5094
a(S'Chris Clifton'
p5095
I40
tp5096
a(S'Yuguang Fang'
p5097
I40
tp5098
a(S'Wang Chiew Tan'
p5099
I40
tp5100
a(S'Deepak Ganesan'
p5101
I39
tp5102
a(S'Krishna M. Sivalingam'
p5103
I37
tp5104
a(S'Prathima Agrawal'
p5105
I37
tp5106
a(S'Jyh-Cheng Chen'
p5107
I37
tp5108
a(S'Jianyong Wang'
p5109
I37
tp5110
a(S'Hari Balakrishnan'
p5111
I34
tp5112
a(S'Christine E. Jones'
p5113
I31
tp5114
a(S'Donald F. Towsley'
p5115
I30
tp5116
a(S'Kee Chaing Chua'
p5117
I30
tp5118
a(S'Ronald Fagin'
p5119
I29
tp5120
a(S'Phokion G. Kolaitis'
p5121
I28
tp5122
a(S'Wendi Rabiner Heinzelman'
p5123
I26
tp5124
a(S'Umeshwar Dayal'
p5125
I25
tp5126
a(S'Lucian Popa'
p5127
I25
tp5128
a(S'Meichun Hsu'
p5129
I24
tp5130
a(S'Marco Conti'
p5131
I24
tp5132
a(S'Guohong Cao'
p5133
I23
tp5134
a(S'Cecilia Mascolo'
p5135
I23
tp5136
a(S'Dan Suciu'
p5137
I22
tp5138
a(S'David Kotz'
p5139
I22
tp5140
a(S'Helen Pinto'
p5141
I21
tp5142
a(S'Behzad Mortazavi-Asl'
p5143
I21
tp5144
a(S'Xindong Wu'
p5145
I21
tp5146
a(S'Gianluigi Greco'
p5147
I21
tp5148
a(S'Qiming Chen'
p5149
I21
tp5150
a(S'Mirco Musolesi'
p5151
I21
tp5152
a(S'Enrico Gregori'
p5153
I20
tp5154
a(S'Wei Wang'
p5155
I20
tp5156
a(S'Y. C. Tay'
p5157
I19
tp5158
a(S'Piet Van Mieghem'
p5159
I18
tp5160
a(S'Wen-Syan Li'
p5161
I18
tp5162
a(S'Laks V. S. Lakshmanan'
p5163
I17
tp5164
a(S'James F. Kurose'
p5165
I16
tp5166
a(S'Hongqiang Zhai'
p5167
I15
tp5168
a(S'Mary F. Fernandez'
p5169
I15
tp5170
a(S'Geoffrey M. Voelker'
p5171
I15
tp5172
a(S'Giovanni Neglia'
p5173
I14
tp5174
a(S'Marvin McNett'
p5175
I14
tp5176
a(S'Tristan Henderson'
p5177
I14
tp5178
a(S'Elke A. Rundensteiner'
p5179
I14
tp5180
a(S'Wenfei Fan'
p5181
I13
tp5182
a(S'Xiaolan Zhang'
p5183
I13
tp5184
a(S'Younggoo Kwon'
p5185
I12
tp5186
a(S'Shaju Stephen'
p5187
I12
tp5188
a(S'Nathalie Japkowicz'
p5189
I12
tp5190
a(S'Joanna Kulik'
p5191
I11
tp5192
a(S'Raffaele Bruno'
p5193
I11
tp5194
a(S'Millist W. Vincent'
p5195
I11
tp5196
a(S'Shichao Zhang'
p5197
I11
tp5198
a(S'Hao Zhang'
p5199
I10
tp5200
a(S'Joong Hyuk Chang'
p5201
I10
tp5202
a(S'Jef Wijsen'
p5203
I10
tp5204
a(S'Leonid Libkin'
p5205
I10
tp5206
a(S'Chengfei Liu'
p5207
I10
tp5208
a(S'Peter M. Fischer'
p5209
I10
tp5210
a(S'Mehmet Altinel'
p5211
I10
tp5212
a(S'Peter Buneman'
p5213
I10
tp5214
a(S'Marcelo Arenas'
p5215
I10
tp5216
a(S'Yanlei Diao'
p5217
I10
tp5218
a(S'Vincent Lenders'
p5219
I9
tp5220
a(S'Madhav V. Marathe'
p5221
I9
tp5222
a(S'Martin May'
p5223
I9
tp5224
a(S'Gunnar Karlsson'
p5225
I9
tp5226
a(S'Yi-Bing Lin'
p5227
I9
tp5228
a(S'Jixue Liu'
p5229
I9
tp5230
a(S'Sergio Greco'
p5231
I9
tp5232
a(S'Yana Kadiyska'
p5233
I8
tp5234
a(S'Padraig Cunningham'
p5235
I8
tp5236
a(S'Ester Zumpano'
p5237
I8
tp5238
a(S'Sergio D. Servetto'
p5239
I8
tp5240
a(S'Atsuyuki Morishima'
p5241
I8
tp5242
a(S'Carmem S. Hara'
p5243
I7
tp5244
a(S'Clemens Wacha'
p5245
I7
tp5246
a(S'Mary Baker'
p5247
I7
tp5248
a(S'Susan B. Davidson'
p5249
I7
tp5250
a(S'Diane Tang'
p5251
I6
tp5252
a(S'Kobby Essien'
p5253
I6
tp5254
a(S'Fernando A. Kuipers'
p5255
I6
tp5256
a(S'Hans De Neve'
p5257
I6
tp5258
a(S'Stephan Eidenbenz'
p5259
I5
tp5260
a(S'Lukas Kroc'
p5261
I5
tp5262
a(S'Christopher L. Barrett'
p5263
I5
tp5264
a(S'Subbu N. Subramanian'
p5265
I5
tp5266
a(S'Anton Stiglic'
p5267
I5
tp5268
a(S'Prashant J. Shenoy'
p5269
I5
tp5270
a(S'Fereidoon Sadri'
p5271
I5
tp5272
a(S'Ulf M\xc3\xb6ller'
p5273
I5
tp5274
a(S'Adam Back'
p5275
I5
tp5276
a(S'Hye-Chung Kum'
p5277
I5
tp5278
a(S'James P. Smith'
p5279
I5
tp5280
a(S'Jennifer L. Welch'
p5281
I4
tp5282
a(S'Renu Tewari'
p5283
I4
tp5284
a(S'Anisoara Nica'
p5285
I4
tp5286
a(S'Kai Ming Ting'
p5287
I4
tp5288
a(S'Amy J. Lee'
p5289
I4
tp5290
a(S'Jennifer E. Walter'
p5291
I4
tp5292
a(S'Michael Friendly'
p5293
I4
tp5294
a(S'Barbara Zengler'
p5295
I3
tp5296
a(S'Venkata Duvvuri'
p5297
I3
tp5298
a(S'Gregor Gaertner'
p5299
I3
tp5300
a(S'Ernest Kwan'
p5301
I3
tp5302
a(S'Saji Jacob'
p5303
I3
tp5304
a(S'Songting Chen'
p5305
I3
tp5306
a(S'Vinny Cahill'
p5307
I3
tp5308
a(S'Wen-Guey Tzeng'
p5309
I3
tp5310
a(S'John Carney'
p5311
I3
tp5312
a(S'Mario Jeckle'
p5313
I3
tp5314
a(S'Liang Guo'
p5315
I2
tp5316
a(S'Bin Liu'
p5317
I2
tp5318
a(S'Ibrahim Matta'
p5319
I2
tp5320
a(S'Denise Anthony'
p5321
I1
tp5322
a(S'Pedro M. Valero-Mora'
p5323
I1
tp5324
a(S'Forrest W. Young'
p5325
I1
tp5326
a(S'Aaron F. Bobick'
p5327
I1
tp5328
a(S'Claudio S. Pinhanez'
p5329
I1
tp5330
a(S'Andreas Koeller'
p5331
I1
tp5332
asS'Daqing Zhang'
p5333
(lp5334
(S'Daqing Zhang'
p5335
I39
tp5336
a(S'Francisco Curbera'
p5337
I30
tp5338
a(S'Rania Khalaf'
p5339
I29
tp5340
a(S'Matthew J. Duftler'
p5341
I27
tp5342
a(S'Sanjiva Weerawarana'
p5343
I26
tp5344
a(S'Nirmal Mukhi'
p5345
I26
tp5346
a(S'William Nagy'
p5347
I26
tp5348
a(S'Michael Beigl'
p5349
I20
tp5350
a(S'Albrecht Schmidt'
p5351
I18
tp5352
a(S'Nigel Davies'
p5353
I14
tp5354
a(S'Chung-Yau Chin'
p5355
I11
tp5356
a(S'Xiaohang Wang'
p5357
I11
tp5358
a(S'Hans-Werner Gellersen'
p5359
I10
tp5360
a(S'Keith Cheverst'
p5361
I10
tp5362
a(S'SankaRavipriya Hettiarachchi'
p5363
I8
tp5364
a(S'Jin Song Dong'
p5365
I8
tp5366
a(S'Adrian Friday'
p5367
I7
tp5368
a(S'Hui Lei'
p5369
I7
tp5370
a(S'Zhaohui Wu'
p5371
I6
tp5372
a(S'Christos Efstratiou'
p5373
I6
tp5374
a(S'Xuezhong Zhou'
p5375
I6
tp5376
a(S'Keith Mitchell'
p5377
I6
tp5378
a(S'Yi Feng'
p5379
I6
tp5380
a(S'Maria Ebling'
p5381
I5
tp5382
a(S'Zhongmei Zhou'
p5383
I4
tp5384
a(S'Daby M. Sow'
p5385
I4
tp5386
a(S'Guruduth Banavar'
p5387
I4
tp5388
a(S'John S. Davis II'
p5389
I4
tp5390
a(S'Weiyu Fan'
p5391
I4
tp5392
a(S'Lalitha Suryanarayana'
p5393
I1
tp5394
a(S'Johan Hjelm'
p5395
I1
tp5396
asS'Tore Dyb\xc3\xa5'
p5397
(lp5398
(S'M. Lynne Markus'
p5399
I34
tp5400
a(S'Heeseok Lee'
p5401
I27
tp5402
a(S'Byounggu Choi'
p5403
I27
tp5404
a(S'Michael J. Earl'
p5405
I10
tp5406
a(S'James Miller'
p5407
I2
tp5408
a(S'Paul Klint'
p5409
I1
tp5410
a(S'Chris Verhoef'
p5411
I1
tp5412
asS'Ignas G. Niemegeers'
p5413
(lp5414
sS'Vincenzo Manca'
p5415
(lp5416
(S'Gheorghe Paun'
p5417
I13
tp5418
a(S'Shankara Narayanan Krishna'
p5419
I2
tp5420
asS'Vicen\xc3\xa7 Torra'
p5421
(lp5422
(S'Pierangela Samarati'
p5423
I95
tp5424
a(S'Elisa Bertino'
p5425
I64
tp5426
a(S'Josep Domingo-Ferrer'
p5427
I63
tp5428
a(S'Ahmed K. Elmagarmid'
p5429
I58
tp5430
a(S'Vassilios S. Verykios'
p5431
I40
tp5432
a(S'Josep Maria Mateo-Sanz'
p5433
I37
tp5434
a(S'Y\xc3\xbccel Saygin'
p5435
I28
tp5436
a(S'Elena Dasseni'
p5437
I26
tp5438
a(S'Francesc Seb\xc3\xa9'
p5439
I20
tp5440
a(S'Ramesh A. Dandekar'
p5441
I15
tp5442
a(S'Sumitra Mukherjee'
p5443
I14
tp5444
a(S'William E. Yancey'
p5445
I11
tp5446
a(S'Robert H. Creecy'
p5447
I11
tp5448
a(S'William E. Winkler'
p5449
I11
tp5450
a(S'Gene Tsudik'
p5451
I9
tp5452
a(S'Michael Laszlo'
p5453
I8
tp5454
a(S'Xuemin Shen'
p5455
I8
tp5456
a(S'Lin Cai'
p5457
I6
tp5458
a(S'Claude Castelluccia'
p5459
I6
tp5460
a(S'Jianping Pan'
p5461
I5
tp5462
a(S'Alec Yasinsac'
p5463
I4
tp5464
a(S'Mike Burmester'
p5465
I3
tp5466
a(S'Tri Van Le'
p5467
I3
tp5468
a(S'Jon W. Mark'
p5469
I3
tp5470
a(S'Jihye Kim'
p5471
I1
tp5472
a(S'Stanislaw Jarecki'
p5473
I1
tp5474
asS'Masayuki Murata'
p5475
(lp5476
sS'Frans Coenen'
p5477
(lp5478
sS'Eduardo Fern\xc3\xa1ndez-Medina'
p5479
(lp5480
(S'Ian F. Akyildiz'
p5481
I358
tp5482
a(S'Weilian Su'
p5483
I189
tp5484
a(S'Erdal Cayirci'
p5485
I187
tp5486
a(S'Yogesh Sankarasubramaniam'
p5487
I183
tp5488
a(S'Pierangela Samarati'
p5489
I95
tp5490
a(S'Sushil Jajodia'
p5491
I42
tp5492
a(S'Ron Weber'
p5493
I42
tp5494
a(S'Yair Wand'
p5495
I35
tp5496
a(S'Juan Trujillo'
p5497
I23
tp5498
a(S'V. S. Subrahmanian'
p5499
I23
tp5500
a(S'Sangjae Lee'
p5501
I21
tp5502
a(S'Maria Luisa Sapino'
p5503
I20
tp5504
a(S'Michael Rosemann'
p5505
I18
tp5506
a(S'Marc Sim'
p5507
I17
tp5508
a(S'Fran\xc3\xa7ois Bodart'
p5509
I17
tp5510
a(S'Arvind Patel'
p5511
I17
tp5512
a(S'Amrit Tiwana'
p5513
I17
tp5514
a(S'Il-Yeol Song'
p5515
I15
tp5516
a(S'Marta Indulska'
p5517
I15
tp5518
a(S'Peter Green'
p5519
I12
tp5520
a(S'Sergio Luj\xc3\xa1n-Mora'
p5521
I11
tp5522
a(S'Islay Davies'
p5523
I10
tp5524
a(S'Stan Gallo'
p5525
I10
tp5526
a(S'Mario Piattini'
p5527
I10
tp5528
a(S'Inwon Kang'
p5529
I9
tp5530
a(S'Kun Chang Lee'
p5531
I9
tp5532
a(S'Csilla Farkas'
p5533
I9
tp5534
a(S'Geert Poels'
p5535
I8
tp5536
a(S'Alexander Brodsky'
p5537
I7
tp5538
a(S'Daniel L. Moody'
p5539
I7
tp5540
a(S'Andrew Gemino'
p5541
I6
tp5542
a(S'Balasubramaniam Ramesh'
p5543
I5
tp5544
a(S'Marcela Genero'
p5545
I4
tp5546
a(S'K\xc3\xa1thia Mar\xc3\xa7al de Oliveira'
p5547
I2
tp5548
a(S'M\xc3\xa1rcio Greyck Batista Dias'
p5549
I2
tp5550
a(S'Nicolas Anquetil'
p5551
I2
tp5552
a(S'Kleiber D. de Sousa'
p5553
I2
tp5554
a(S'Ann Maes'
p5555
I2
tp5556
a(S'H. James Nelson'
p5557
I1
tp5558
asS'Yu-Chee Tseng'
p5559
(lp5560
(S'Ian F. Akyildiz'
p5561
I358
tp5562
a(S'Weilian Su'
p5563
I189
tp5564
a(S'Erdal Cayirci'
p5565
I187
tp5566
a(S'Yogesh Sankarasubramaniam'
p5567
I183
tp5568
a(S'Dimitris Papadias'
p5569
I92
tp5570
a(S'Yufei Tao'
p5571
I66
tp5572
a(S'Philip S. Yu'
p5573
I61
tp5574
a(S'Yu-Chee Tseng'
p5575
I53
tp5576
a(S'Ming-Syan Chen'
p5577
I52
tp5578
a(S'Dik Lun Lee'
p5579
I51
tp5580
a(S'Ivan Stojmenovic'
p5581
I36
tp5582
a(S'Wang-Chien Lee'
p5583
I34
tp5584
a(S'Hari Balakrishnan'
p5585
I34
tp5586
a(S'Ness B. Shroff'
p5587
I32
tp5588
a(S'Milica Stojanovic'
p5589
I30
tp5590
a(S'Jang-Ping Sheu'
p5591
I28
tp5592
a(S'Jianliang Xu'
p5593
I28
tp5594
a(S'Pat Morin'
p5595
I26
tp5596
a(S'Prosenjit Bose'
p5597
I26
tp5598
a(S'Jorge Urrutia'
p5599
I26
tp5600
a(S'Robert Morris'
p5601
I25
tp5602
a(S'Kyriakos Mouratidis'
p5603
I25
tp5604
a(S'Guohong Cao'
p5605
I23
tp5606
a(S'Yannis Manolopoulos'
p5607
I22
tp5608
a(S'Kyle Jamieson'
p5609
I19
tp5610
a(S'Benjie Chen'
p5611
I19
tp5612
a(S'Kun-Lung Wu'
p5613
I18
tp5614
a(S'Val\xc3\xa9rie Issarny'
p5615
I18
tp5616
a(S'Fran\xc3\xa7oise Sailhan'
p5617
I15
tp5618
a(S'Chiara Petrioli'
p5619
I15
tp5620
a(S'Qinglong Hu'
p5621
I15
tp5622
a(S'Daniel A. Keim'
p5623
I14
tp5624
a(S'Hans-Peter Kriegel'
p5625
I14
tp5626
a(S'Xueyan Tang'
p5627
I13
tp5628
a(S'Michele Zorzi'
p5629
I12
tp5630
a(S'Vijay Kumar'
p5631
I11
tp5632
a(S'Dimitrios Katsaros'
p5633
I11
tp5634
a(S'Margaret H. Dunham'
p5635
I11
tp5636
a(S'Thomas Seidl'
p5637
I11
tp5638
a(S'Zahir Tari'
p5639
I9
tp5640
a(S'Stefan Berchtold'
p5641
I9
tp5642
a(S'Borja Peleato'
p5643
I9
tp5644
a(S'Qun Ren'
p5645
I7
tp5646
a(S'Fred Douglis'
p5647
I7
tp5648
a(S'Chi-Hsun Liu'
p5649
I6
tp5650
a(S'Loren Schwiebert'
p5651
I6
tp5652
a(S'Takahiro Hara'
p5653
I6
tp5654
a(S'Manish Kochhal'
p5655
I6
tp5656
a(S'Shih-Lin Wu'
p5657
I6
tp5658
a(S'Sandeep K. S. Gupta'
p5659
I6
tp5660
a(S'Arup Acharya'
p5661
I5
tp5662
a(S'Constantine Coutras'
p5663
I4
tp5664
a(S'Leonardo Badia'
p5665
I4
tp5666
a(S'Spiridon Bakiras'
p5667
I4
tp5668
a(S'B. R. Badrinath'
p5669
I4
tp5670
a(S'Stamatis Stefanakos'
p5671
I4
tp5672
a(S'Anup Kumar Talukdar'
p5673
I4
tp5674
a(S'Peter Bert\xc3\xb3k'
p5675
I4
tp5676
a(S'Michele Mastrogiovanni'
p5677
I4
tp5678
a(S'Sanjay Gupta'
p5679
I4
tp5680
a(S'Kwong Yuen Lai'
p5681
I3
tp5682
a(S'Aura Ganz'
p5683
I2
tp5684
a(S'M. Frans Kaashoek'
p5685
I2
tp5686
a(S'Rong-Hong Jan'
p5687
I2
tp5688
a(S'Hung-Chi Chu'
p5689
I2
tp5690
a(S'Anan Phonphoem'
p5691
I1
tp5692
a(S'Zvi Ganz'
p5693
I1
tp5694
a(S'Chien-Chung Shen'
p5695
I1
tp5696
a(S'Justin Yackoski'
p5697
I1
tp5698
asS'Chai Kiat Yeo'
p5699
(lp5700
(S'Sandeep K. S. Gupta'
p5701
I6
tp5702
a(S'Manish Kochhal'
p5703
I6
tp5704
a(S'Loren Schwiebert'
p5705
I6
tp5706
a(S'Christian Hoymann'
p5707
I5
tp5708
a(S'Nancy Jesuale'
p5709
I2
tp5710
asS'Ignacio P\xc3\xa9rez-Hurtado'
p5711
(lp5712
(S'Mario J. P\xc3\xa9rez-Jim\xc3\xa9nez'
p5713
I45
tp5714
a(S'Fernando Sancho-Caparrini'
p5715
I18
tp5716
a(S'\xc3\x81lvaro Romero Jim\xc3\xa9nez'
p5717
I18
tp5718
a(S'Petr Sos\xc3\xadk'
p5719
I9
tp5720
a(S'Matteo Cavaliere'
p5721
I6
tp5722
a(S'Michael J. Gormish'
p5723
I4
tp5724
a(S'Martin P. Boliek'
p5725
I4
tp5726
a(S'Ali Bilgin'
p5727
I4
tp5728
a(S'Michael W. Marcellin'
p5729
I4
tp5730
a(S'Ioan I. Ardelean'
p5731
I3
tp5732
asS'Cem Ersoy'
p5733
(lp5734
(S'Ian F. Akyildiz'
p5735
I358
tp5736
a(S'Weilian Su'
p5737
I189
tp5738
a(S'Erdal Cayirci'
p5739
I187
tp5740
a(S'Yogesh Sankarasubramaniam'
p5741
I183
tp5742
a(S'Yu-Chee Tseng'
p5743
I53
tp5744
a(S'Christian Bettstetter'
p5745
I46
tp5746
a(S'Xudong Wang'
p5747
I45
tp5748
a(S'Weilin Wang'
p5749
I40
tp5750
a(S'Ivan Stojmenovic'
p5751
I36
tp5752
a(S'Jang-Ping Sheu'
p5753
I28
tp5754
a(S'Pat Morin'
p5755
I26
tp5756
a(S'Prosenjit Bose'
p5757
I26
tp5758
a(S'Jorge Urrutia'
p5759
I26
tp5760
a(S'Anish Arora'
p5761
I24
tp5762
a(S'Yuh-Shyan Chen'
p5763
I22
tp5764
a(S'Sze-Yao Ni'
p5765
I22
tp5766
a(S'Qiang Ni'
p5767
I17
tp5768
a(S'Ahmed Helmy'
p5769
I15
tp5770
a(S'Thierry Turletti'
p5771
I14
tp5772
a(S'Ten-Hwang Lai'
p5773
I8
tp5774
a(S'Mary Baker'
p5775
I7
tp5776
a(S'Lamia Romdhani'
p5777
I7
tp5778
a(S'Diane Tang'
p5779
I6
tp5780
a(S'Lifei Huang'
p5781
I5
tp5782
a(S'Min-Te Sun'
p5783
I4
tp5784
a(S'Shaoyong Wang'
p5785
I4
tp5786
a(S'Michael D. Bender'
p5787
I3
tp5788
a(S'H\xc3\xbcseyin Uzunalioglu'
p5789
I3
tp5790
asS'Tzu-Chi Huang'
p5791
(lp5792
(S'Radia J. Perlman'
p5793
I2
tp5794
a(S'William C. Regli'
p5795
I2
tp5796
a(S'Charlie Kaufman'
p5797
I2
tp5798
a(S'Yechiam Yemini'
p5799
I1
tp5800
a(S'Jonathan Sevy'
p5801
I1
tp5802
a(S'Danilo Florissi'
p5803
I1
tp5804
a(S'Patricia Florissi'
p5805
I1
tp5806
a(S'David T. McWherter'
p5807
I1
tp5808
asS'Sergey Verlan'
p5809
(lp5810
(S'Mario J. P\xc3\xa9rez-Jim\xc3\xa9nez'
p5811
I45
tp5812
a(S'\xc3\x81lvaro Romero Jim\xc3\xa9nez'
p5813
I18
tp5814
a(S'Fernando Sancho-Caparrini'
p5815
I18
tp5816
a(S'Rudolf Freund'
p5817
I18
tp5818
a(S'Gheorghe Paun'
p5819
I13
tp5820
a(S'Tseren-Onolt Ishdorj'
p5821
I11
tp5822
a(S'Andrei Paun'
p5823
I10
tp5824
a(S'Mihai Ionescu'
p5825
I9
tp5826
a(S'Haiming Chen'
p5827
I8
tp5828
a(S'Franziska Freund'
p5829
I1
tp5830
asS'Enzo Mingozzi'
p5831
(lp5832
(S'Andrea Lodi'
p5833
I4
tp5834
a(S'David Pisinger'
p5835
I4
tp5836
a(S'Michela Milano'
p5837
I4
tp5838
a(S'Filippo Focacci'
p5839
I4
tp5840
a(S'Oluf Faroe'
p5841
I3
tp5842
a(S'Martin Zachariasen'
p5843
I3
tp5844
asS'Alok Gupta'
p5845
(lp5846
(S'Izak Benbasat'
p5847
I111
tp5848
a(S'Robert J. Kauffman'
p5849
I99
tp5850
a(S'Varun Grover'
p5851
I93
tp5852
a(S'Vivek Choudhury'
p5853
I85
tp5854
a(S'Sarv Devaraj'
p5855
I84
tp5856
a(S'Rajiv Kohli'
p5857
I79
tp5858
a(S'Kenneth L. Kraemer'
p5859
I75
tp5860
a(S'D. Harrison McKnight'
p5861
I69
tp5862
a(S'Eric K. Clemons'
p5863
I67
tp5864
a(S'Rajiv Sabherwal'
p5865
I66
tp5866
a(S'Kevin Zhu'
p5867
I66
tp5868
a(S'Charles J. Kacmar'
p5869
I62
tp5870
a(S'Sirkka L. Jarvenpaa'
p5871
I59
tp5872
a(S'Lorin M. Hitt'
p5873
I59
tp5874
a(S'Michael Vitale'
p5875
I54
tp5876
a(S'Alexander Tuzhilin'
p5877
I46
tp5878
a(S'Noam Tractinsky'
p5879
I45
tp5880
a(S'Yolande E. Chan'
p5881
I44
tp5882
a(S'Gediminas Adomavicius'
p5883
I43
tp5884
a(S'Arvind Malhotra'
p5885
I41
tp5886
a(S'Paul P. Tallon'
p5887
I41
tp5888
a(S'George Karypis'
p5889
I40
tp5890
a(S'Terry Anthony Byrd'
p5891
I37
tp5892
a(S'Jonathan W. Palmer'
p5893
I37
tp5894
a(S'Albert H. Segars'
p5895
I37
tp5896
a(S'Kar Yan Tam'
p5897
I36
tp5898
a(S'James Y. L. Thong'
p5899
I35
tp5900
a(S'M. Lynne Markus'
p5901
I34
tp5902
a(S'Anol Bhattacherjee'
p5903
I33
tp5904
a(S'Vidyanand Choudhary'
p5905
I33
tp5906
a(S'Suzanne Rivard'
p5907
I32
tp5908
a(S'Andrew B. Whinston'
p5909
I32
tp5910
a(S'Mark Keil'
p5911
I32
tp5912
a(S'Ming Fan'
p5913
I32
tp5914
a(S'Paul Chwelos'
p5915
I30
tp5916
a(S'Albert S. Dexter'
p5917
I30
tp5918
a(S'Vijay Gurbaxani'
p5919
I30
tp5920
a(S'Toni M. Somers'
p5921
I29
tp5922
a(S'Alok Gupta'
p5923
I29
tp5924
a(S'Douglas Edward Turner'
p5925
I28
tp5926
a(S'T. Ravichandran'
p5927
I26
tp5928
a(S'Hemant K. Bhargava'
p5929
I26
tp5930
a(S'Michel Benaroch'
p5931
I25
tp5932
a(S'Chalermsak Lertwongsatien'
p5933
I24
tp5934
a(S'Ravi Bapna'
p5935
I24
tp5936
a(S'Jahangir Karimi'
p5937
I23
tp5938
a(S'Ram L. Kumar'
p5939
I23
tp5940
a(S'Laurie J. Kirsch'
p5941
I22
tp5942
a(S'Frederick J. Riggins'
p5943
I22
tp5944
a(S'Indranil R. Bardhan'
p5945
I22
tp5946
a(S'Joseph A. Konstan'
p5947
I22
tp5948
a(S'Jeremy York'
p5949
I21
tp5950
a(S'Brent Smith'
p5951
I21
tp5952
a(S'John Riedl'
p5953
I21
tp5954
a(S'Greg Linden'
p5955
I21
tp5956
a(S'J. Ben Schafer'
p5957
I21
tp5958
a(S'Kalle Lyytinen'
p5959
I21
tp5960
a(S'Barrie R. Nault'
p5961
I21
tp5962
a(S'Weiyin Hong'
p5963
I20
tp5964
a(S'Paulo B. Goes'
p5965
I20
tp5966
a(S'D. J. Wu'
p5967
I20
tp5968
a(S'Ravi Aron'
p5969
I20
tp5970
a(S'Sanjay Gosain'
p5971
I19
tp5972
a(S'Rajiv D. Banker'
p5973
I19
tp5974
a(S'Srinivasan Raghunathan'
p5975
I18
tp5976
a(S'Hung-Jen Lai'
p5977
I18
tp5978
a(S'Kunsoo Han'
p5979
I18
tp5980
a(S'Xiaoge Zhou'
p5981
I18
tp5982
a(S'Dennis F. Galletta'
p5983
I18
tp5984
a(S'Matt E. Thatcher'
p5985
I17
tp5986
a(S'Sridhar Narasimhan'
p5987
I17
tp5988
a(S'Sashidhar P. Reddi'
p5989
I17
tp5990
a(S'Robert G. Fichman'
p5991
I17
tp5992
a(S'Salvatore T. March'
p5993
I17
tp5994
a(S'Pei-Yu Sharon Chen'
p5995
I16
tp5996
a(S'Bamshad Mobasher'
p5997
I16
tp5998
a(S'Ganesh D. Bhatt'
p5999
I15
tp6000
a(S'Miki Nakagawa'
p6001
I15
tp6002
a(S'Hans-Peter Kriegel'
p6003
I14
tp6004
a(S'Michael D. Smith'
p6005
I14
tp6006
a(S'Karl Reiner Lang'
p6007
I14
tp6008
a(S'Roy C. Schmidt'
p6009
I13
tp6010
a(S'Paul E. Cule'
p6011
I13
tp6012
a(S'Anindya Ghose'
p6013
I13
tp6014
a(S'Ramnath K. Chellappa'
p6015
I13
tp6016
a(S'Grover S. Kearns'
p6017
I13
tp6018
a(S'Ryan Sougstad'
p6019
I13
tp6020
a(S'Rahul Telang'
p6021
I12
tp6022
a(S'Guodong (Gordon) Gao'
p6023
I12
tp6024
a(S'Nirup M. Menon'
p6025
I12
tp6026
a(S'Yash P. Gupta'
p6027
I12
tp6028
a(S'Byungtae Lee'
p6029
I12
tp6030
a(S'Sugato Bagchi'
p6031
I11
tp6032
a(S'Hamid Mohtadi'
p6033
I11
tp6034
a(S'Kathy A. Stewart'
p6035
I11
tp6036
a(S'Sulin Ba'
p6037
I11
tp6038
a(S'Ting-Ping Liang'
p6039
I11
tp6040
a(S'David E. Pingry'
p6041
I10
tp6042
a(S'Zhenhui Jiang'
p6043
I10
tp6044
a(S'Michael J. Davern'
p6045
I10
tp6046
a(S'Ramayya Krishnan'
p6047
I9
tp6048
a(S'Leslie Eldenburg'
p6049
I9
tp6050
a(S'Omar A. ElSawy'
p6051
I9
tp6052
a(S'Arun Sundararajan'
p6053
I9
tp6054
a(S'Qizhi Dai'
p6055
I9
tp6056
a(S'Sandeep Shah'
p6057
I8
tp6058
a(S'Salvatore Ruggieri'
p6059
I8
tp6060
a(S'Shivendu Shivendu'
p6061
I8
tp6062
a(S'Mark Jeffery'
p6063
I8
tp6064
a(S'Yi-Cheng Ku'
p6065
I8
tp6066
a(S'Svetha Venkatesh'
p6067
I8
tp6068
a(S'Honghua Dai'
p6069
I8
tp6070
a(S'Joe L. Turnbow'
p6071
I8
tp6072
a(S'Bijoy Bordoloi'
p6073
I8
tp6074
a(S'Sumit Sircar'
p6075
I8
tp6076
a(S'Tao Luo'
p6077
I8
tp6078
a(S'Bin Gu'
p6079
I7
tp6080
a(S'Gary J. Koehler'
p6081
I7
tp6082
a(S'Sabyasachi Mitra'
p6083
I7
tp6084
a(S'H. Jeff Smith'
p6085
I7
tp6086
a(S'Ananth Grama'
p6087
I7
tp6088
a(S'Han Zhang'
p6089
I7
tp6090
a(S'John P. Curtin'
p6091
I7
tp6092
a(S'Martin Ester'
p6093
I7
tp6094
a(S'Shankar Sundaresan'
p6095
I7
tp6096
a(S'Martin W. P. Savelsbergh'
p6097
I7
tp6098
a(S'Gordon Depledge'
p6099
I7
tp6100
a(S'Yoris A. Au'
p6101
I7
tp6102
a(S'Charles W. Steinfield'
p6103
I6
tp6104
a(S'Rolf T. Wigand'
p6105
I6
tp6106
a(S'A. Graham Peace'
p6107
I6
tp6108
a(S'Joni L. Jones'
p6109
I6
tp6110
a(S'Roumen Vragov'
p6111
I6
tp6112
a(S'Ozer Asdemir'
p6113
I6
tp6114
a(S'Roger H. L. Chiang'
p6115
I6
tp6116
a(S'Sven de Vries'
p6117
I5
tp6118
a(S'Rakesh V. Vohra'
p6119
I5
tp6120
a(S'Atip Asvanund'
p6121
I5
tp6122
a(S'Karen Clay'
p6123
I5
tp6124
a(S'Fran\xc3\xa7ois Bergeron'
p6125
I5
tp6126
a(S'Stephan Kudyba'
p6127
I5
tp6128
a(S'Ajay Kumar'
p6129
I5
tp6130
a(S'Romesh Diwan'
p6131
I5
tp6132
a(S'Louis Raymond'
p6133
I5
tp6134
a(S'Raymond G. Sin'
p6135
I5
tp6136
a(S'Chia-Chen Wu'
p6137
I4
tp6138
a(S'Didem Demirhan'
p6139
I4
tp6140
a(S'J\xc3\xb6rg Sander'
p6141
I4
tp6142
a(S'Chih-Ping Wei'
p6143
I4
tp6144
a(S'Chandrasekar Subramaniam'
p6145
I4
tp6146
a(S'Batul J. Mirza'
p6147
I3
tp6148
a(S'George L. Nemhauser'
p6149
I3
tp6150
a(S'Benjamin J. Keller'
p6151
I3
tp6152
a(S'Michael J. Shaw'
p6153
I3
tp6154
a(S'Alina M. Chircu'
p6155
I3
tp6156
a(S'Volker Tresp'
p6157
I3
tp6158
a(S'Naren Ramakrishnan'
p6159
I3
tp6160
a(S'Ellis L. Johnson'
p6161
I3
tp6162
a(S'Varghese S. Jacob'
p6163
I3
tp6164
a(S'Mohan Kumar'
p6165
I2
tp6166
a(S'Joseph G. Davis'
p6167
I2
tp6168
a(S'Kai Yu'
p6169
I2
tp6170
a(S'Angsana A. Techatassanasoontorn'
p6171
I2
tp6172
a(S'Xiaowei Xu'
p6173
I2
tp6174
a(S'Michael Collins'
p6175
I2
tp6176
a(S'Arthur Westerberg'
p6177
I2
tp6178
a(S'Eswaran Subrahmanian'
p6179
I2
tp6180
a(S'Anton Schwaighofer'
p6181
I2
tp6182
a(S'Rui Dai'
p6183
I2
tp6184
a(S'Helen Granger'
p6185
I2
tp6186
a(S'Suresh Konda'
p6187
I2
tp6188
a(S'Nor Jaidi Tuah'
p6189
I2
tp6190
a(S'Chiang Lee'
p6191
I2
tp6192
a(S'Bernhard Braunm\xc3\xbcller'
p6193
I1
tp6194
a(S'Frank F. Land'
p6195
I1
tp6196
a(S'Jonathan L. Herlocker'
p6197
I1
tp6198
a(S'Ho Geun Lee'
p6199
I1
tp6200
a(S'Yaw-Huei Chen'
p6201
I1
tp6202
a(S'Chi-Sheng Shih'
p6203
I1
tp6204
a(S'Theodore H. Clark'
p6205
I1
tp6206
asS'Mohammad Reza Meybodi'
p6207
(lp6208
sS'Bruno Tuffin'
p6209
(lp6210
(S'Hannes Hartenstein'
p6211
I59
tp6212
a(S'Christian Bettstetter'
p6213
I46
tp6214
a(S'Kee Chaing Chua'
p6215
I30
tp6216
a(S'Eitan Altman'
p6217
I27
tp6218
a(S'Bo Li'
p6219
I24
tp6220
a(S'Xavier P\xc3\xa9rez Costa'
p6221
I22
tp6222
a(S'Y. C. Tay'
p6223
I19
tp6224
a(S'R. Srikant'
p6225
I12
tp6226
a(S'Tamer Basar'
p6227
I10
tp6228
a(S'Tansu Alpcan'
p6229
I10
tp6230
a(S'Bin Li'
p6231
I6
tp6232
a(S'Xi-Ren Cao'
p6233
I4
tp6234
a(S'Lizhong Li'
p6235
I4
tp6236
a(S'Yijie Han'
p6237
I3
tp6238
a(S'Guido H. Petit'
p6239
I3
tp6240
a(S'Danny De Vleeschauwer'
p6241
I3
tp6242
a(S'Jan Janssen'
p6243
I3
tp6244
a(S'Armand M. Makowski'
p6245
I3
tp6246
a(S'Richard J. La'
p6247
I3
tp6248
a(S'Seungjoon Lee'
p6249
I3
tp6250
a(S'Maarten B\xc3\xbcchli'
p6251
I3
tp6252
a(S'Nidhi Hegde'
p6253
I2
tp6254
asS'Xiang-Yang Li'
p6255
(lp6256
(S'J. J. Garcia-Luna-Aceves'
p6257
I19
tp6258
a(S'Asimakis Tzamaloukas'
p6259
I3
tp6260
a(S'Mohand-Said Hacid'
p6261
I3
tp6262
a(S'Cyril Decleir'
p6263
I2
tp6264
a(S'Jacques Kouloumdjian'
p6265
I2
tp6266
asS'Georgios Kambourakis'
p6267
(lp6268
sS'Yong Tan'
p6269
(lp6270
(S'Izak Benbasat'
p6271
I111
tp6272
a(S'Robert J. Kauffman'
p6273
I99
tp6274
a(S'Eric K. Clemons'
p6275
I67
tp6276
a(S'Sirkka L. Jarvenpaa'
p6277
I59
tp6278
a(S'Lorin M. Hitt'
p6279
I59
tp6280
a(S'Michael Vitale'
p6281
I54
tp6282
a(S'Noam Tractinsky'
p6283
I45
tp6284
a(S'Kar Yan Tam'
p6285
I36
tp6286
a(S'James Y. L. Thong'
p6287
I35
tp6288
a(S'Vidyanand Choudhary'
p6289
I33
tp6290
a(S'Anol Bhattacherjee'
p6291
I33
tp6292
a(S'Andrew B. Whinston'
p6293
I32
tp6294
a(S'Veda C. Storey'
p6295
I26
tp6296
a(S'Hemant K. Bhargava'
p6297
I26
tp6298
a(S'Frederick J. Riggins'
p6299
I22
tp6300
a(S'Sumit Sarkar'
p6301
I21
tp6302
a(S'Weiyin Hong'
p6303
I20
tp6304
a(S'Karl Reiner Lang'
p6305
I14
tp6306
a(S'Debabrata Dey'
p6307
I12
tp6308
a(S'Guodong (Gordon) Gao'
p6309
I12
tp6310
a(S'Sulin Ba'
p6311
I11
tp6312
a(S'Vijay S. Mookerjee'
p6313
I10
tp6314
a(S'Zhenhui Jiang'
p6315
I10
tp6316
a(S'Svetha Venkatesh'
p6317
I8
tp6318
a(S'Han Zhang'
p6319
I7
tp6320
a(S'Yoris A. Au'
p6321
I7
tp6322
a(S'Roumen Vragov'
p6323
I6
tp6324
a(S'I. Robert Chiang'
p6325
I3
tp6326
a(S'Syam Menon'
p6327
I3
tp6328
a(S'Mohan Kumar'
p6329
I2
tp6330
a(S'Nor Jaidi Tuah'
p6331
I2
tp6332
a(S'Robert C. Goldstein'
p6333
I2
tp6334
a(S'Ali Amiri'
p6335
I2
tp6336
a(S'Harald Ullrich'
p6337
I2
tp6338
asS'David J. Hand'
p6339
(lp6340
(S'Umeshwar Dayal'
p6341
I25
tp6342
a(S'Meichun Hsu'
p6343
I24
tp6344
a(S'Timos K. Sellis'
p6345
I18
tp6346
a(S'Daniel A. Keim'
p6347
I14
tp6348
a(S'Yannis Theodoridis'
p6349
I14
tp6350
a(S'Emmanuel Stefanakis'
p6351
I11
tp6352
a(S'Ming C. Hao'
p6353
I4
tp6354
a(S'J. A. Dykes'
p6355
I3
tp6356
a(S'D. M. Mountain'
p6357
I3
tp6358
a(S'Gopi Goswami'
p6359
I2
tp6360
a(S'Jun S. Liu'
p6361
I2
tp6362
asS'Josep Sol\xc3\xa9-Pareta'
p6363
(lp6364
(S'Raouf Boutaba'
p6365
I26
tp6366
a(S'Youssef Iraqi'
p6367
I12
tp6368
a(S'Douglas S. Reeves'
p6369
I9
tp6370
a(S'Mostafa H. Ammar'
p6371
I9
tp6372
a(S'Errin W. Fulp'
p6373
I6
tp6374
a(S'W. Szeto'
p6375
I4
tp6376
a(S'Ant\xc3\xb3nio Pacheco'
p6377
I3
tp6378
a(S'Paulo Salvador'
p6379
I3
tp6380
a(S'Rui Valadas'
p6381
I3
tp6382
a(S'Piet Demeester'
p6383
I2
tp6384
a(S'Erik Van Breusegem'
p6385
I1
tp6386
a(S'Didier Colle'
p6387
I1
tp6388
a(S'Joris Moreau'
p6389
I1
tp6390
a(S'Andrea Detti'
p6391
I1
tp6392
a(S'Yong Zhu'
p6393
I1
tp6394
a(S'Jan Cheyns'
p6395
I1
tp6396
a(S'Davy De Winter'
p6397
I1
tp6398
a(S'Mario Pickavet'
p6399
I1
tp6400
a(S'Marco Listanti'
p6401
I1
tp6402
a(S'Constantinos Dovrolis'
p6403
I1
tp6404
asS'Ke Xu'
p6405
(lp6406
(S'Ian F. Akyildiz'
p6407
I358
tp6408
a(S'Tommaso Melodia'
p6409
I49
tp6410
a(S'Kaushik R. Chowdhury'
p6411
I37
tp6412
a(S'Lixia Zhang'
p6413
I32
tp6414
a(S'Jun Wang'
p6415
I30
tp6416
a(S'Hariharan Krishnan'
p6417
I17
tp6418
a(S'Gavin Holland'
p6419
I17
tp6420
a(S'Tamer A. ElBatt'
p6421
I17
tp6422
a(S'Edward W. Knightly'
p6423
I15
tp6424
a(S'Jayendra S. Parikh'
p6425
I14
tp6426
a(S'Jon Crowcroft'
p6427
I14
tp6428
a(S'Ashutosh Sabharwal'
p6429
I11
tp6430
a(S'Bahareh Sadeghi'
p6431
I11
tp6432
a(S'James W. Hong'
p6433
I10
tp6434
a(S'Suman Banerjee'
p6435
I10
tp6436
a(S'Vikram Kanodia'
p6437
I9
tp6438
a(S'Chong-kwon Kim'
p6439
I7
tp6440
a(S'Daniel Massey'
p6441
I7
tp6442
a(S'Mary Baker'
p6443
I7
tp6444
a(S'Dan Pei'
p6445
I7
tp6446
a(S'Klara Nahrstedt'
p6447
I7
tp6448
a(S'Li Xiao'
p6449
I6
tp6450
a(S'Siddhartha K. Goel'
p6451
I6
tp6452
a(S'Gunter Saake'
p6453
I6
tp6454
a(S'Chengzhi Li'
p6455
I5
tp6456
a(S'Benny Sudakov'
p6457
I5
tp6458
a(S'J. W. Roberts'
p6459
I5
tp6460
a(S'Bruce H. Thomas'
p6461
I5
tp6462
a(S'Matt Azuma'
p6463
I5
tp6464
a(S'John Squires'
p6465
I4
tp6466
a(S'Phillip De Bondi'
p6467
I4
tp6468
a(S'Michael Krivelevich'
p6469
I4
tp6470
a(S'Wayne E. Huang'
p6471
I4
tp6472
a(S'Ingo Schmitt'
p6473
I4
tp6474
a(S'Yaling Yang'
p6475
I4
tp6476
a(S'S\xc3\xb6ren Balko'
p6477
I4
tp6478
a(S'Wayne Piekarski'
p6479
I4
tp6480
a(S'Vittorio Castelli'
p6481
I4
tp6482
a(S'Kwok-Kee Wei'
p6483
I4
tp6484
a(S'Alexander Thomasian'
p6485
I4
tp6486
a(S'Jean-Philippe Martin-Flatin'
p6487
I4
tp6488
a(S'John Donoghue'
p6489
I4
tp6490
a(S'Benjamin Close'
p6491
I4
tp6492
a(S'Christophe Diot'
p6493
I3
tp6494
a(S'Jong-Deok Kim'
p6495
I3
tp6496
a(S'Van H. Vu'
p6497
I3
tp6498
a(S'Sung-Uk Park'
p6499
I2
tp6500
a(S'Luca Deri'
p6501
I2
tp6502
a(S'Byung-Gon Chun'
p6503
I2
tp6504
a(S'Manuel M. Oliveira'
p6505
I2
tp6506
a(S'Young-Min Kang'
p6507
I2
tp6508
a(S'Chung-Sheng Li'
p6509
I2
tp6510
a(S'Jong-Tae Park'
p6511
I2
tp6512
a(S'Bobby Bhattacharjee'
p6513
I1
tp6514
a(S'Nikolaos Anerousis'
p6515
I1
tp6516
a(S'Christopher Kommareddy'
p6517
I1
tp6518
asS'Paolo Soda'
p6519
(lp6520
(S'Ralf Klinkenberg'
p6521
I9
tp6522
asS'Marcelo Dias de Amorim'
p6523
(lp6524
(S'Ian F. Akyildiz'
p6525
I358
tp6526
a(S'Weilian Su'
p6527
I189
tp6528
a(S'Erdal Cayirci'
p6529
I187
tp6530
a(S'Yogesh Sankarasubramaniam'
p6531
I183
tp6532
a(S'Scott Shenker'
p6533
I74
tp6534
a(S'Xudong Wang'
p6535
I45
tp6536
a(S'Michael J. Franklin'
p6537
I43
tp6538
a(S'Ian T. Foster'
p6539
I41
tp6540
a(S'Weilin Wang'
p6541
I40
tp6542
a(S'Janet L. Wiener'
p6543
I37
tp6544
a(S'Olov Schel\xc3\xa9n'
p6545
I36
tp6546
a(S'Avri Doria'
p6547
I36
tp6548
a(S'Anders Lindgren'
p6549
I36
tp6550
a(S'Andrew Tomkins'
p6551
I35
tp6552
a(S'Prabhakar Raghavan'
p6553
I35
tp6554
a(S'Andrei Z. Broder'
p6555
I35
tp6556
a(S'Raymie Stata'
p6557
I34
tp6558
a(S'Farzin Maghoul'
p6559
I34
tp6560
a(S'Sridhar Rajagopalan'
p6561
I34
tp6562
a(S'Ravi Kumar'
p6563
I34
tp6564
a(S'Matei Ripeanu'
p6565
I29
tp6566
a(S'Richard M. Karp'
p6567
I28
tp6568
a(S'Adriana Iamnitchi'
p6569
I23
tp6570
a(S'David R. Choffnes'
p6571
I16
tp6572
a(S'Fabi\xc3\xa1n E. Bustamante'
p6573
I16
tp6574
a(S'Bhaskar Krishnamachari'
p6575
I14
tp6576
a(S'Sylvia Ratnasamy'
p6577
I14
tp6578
a(S'Mark Handley'
p6579
I14
tp6580
a(S'Silvia Giordano'
p6581
I9
tp6582
a(S'Jean-Yves Le Boudec'
p6583
I9
tp6584
a(S'Ljubica Blazevic'
p6585
I8
tp6586
a(S'W. Steven Conner'
p6587
I7
tp6588
a(S'Colin Cooper'
p6589
I7
tp6590
a(S'Elias Proc\xc3\xb3pio Duarte Jr.'
p6591
I6
tp6592
a(S'Edmundo Roberto Mauro Madeira'
p6593
I6
tp6594
a(S'Apratim Purakayastha'
p6595
I5
tp6596
a(S'Bruno Schulze'
p6597
I5
tp6598
a(S'Joseph D. Touch'
p6599
I5
tp6600
a(S'Jos\xc3\xa9 Neuman de Souza'
p6601
I4
tp6602
a(S'Shahram Ghandeharizadeh'
p6603
I4
tp6604
a(S'Mark D. Yarvis'
p6605
I4
tp6606
a(S'Catherine S. Greenhill'
p6607
I4
tp6608
a(S'Matthew Denny'
p6609
I4
tp6610
a(S'Paul Castro'
p6611
I3
tp6612
a(S'Jasmeet Chhabra'
p6613
I3
tp6614
a(S'Lisandro Zambenedetti Granville'
p6615
I3
tp6616
a(S'Lakshman Krishnamurthy'
p6617
I3
tp6618
a(S'Shyam Kapadia'
p6619
I3
tp6620
a(S'Martin E. Dyer'
p6621
I2
tp6622
a(S'Luciano Paschoal Gaspary'
p6623
I2
tp6624
asS'Davide Careglio'
p6625
(lp6626
(S'Kee Chaing Chua'
p6627
I30
tp6628
a(S'Raouf Boutaba'
p6629
I26
tp6630
a(S'Youssef Iraqi'
p6631
I12
tp6632
a(S'Douglas S. Reeves'
p6633
I9
tp6634
a(S'G. Mohan'
p6635
I8
tp6636
a(S'Siok Kheng Tan'
p6637
I7
tp6638
a(S'Errin W. Fulp'
p6639
I6
tp6640
a(S'W. Szeto'
p6641
I4
tp6642
a(S'Ant\xc3\xb3nio Pacheco'
p6643
I3
tp6644
a(S'Paulo Salvador'
p6645
I3
tp6646
a(S'Rui Valadas'
p6647
I3
tp6648
a(S'Minh Hoang Ph\xc3\xb9ng'
p6649
I2
tp6650
a(S'Tung Chong Wong'
p6651
I2
tp6652
a(S'Peng Yong Kong'
p6653
I2
tp6654
a(S'Piet Demeester'
p6655
I2
tp6656
a(S'Gurusamy Mohan'
p6657
I2
tp6658
a(S'Mehul Motani'
p6659
I2
tp6660
a(S'Robert Haas'
p6661
I1
tp6662
a(S'Daniel Bauer'
p6663
I1
tp6664
a(S'Marco Listanti'
p6665
I1
tp6666
a(S'Erik Van Breusegem'
p6667
I1
tp6668
a(S'Mario Pickavet'
p6669
I1
tp6670
a(S'Patrick Droz'
p6671
I1
tp6672
a(S'Jan Cheyns'
p6673
I1
tp6674
a(S'Davy De Winter'
p6675
I1
tp6676
a(S'Joris Moreau'
p6677
I1
tp6678
a(S'Andrea Detti'
p6679
I1
tp6680
a(S'Didier Colle'
p6681
I1
tp6682
asS'Pin-Han Ho'
p6683
(lp6684
(S'Ian F. Akyildiz'
p6685
I358
tp6686
a(S'Weilian Su'
p6687
I189
tp6688
a(S'Erdal Cayirci'
p6689
I187
tp6690
a(S'Yogesh Sankarasubramaniam'
p6691
I183
tp6692
a(S'Adrian Perrig'
p6693
I73
tp6694
a(S'David B. Johnson'
p6695
I56
tp6696
a(S'Yih-Chun Hu'
p6697
I38
tp6698
a(S'Jean-Pierre Hubaux'
p6699
I33
tp6700
a(S'Raouf Boutaba'
p6701
I26
tp6702
a(S'Wendi Rabiner Heinzelman'
p6703
I26
tp6704
a(S'Laks V. S. Lakshmanan'
p6705
I17
tp6706
a(S'Michalis Faloutsos'
p6707
I15
tp6708
a(S'Sameer Tilak'
p6709
I15
tp6710
a(S'Nael B. Abu-Ghazaleh'
p6711
I15
tp6712
a(S'Koustuv Dasgupta'
p6713
I14
tp6714
a(S'Parag Namjoshi'
p6715
I13
tp6716
a(S'Konstantinos Kalpakis'
p6717
I13
tp6718
a(S'Badri Nath'
p6719
I9
tp6720
a(S'Shweta Bhandare'
p6721
I7
tp6722
a(S'Timothy X. Brown'
p6723
I7
tp6724
a(S'Sheetalkumar Doshi'
p6725
I7
tp6726
a(S'Mart Molle'
p6727
I6
tp6728
a(S'Subbu N. Subramanian'
p6729
I5
tp6730
a(S'Levente Butty\xc3\xa1n'
p6731
I5
tp6732
a(S'Fereidoon Sadri'
p6733
I5
tp6734
a(S'Jon M. Peha'
p6735
I5
tp6736
a(S'Thomas Karagiannis'
p6737
I4
tp6738
a(S'Majid Ghaderi'
p6739
I4
tp6740
a(S'Jing Wu'
p6741
I4
tp6742
a(S'Gregor von Bochmann'
p6743
I3
tp6744
a(S'Craig A. Knoblock'
p6745
I2
tp6746
a(S'Budhaditya Deb'
p6747
I2
tp6748
a(S'Scott Campbell'
p6749
I2
tp6750
a(S'Sudeept Bhatnagar'
p6751
I2
tp6752
a(S'Hanxi Zhang'
p6753
I2
tp6754
a(S'Chun-Nan Hsu'
p6755
I2
tp6756
a(S'Arak Sutivong'
p6757
I2
tp6758
a(S'Michel Savoie'
p6759
I2
tp6760
a(S'Bill St. Arnaud'
p6761
I2
tp6762
asS'Matthias Templ'
p6763
(lp6764
sS'Claudio Bettini'
p6765
(lp6766
(S'Pierangela Samarati'
p6767
I95
tp6768
a(S'Dimitris Papadias'
p6769
I92
tp6770
a(S'Yufei Tao'
p6771
I66
tp6772
a(S'Ming-Syan Chen'
p6773
I52
tp6774
a(S'Christos Faloutsos'
p6775
I43
tp6776
a(S'Sushil Jajodia'
p6777
I42
tp6778
a(S'Christian S. Jensen'
p6779
I38
tp6780
a(S'Olov Schel\xc3\xa9n'
p6781
I36
tp6782
a(S'Anders Lindgren'
p6783
I36
tp6784
a(S'Avri Doria'
p6785
I36
tp6786
a(S'Dimitrios Gunopulos'
p6787
I35
tp6788
a(S'Ke Wang'
p6789
I32
tp6790
a(S'Bongki Moon'
p6791
I29
tp6792
a(S'Divyakant Agrawal'
p6793
I28
tp6794
a(S'Michael H. B\xc3\xb6hlen'
p6795
I28
tp6796
a(S'Y\xc3\xbccel Saygin'
p6797
I28
tp6798
a(S'Jean-Fran\xc3\xa7ois Boulicaut'
p6799
I26
tp6800
a(S'Joel H. Saltz'
p6801
I24
tp6802
a(S'Jun Zhang'
p6803
I23
tp6804
a(S'V. S. Subrahmanian'
p6805
I23
tp6806
a(S'Beng Chin Ooi'
p6807
I22
tp6808
a(S'David Kotz'
p6809
I22
tp6810
a(S'Qiang Yang'
p6811
I21
tp6812
a(S'H. V. Jagadish'
p6813
I21
tp6814
a(S'Nick Roussopoulos'
p6815
I21
tp6816
a(S'Maria Luisa Sapino'
p6817
I20
tp6818
a(S'Richard T. Snodgrass'
p6819
I20
tp6820
a(S'Albrecht Schmidt'
p6821
I18
tp6822
a(S'Giuseppe Manco'
p6823
I15
tp6824
a(S'Ahmed Helmy'
p6825
I15
tp6826
a(S'Geoffrey M. Voelker'
p6827
I15
tp6828
a(S'Amr El Abbadi'
p6829
I14
tp6830
a(S'Tristan Henderson'
p6831
I14
tp6832
a(S'Marvin McNett'
p6833
I14
tp6834
a(S'Nigel Davies'
p6835
I14
tp6836
a(S'Daniel A. Keim'
p6837
I14
tp6838
a(S'Wen-Chih Peng'
p6839
I13
tp6840
a(S'Alberto O. Mendelzon'
p6841
I13
tp6842
a(S'Fosca Giannotti'
p6843
I12
tp6844
a(S'Arun Iyengar'
p6845
I12
tp6846
a(S'George Kollios'
p6847
I11
tp6848
a(S'Eric A. Brewer'
p6849
I10
tp6850
a(S'Dino Pedreschi'
p6851
I10
tp6852
a(S'Keith Cheverst'
p6853
I10
tp6854
a(S'Csilla Farkas'
p6855
I9
tp6856
a(S'Hans-Arno Jacobsen'
p6857
I9
tp6858
a(S'\xc3\x96zg\xc3\xbcr Ulusoy'
p6859
I9
tp6860
a(S'Masaru Kitsuregawa'
p6861
I9
tp6862
a(S'Marios Hadjieleftheriou'
p6863
I8
tp6864
a(S'Alex Delis'
p6865
I8
tp6866
a(S'Vassilis J. Tsotras'
p6867
I8
tp6868
a(S'Alexander Brodsky'
p6869
I7
tp6870
a(S'Hae Don Chon'
p6871
I7
tp6872
a(S'Davood Rafiei'
p6873
I7
tp6874
a(S'Adrian Friday'
p6875
I7
tp6876
a(S'Hui Lei'
p6877
I7
tp6878
a(S'Chih-hsin Hsu'
p6879
I6
tp6880
a(S'Wei-jen Hsu'
p6881
I6
tp6882
a(S'Stardas Pakalnis'
p6883
I6
tp6884
a(S'Gianpaolo Cugola'
p6885
I6
tp6886
a(S'Haw-wei Shu'
p6887
I6
tp6888
a(S'Kashyap Merchant'
p6889
I6
tp6890
a(S'Daniel M. Dias'
p6891
I6
tp6892
a(S'Christos Efstratiou'
p6893
I6
tp6894
a(S'Alminas Civilis'
p6895
I6
tp6896
a(S'Keith Mitchell'
p6897
I6
tp6898
a(S'Maria Ebling'
p6899
I5
tp6900
a(S'Zhexuan Song'
p6901
I4
tp6902
a(S'Jim Challenger'
p6903
I4
tp6904
a(S'John S. Davis II'
p6905
I4
tp6906
a(S'R. J. Honicky'
p6907
I4
tp6908
a(S'Melissa Ho'
p6909
I4
tp6910
a(S'Michael J. Demmer'
p6911
I4
tp6912
a(S'Daby M. Sow'
p6913
I4
tp6914
a(S'Franco Turini'
p6915
I4
tp6916
a(S'Joyojeet Pal'
p6917
I4
tp6918
a(S'Guruduth Banavar'
p6919
I4
tp6920
a(S'Paul Dantzig'
p6921
I4
tp6922
a(S'Madelaine Plauch\xc3\xa9'
p6923
I4
tp6924
a(S'Sonesh Surana'
p6925
I4
tp6926
a(S'Jani M\xc3\xa4ntyj\xc3\xa4rvi'
p6927
I3
tp6928
a(S'Dan Lin'
p6929
I3
tp6930
a(S'Duncan J. Watts'
p6931
I3
tp6932
a(S'Iko Pramudiono'
p6933
I3
tp6934
a(S'Simonas Saltenis'
p6935
I2
tp6936
a(S'Takahiko Shintani'
p6937
I2
tp6938
a(S'J\xc3\xb6rn Schneidewind'
p6939
I2
tp6940
a(S'Ian Tian Yi Li'
p6941
I2
tp6942
a(S'Antti Takaluoma'
p6943
I2
tp6944
a(S'Federica Mandreoli'
p6945
I2
tp6946
a(S'Baptiste Jeudy'
p6947
I2
tp6948
a(S'Fabio Grandi'
p6949
I2
tp6950
a(S'Katsumi Takahashi'
p6951
I2
tp6952
a(S'Lalitha Suryanarayana'
p6953
I1
tp6954
a(S'Mike Sips'
p6955
I1
tp6956
a(S'Johan Hjelm'
p6957
I1
tp6958
a(S'Maria Rita Scalas'
p6959
I1
tp6960
as.